
sfkrnl.elf:     file format elf64-x86-64


Disassembly of section .text:

0000000000101000 <header>:
  101000:	d6                   	(bad)
  101001:	50                   	push   %rax
  101002:	52                   	push   %rdx
  101003:	e8 00 00 00 00       	call   101008 <header+0x8>
  101008:	50                   	push   %rax
  101009:	00 00                	add    %al,(%rax)
  10100b:	00 da                	add    %bl,%dl
  10100d:	ae                   	scas   %es:(%rdi),%al
  10100e:	ad                   	lods   %ds:(%rsi),%eax
  10100f:	17                   	(bad)

0000000000101010 <info_tag_start>:
  101010:	01 00                	add    %eax,(%rax)
  101012:	00 00                	add    %al,(%rax)
  101014:	1c 00                	sbb    $0x0,%al
  101016:	00 00                	add    %al,(%rax)
  101018:	02 00                	add    (%rax),%al
  10101a:	00 00                	add    %al,(%rax)
  10101c:	01 00                	add    %eax,(%rax)
  10101e:	00 00                	add    %al,(%rax)
  101020:	05 00 00 00 0f       	add    $0xf000000,%eax
  101025:	00 00                	add    %al,(%rax)
  101027:	00 08                	add    %cl,(%rax)
  101029:	00 00                	add    %al,(%rax)
	...

000000000010102c <info_tag_end>:
  10102c:	00 00                	add    %al,(%rax)
	...

0000000000101030 <fb_tag_start>:
  101030:	05 00 00 00 18       	add    $0x18000000,%eax
	...
  10103d:	00 00                	add    %al,(%rax)
  10103f:	00 20                	add    %ah,(%rax)
  101041:	00 00                	add    %al,(%rax)
  101043:	00 00                	add    %al,(%rax)
  101045:	00 00                	add    %al,(%rax)
	...

0000000000101048 <fb_tag_end>:
  101048:	00 00                	add    %al,(%rax)
  10104a:	00 00                	add    %al,(%rax)
  10104c:	08 00                	or     %al,(%rax)
	...

0000000000101050 <acpiman_isvalid>:
  101050:	48 85 f6             	test   %rsi,%rsi
  101053:	74 1b                	je     101070 <acpiman_isvalid+0x20>
  101055:	55                   	push   %rbp
  101056:	48 89 e5             	mov    %rsp,%rbp
  101059:	48 8d 4e ff          	lea    -0x1(%rsi),%rcx
  10105d:	41 89 f0             	mov    %esi,%r8d
  101060:	41 83 e0 07          	and    $0x7,%r8d
  101064:	48 83 f9 07          	cmp    $0x7,%rcx
  101068:	73 0c                	jae    101076 <acpiman_isvalid+0x26>
  10106a:	31 c9                	xor    %ecx,%ecx
  10106c:	31 d2                	xor    %edx,%edx
  10106e:	eb 58                	jmp    1010c8 <acpiman_isvalid+0x78>
  101070:	b8 01 00 00 00       	mov    $0x1,%eax
  101075:	c3                   	ret
  101076:	48 83 e6 f8          	and    $0xfffffffffffffff8,%rsi
  10107a:	31 c9                	xor    %ecx,%ecx
  10107c:	31 d2                	xor    %edx,%edx
  10107e:	66 90                	xchg   %ax,%ax
  101080:	0f b6 04 0f          	movzbl (%rdi,%rcx,1),%eax
  101084:	48 01 d0             	add    %rdx,%rax
  101087:	0f b6 54 0f 01       	movzbl 0x1(%rdi,%rcx,1),%edx
  10108c:	48 01 c2             	add    %rax,%rdx
  10108f:	0f b6 44 0f 02       	movzbl 0x2(%rdi,%rcx,1),%eax
  101094:	48 01 d0             	add    %rdx,%rax
  101097:	0f b6 54 0f 03       	movzbl 0x3(%rdi,%rcx,1),%edx
  10109c:	48 01 c2             	add    %rax,%rdx
  10109f:	0f b6 44 0f 04       	movzbl 0x4(%rdi,%rcx,1),%eax
  1010a4:	48 01 d0             	add    %rdx,%rax
  1010a7:	0f b6 54 0f 05       	movzbl 0x5(%rdi,%rcx,1),%edx
  1010ac:	48 01 c2             	add    %rax,%rdx
  1010af:	0f b6 44 0f 06       	movzbl 0x6(%rdi,%rcx,1),%eax
  1010b4:	48 01 d0             	add    %rdx,%rax
  1010b7:	0f b6 54 0f 07       	movzbl 0x7(%rdi,%rcx,1),%edx
  1010bc:	48 01 c2             	add    %rax,%rdx
  1010bf:	48 83 c1 08          	add    $0x8,%rcx
  1010c3:	48 39 ce             	cmp    %rcx,%rsi
  1010c6:	75 b8                	jne    101080 <acpiman_isvalid+0x30>
  1010c8:	4d 85 c0             	test   %r8,%r8
  1010cb:	74 22                	je     1010ef <acpiman_isvalid+0x9f>
  1010cd:	48 01 cf             	add    %rcx,%rdi
  1010d0:	31 c9                	xor    %ecx,%ecx
  1010d2:	66 66 66 66 66 2e 0f 	data16 data16 data16 data16 cs nopw 0x0(%rax,%rax,1)
  1010d9:	1f 84 00 00 00 00 00 
  1010e0:	0f b6 34 0f          	movzbl (%rdi,%rcx,1),%esi
  1010e4:	48 01 f2             	add    %rsi,%rdx
  1010e7:	48 ff c1             	inc    %rcx
  1010ea:	49 39 c8             	cmp    %rcx,%r8
  1010ed:	75 f1                	jne    1010e0 <acpiman_isvalid+0x90>
  1010ef:	31 c0                	xor    %eax,%eax
  1010f1:	84 d2                	test   %dl,%dl
  1010f3:	0f 94 c0             	sete   %al
  1010f6:	5d                   	pop    %rbp
  1010f7:	c3                   	ret
  1010f8:	0f 1f 84 00 00 00 00 	nopl   0x0(%rax,%rax,1)
  1010ff:	00 

0000000000101100 <acpiman_get_tab>:
  101100:	55                   	push   %rbp
  101101:	48 89 e5             	mov    %rsp,%rbp
  101104:	41 57                	push   %r15
  101106:	41 56                	push   %r14
  101108:	41 54                	push   %r12
  10110a:	53                   	push   %rbx
  10110b:	48 8b 05 ee ae 00 00 	mov    0xaeee(%rip),%rax        # 10c000 <sys_xsdt_addr>
  101112:	8b 40 04             	mov    0x4(%rax),%eax
  101115:	48 83 c0 dc          	add    $0xffffffffffffffdc,%rax
  101119:	41 be ad de 00 00    	mov    $0xdead,%r14d
  10111f:	48 83 f8 08          	cmp    $0x8,%rax
  101123:	72 4e                	jb     101173 <acpiman_get_tab+0x73>
  101125:	49 89 ff             	mov    %rdi,%r15
  101128:	48 c1 e8 03          	shr    $0x3,%rax
  10112c:	48 83 f8 02          	cmp    $0x2,%rax
  101130:	41 bc 01 00 00 00    	mov    $0x1,%r12d
  101136:	4c 0f 43 e0          	cmovae %rax,%r12
  10113a:	31 db                	xor    %ebx,%ebx
  10113c:	0f 1f 40 00          	nopl   0x0(%rax)
  101140:	48 8b 05 b9 ae 00 00 	mov    0xaeb9(%rip),%rax        # 10c000 <sys_xsdt_addr>
  101147:	48 8b 7c d8 24       	mov    0x24(%rax,%rbx,8),%rdi
  10114c:	ba 04 00 00 00       	mov    $0x4,%edx
  101151:	4c 89 fe             	mov    %r15,%rsi
  101154:	e8 07 18 00 00       	call   102960 <mem_cmp>
  101159:	85 c0                	test   %eax,%eax
  10115b:	75 0a                	jne    101167 <acpiman_get_tab+0x67>
  10115d:	48 ff c3             	inc    %rbx
  101160:	49 39 dc             	cmp    %rbx,%r12
  101163:	75 db                	jne    101140 <acpiman_get_tab+0x40>
  101165:	eb 0c                	jmp    101173 <acpiman_get_tab+0x73>
  101167:	48 8b 05 92 ae 00 00 	mov    0xae92(%rip),%rax        # 10c000 <sys_xsdt_addr>
  10116e:	4c 8b 74 d8 24       	mov    0x24(%rax,%rbx,8),%r14
  101173:	4c 89 f0             	mov    %r14,%rax
  101176:	5b                   	pop    %rbx
  101177:	41 5c                	pop    %r12
  101179:	41 5e                	pop    %r14
  10117b:	41 5f                	pop    %r15
  10117d:	5d                   	pop    %rbp
  10117e:	c3                   	ret
  10117f:	90                   	nop

0000000000101180 <acpiman_setup>:
  101180:	55                   	push   %rbp
  101181:	48 89 e5             	mov    %rsp,%rbp
  101184:	41 57                	push   %r15
  101186:	41 56                	push   %r14
  101188:	41 54                	push   %r12
  10118a:	53                   	push   %rbx
  10118b:	48 83 ec 10          	sub    $0x10,%rsp
  10118f:	48 89 fe             	mov    %rdi,%rsi
  101192:	bf 08 c0 10 00       	mov    $0x10c008,%edi
  101197:	ba 24 00 00 00       	mov    $0x24,%edx
  10119c:	e8 3f 13 00 00       	call   1024e0 <mem_cpy>
  1011a1:	bf 08 c0 10 00       	mov    $0x10c008,%edi
  1011a6:	be 00 b8 10 00       	mov    $0x10b800,%esi
  1011ab:	ba 08 00 00 00       	mov    $0x8,%edx
  1011b0:	e8 ab 17 00 00       	call   102960 <mem_cmp>
  1011b5:	85 c0                	test   %eax,%eax
  1011b7:	0f 84 cf 01 00 00    	je     10138c <acpiman_setup+0x20c>
  1011bd:	0f b6 05 44 ae 00 00 	movzbl 0xae44(%rip),%eax        # 10c008 <sys_rsdp_desc>
  1011c4:	0f b6 0d 3e ae 00 00 	movzbl 0xae3e(%rip),%ecx        # 10c009 <sys_rsdp_desc+0x1>
  1011cb:	48 01 c1             	add    %rax,%rcx
  1011ce:	0f b6 05 35 ae 00 00 	movzbl 0xae35(%rip),%eax        # 10c00a <sys_rsdp_desc+0x2>
  1011d5:	48 01 c8             	add    %rcx,%rax
  1011d8:	0f b6 0d 2c ae 00 00 	movzbl 0xae2c(%rip),%ecx        # 10c00b <sys_rsdp_desc+0x3>
  1011df:	48 01 c1             	add    %rax,%rcx
  1011e2:	0f b6 05 23 ae 00 00 	movzbl 0xae23(%rip),%eax        # 10c00c <sys_rsdp_desc+0x4>
  1011e9:	48 01 c8             	add    %rcx,%rax
  1011ec:	0f b6 0d 1a ae 00 00 	movzbl 0xae1a(%rip),%ecx        # 10c00d <sys_rsdp_desc+0x5>
  1011f3:	48 01 c1             	add    %rax,%rcx
  1011f6:	0f b6 05 11 ae 00 00 	movzbl 0xae11(%rip),%eax        # 10c00e <sys_rsdp_desc+0x6>
  1011fd:	48 01 c8             	add    %rcx,%rax
  101200:	0f b6 0d 08 ae 00 00 	movzbl 0xae08(%rip),%ecx        # 10c00f <sys_rsdp_desc+0x7>
  101207:	48 01 c1             	add    %rax,%rcx
  10120a:	0f b6 05 ff ad 00 00 	movzbl 0xadff(%rip),%eax        # 10c010 <sys_rsdp_desc+0x8>
  101211:	48 01 c8             	add    %rcx,%rax
  101214:	0f b6 0d f6 ad 00 00 	movzbl 0xadf6(%rip),%ecx        # 10c011 <sys_rsdp_desc+0x9>
  10121b:	48 01 c1             	add    %rax,%rcx
  10121e:	0f b6 05 ed ad 00 00 	movzbl 0xaded(%rip),%eax        # 10c012 <sys_rsdp_desc+0xa>
  101225:	48 01 c8             	add    %rcx,%rax
  101228:	0f b6 0d e4 ad 00 00 	movzbl 0xade4(%rip),%ecx        # 10c013 <sys_rsdp_desc+0xb>
  10122f:	48 01 c1             	add    %rax,%rcx
  101232:	0f b6 05 db ad 00 00 	movzbl 0xaddb(%rip),%eax        # 10c014 <sys_rsdp_desc+0xc>
  101239:	48 01 c8             	add    %rcx,%rax
  10123c:	0f b6 0d d2 ad 00 00 	movzbl 0xadd2(%rip),%ecx        # 10c015 <sys_rsdp_desc+0xd>
  101243:	48 01 c1             	add    %rax,%rcx
  101246:	0f b6 05 c9 ad 00 00 	movzbl 0xadc9(%rip),%eax        # 10c016 <sys_rsdp_desc+0xe>
  10124d:	48 01 c8             	add    %rcx,%rax
  101250:	0f b6 0d c0 ad 00 00 	movzbl 0xadc0(%rip),%ecx        # 10c017 <sys_rsdp_desc+0xf>
  101257:	48 01 c1             	add    %rax,%rcx
  10125a:	0f b6 05 b7 ad 00 00 	movzbl 0xadb7(%rip),%eax        # 10c018 <sys_rsdp_desc+0x10>
  101261:	48 01 c8             	add    %rcx,%rax
  101264:	0f b6 0d ae ad 00 00 	movzbl 0xadae(%rip),%ecx        # 10c019 <sys_rsdp_desc+0x11>
  10126b:	48 01 c1             	add    %rax,%rcx
  10126e:	0f b6 05 a5 ad 00 00 	movzbl 0xada5(%rip),%eax        # 10c01a <sys_rsdp_desc+0x12>
  101275:	48 01 c8             	add    %rcx,%rax
  101278:	0f b6 0d 9c ad 00 00 	movzbl 0xad9c(%rip),%ecx        # 10c01b <sys_rsdp_desc+0x13>
  10127f:	48 01 c1             	add    %rax,%rcx
  101282:	b8 1a b8 10 00       	mov    $0x10b81a,%eax
  101287:	84 c9                	test   %cl,%cl
  101289:	0f 85 1d 01 00 00    	jne    1013ac <acpiman_setup+0x22c>
  10128f:	f3 0f 7e 05 85 ad 00 	movq   0xad85(%rip),%xmm0        # 10c01c <sys_rsdp_desc+0x14>
  101296:	00 
  101297:	0f b6 05 8a ad 00 00 	movzbl 0xad8a(%rip),%eax        # 10c028 <sys_rsdp_desc+0x20>
  10129e:	66 0f ef c9          	pxor   %xmm1,%xmm1
  1012a2:	66 0f f6 c1          	psadbw %xmm1,%xmm0
  1012a6:	66 0f 7e c2          	movd   %xmm0,%edx
  1012aa:	66 0f 6e 05 72 ad 00 	movd   0xad72(%rip),%xmm0        # 10c024 <sys_rsdp_desc+0x1c>
  1012b1:	00 
  1012b2:	66 0f f6 c1          	psadbw %xmm1,%xmm0
  1012b6:	66 0f 7e c6          	movd   %xmm0,%esi
  1012ba:	02 05 69 ad 00 00    	add    0xad69(%rip),%al        # 10c029 <sys_rsdp_desc+0x21>
  1012c0:	40 00 d6             	add    %dl,%sil
  1012c3:	02 0d 61 ad 00 00    	add    0xad61(%rip),%cl        # 10c02a <sys_rsdp_desc+0x22>
  1012c9:	00 c1                	add    %al,%cl
  1012cb:	40 00 f1             	add    %sil,%cl
  1012ce:	b8 3d b8 10 00       	mov    $0x10b83d,%eax
  1012d3:	02 0d 52 ad 00 00    	add    0xad52(%rip),%cl        # 10c02b <sys_rsdp_desc+0x23>
  1012d9:	0f 85 cd 00 00 00    	jne    1013ac <acpiman_setup+0x22c>
  1012df:	c6 05 30 ad 00 00 00 	movb   $0x0,0xad30(%rip)        # 10c016 <sys_rsdp_desc+0xe>
  1012e6:	bf 59 b8 10 00       	mov    $0x10b859,%edi
  1012eb:	e8 a0 0c 00 00       	call   101f90 <draw_string>
  1012f0:	bf 11 c0 10 00       	mov    $0x10c011,%edi
  1012f5:	e8 96 0c 00 00       	call   101f90 <draw_string>
  1012fa:	bf b0 b9 10 00       	mov    $0x10b9b0,%edi
  1012ff:	e8 8c 0c 00 00       	call   101f90 <draw_string>
  101304:	48 8b 3d 15 ad 00 00 	mov    0xad15(%rip),%rdi        # 10c020 <sys_rsdp_desc+0x18>
  10130b:	be 02 00 00 00       	mov    $0x2,%esi
  101310:	e8 0b 2a 00 00       	call   103d20 <page_map_paddr>
  101315:	48 89 05 e4 ac 00 00 	mov    %rax,0xace4(%rip)        # 10c000 <sys_xsdt_addr>
  10131c:	bf 64 b8 10 00       	mov    $0x10b864,%edi
  101321:	e8 6a 0c 00 00       	call   101f90 <draw_string>
  101326:	48 8b 3d f3 ac 00 00 	mov    0xacf3(%rip),%rdi        # 10c020 <sys_rsdp_desc+0x18>
  10132d:	e8 0e 0e 00 00       	call   102140 <draw_hex>
  101332:	bf 71 b8 10 00       	mov    $0x10b871,%edi
  101337:	e8 54 0c 00 00       	call   101f90 <draw_string>
  10133c:	48 8b 3d bd ac 00 00 	mov    0xacbd(%rip),%rdi        # 10c000 <sys_xsdt_addr>
  101343:	e8 f8 0d 00 00       	call   102140 <draw_hex>
  101348:	bf 7e b8 10 00       	mov    $0x10b87e,%edi
  10134d:	e8 3e 0c 00 00       	call   101f90 <draw_string>
  101352:	48 8b 05 a7 ac 00 00 	mov    0xaca7(%rip),%rax        # 10c000 <sys_xsdt_addr>
  101359:	8b 78 04             	mov    0x4(%rax),%edi
  10135c:	e8 df 0d 00 00       	call   102140 <draw_hex>
  101361:	48 8b 3d 98 ac 00 00 	mov    0xac98(%rip),%rdi        # 10c000 <sys_xsdt_addr>
  101368:	8b 57 04             	mov    0x4(%rdi),%edx
  10136b:	48 85 d2             	test   %rdx,%rdx
  10136e:	0f 84 d9 00 00 00    	je     10144d <acpiman_setup+0x2cd>
  101374:	48 8d 4a ff          	lea    -0x1(%rdx),%rcx
  101378:	89 d0                	mov    %edx,%eax
  10137a:	83 e0 07             	and    $0x7,%eax
  10137d:	48 83 f9 07          	cmp    $0x7,%rcx
  101381:	73 3d                	jae    1013c0 <acpiman_setup+0x240>
  101383:	31 c9                	xor    %ecx,%ecx
  101385:	31 f6                	xor    %esi,%esi
  101387:	e9 8c 00 00 00       	jmp    101418 <acpiman_setup+0x298>
  10138c:	bf 09 b8 10 00       	mov    $0x10b809,%edi
  101391:	e8 fa 0b 00 00       	call   101f90 <draw_string>
  101396:	c6 05 72 ac 00 00 00 	movb   $0x0,0xac72(%rip)        # 10c00f <sys_rsdp_desc+0x7>
  10139d:	bf 08 c0 10 00       	mov    $0x10c008,%edi
  1013a2:	e8 e9 0b 00 00       	call   101f90 <draw_string>
  1013a7:	b8 b0 b9 10 00       	mov    $0x10b9b0,%eax
  1013ac:	48 89 c7             	mov    %rax,%rdi
  1013af:	48 83 c4 10          	add    $0x10,%rsp
  1013b3:	5b                   	pop    %rbx
  1013b4:	41 5c                	pop    %r12
  1013b6:	41 5e                	pop    %r14
  1013b8:	41 5f                	pop    %r15
  1013ba:	5d                   	pop    %rbp
  1013bb:	e9 d0 0b 00 00       	jmp    101f90 <draw_string>
  1013c0:	83 e2 f8             	and    $0xfffffff8,%edx
  1013c3:	31 c9                	xor    %ecx,%ecx
  1013c5:	31 f6                	xor    %esi,%esi
  1013c7:	66 0f 1f 84 00 00 00 	nopw   0x0(%rax,%rax,1)
  1013ce:	00 00 
  1013d0:	0f b6 1c 0f          	movzbl (%rdi,%rcx,1),%ebx
  1013d4:	48 01 f3             	add    %rsi,%rbx
  1013d7:	0f b6 74 0f 01       	movzbl 0x1(%rdi,%rcx,1),%esi
  1013dc:	48 01 de             	add    %rbx,%rsi
  1013df:	0f b6 5c 0f 02       	movzbl 0x2(%rdi,%rcx,1),%ebx
  1013e4:	48 01 f3             	add    %rsi,%rbx
  1013e7:	0f b6 74 0f 03       	movzbl 0x3(%rdi,%rcx,1),%esi
  1013ec:	48 01 de             	add    %rbx,%rsi
  1013ef:	0f b6 5c 0f 04       	movzbl 0x4(%rdi,%rcx,1),%ebx
  1013f4:	48 01 f3             	add    %rsi,%rbx
  1013f7:	0f b6 74 0f 05       	movzbl 0x5(%rdi,%rcx,1),%esi
  1013fc:	48 01 de             	add    %rbx,%rsi
  1013ff:	0f b6 5c 0f 06       	movzbl 0x6(%rdi,%rcx,1),%ebx
  101404:	48 01 f3             	add    %rsi,%rbx
  101407:	0f b6 74 0f 07       	movzbl 0x7(%rdi,%rcx,1),%esi
  10140c:	48 01 de             	add    %rbx,%rsi
  10140f:	48 83 c1 08          	add    $0x8,%rcx
  101413:	48 39 ca             	cmp    %rcx,%rdx
  101416:	75 b8                	jne    1013d0 <acpiman_setup+0x250>
  101418:	48 85 c0             	test   %rax,%rax
  10141b:	74 22                	je     10143f <acpiman_setup+0x2bf>
  10141d:	48 01 f9             	add    %rdi,%rcx
  101420:	31 d2                	xor    %edx,%edx
  101422:	66 66 66 66 66 2e 0f 	data16 data16 data16 data16 cs nopw 0x0(%rax,%rax,1)
  101429:	1f 84 00 00 00 00 00 
  101430:	0f b6 1c 11          	movzbl (%rcx,%rdx,1),%ebx
  101434:	48 01 de             	add    %rbx,%rsi
  101437:	48 ff c2             	inc    %rdx
  10143a:	48 39 d0             	cmp    %rdx,%rax
  10143d:	75 f1                	jne    101430 <acpiman_setup+0x2b0>
  10143f:	b8 88 b8 10 00       	mov    $0x10b888,%eax
  101444:	40 84 f6             	test   %sil,%sil
  101447:	0f 85 5f ff ff ff    	jne    1013ac <acpiman_setup+0x22c>
  10144d:	be a3 b8 10 00       	mov    $0x10b8a3,%esi
  101452:	ba 04 00 00 00       	mov    $0x4,%edx
  101457:	e8 04 15 00 00       	call   102960 <mem_cmp>
  10145c:	85 c0                	test   %eax,%eax
  10145e:	0f 84 d0 00 00 00    	je     101534 <acpiman_setup+0x3b4>
  101464:	48 8b 05 95 ab 00 00 	mov    0xab95(%rip),%rax        # 10c000 <sys_xsdt_addr>
  10146b:	44 8b 78 04          	mov    0x4(%rax),%r15d
  10146f:	49 83 c7 dc          	add    $0xffffffffffffffdc,%r15
  101473:	49 83 ff 08          	cmp    $0x8,%r15
  101477:	0f 82 aa 00 00 00    	jb     101527 <acpiman_setup+0x3a7>
  10147d:	49 c1 ef 03          	shr    $0x3,%r15
  101481:	45 31 e4             	xor    %r12d,%r12d
  101484:	4c 8d 75 d8          	lea    -0x28(%rbp),%r14
  101488:	0f 1f 84 00 00 00 00 	nopl   0x0(%rax,%rax,1)
  10148f:	00 
  101490:	48 8b 05 69 ab 00 00 	mov    0xab69(%rip),%rax        # 10c000 <sys_xsdt_addr>
  101497:	4a 8b 5c e0 24       	mov    0x24(%rax,%r12,8),%rbx
  10149c:	bf be b8 10 00       	mov    $0x10b8be,%edi
  1014a1:	e8 ea 0a 00 00       	call   101f90 <draw_string>
  1014a6:	48 89 df             	mov    %rbx,%rdi
  1014a9:	e8 92 0c 00 00       	call   102140 <draw_hex>
  1014ae:	48 89 df             	mov    %rbx,%rdi
  1014b1:	e8 4a 02 00 00       	call   101700 <dbgnumout_hex>
  1014b6:	be 01 00 00 00       	mov    $0x1,%esi
  1014bb:	48 89 df             	mov    %rbx,%rdi
  1014be:	e8 5d 28 00 00       	call   103d20 <page_map_paddr>
  1014c3:	48 89 c3             	mov    %rax,%rbx
  1014c6:	48 8b 05 33 ab 00 00 	mov    0xab33(%rip),%rax        # 10c000 <sys_xsdt_addr>
  1014cd:	4a 89 5c e0 24       	mov    %rbx,0x24(%rax,%r12,8)
  1014d2:	bf 0c b9 10 00       	mov    $0x10b90c,%edi
  1014d7:	e8 b4 0a 00 00       	call   101f90 <draw_string>
  1014dc:	48 89 df             	mov    %rbx,%rdi
  1014df:	e8 5c 0c 00 00       	call   102140 <draw_hex>
  1014e4:	bf cc b8 10 00       	mov    $0x10b8cc,%edi
  1014e9:	e8 a2 0a 00 00       	call   101f90 <draw_string>
  1014ee:	c6 45 dc 00          	movb   $0x0,-0x24(%rbp)
  1014f2:	c7 45 d8 00 00 00 00 	movl   $0x0,-0x28(%rbp)
  1014f9:	ba 04 00 00 00       	mov    $0x4,%edx
  1014fe:	4c 89 f7             	mov    %r14,%rdi
  101501:	48 89 de             	mov    %rbx,%rsi
  101504:	e8 d7 0f 00 00       	call   1024e0 <mem_cpy>
  101509:	4c 89 f7             	mov    %r14,%rdi
  10150c:	e8 7f 0a 00 00       	call   101f90 <draw_string>
  101511:	bf d6 b8 10 00       	mov    $0x10b8d6,%edi
  101516:	e8 75 0a 00 00       	call   101f90 <draw_string>
  10151b:	41 ff c4             	inc    %r12d
  10151e:	4d 39 e7             	cmp    %r12,%r15
  101521:	0f 87 69 ff ff ff    	ja     101490 <acpiman_setup+0x310>
  101527:	48 83 c4 10          	add    $0x10,%rsp
  10152b:	5b                   	pop    %rbx
  10152c:	41 5c                	pop    %r12
  10152e:	41 5e                	pop    %r14
  101530:	41 5f                	pop    %r15
  101532:	5d                   	pop    %rbp
  101533:	c3                   	ret
  101534:	b8 a8 b8 10 00       	mov    $0x10b8a8,%eax
  101539:	e9 6e fe ff ff       	jmp    1013ac <acpiman_setup+0x22c>
  10153e:	66 90                	xchg   %ax,%ax

0000000000101540 <apic_write_reg>:
  101540:	55                   	push   %rbp
  101541:	48 89 e5             	mov    %rsp,%rbp
  101544:	48 8b 05 e5 aa 00 00 	mov    0xaae5(%rip),%rax        # 10c030 <ioapic_addr>
  10154b:	89 38                	mov    %edi,(%rax)
  10154d:	89 70 10             	mov    %esi,0x10(%rax)
  101550:	5d                   	pop    %rbp
  101551:	c3                   	ret
  101552:	66 66 66 66 66 2e 0f 	data16 data16 data16 data16 cs nopw 0x0(%rax,%rax,1)
  101559:	1f 84 00 00 00 00 00 

0000000000101560 <apic_read_reg>:
  101560:	55                   	push   %rbp
  101561:	48 89 e5             	mov    %rsp,%rbp
  101564:	48 8b 05 c5 aa 00 00 	mov    0xaac5(%rip),%rax        # 10c030 <ioapic_addr>
  10156b:	89 38                	mov    %edi,(%rax)
  10156d:	8b 40 10             	mov    0x10(%rax),%eax
  101570:	5d                   	pop    %rbp
  101571:	c3                   	ret
  101572:	66 66 66 66 66 2e 0f 	data16 data16 data16 data16 cs nopw 0x0(%rax,%rax,1)
  101579:	1f 84 00 00 00 00 00 

0000000000101580 <apic_get_redir_ent>:
  101580:	55                   	push   %rbp
  101581:	48 89 e5             	mov    %rsp,%rbp
  101584:	40 00 ff             	add    %dil,%dil
  101587:	8d 47 10             	lea    0x10(%rdi),%eax
  10158a:	0f b6 c0             	movzbl %al,%eax
  10158d:	48 8b 0d 9c aa 00 00 	mov    0xaa9c(%rip),%rcx        # 10c030 <ioapic_addr>
  101594:	89 01                	mov    %eax,(%rcx)
  101596:	8b 41 10             	mov    0x10(%rcx),%eax
  101599:	89 06                	mov    %eax,(%rsi)
  10159b:	40 80 c7 11          	add    $0x11,%dil
  10159f:	40 0f b6 c7          	movzbl %dil,%eax
  1015a3:	48 8b 0d 86 aa 00 00 	mov    0xaa86(%rip),%rcx        # 10c030 <ioapic_addr>
  1015aa:	89 01                	mov    %eax,(%rcx)
  1015ac:	8b 41 10             	mov    0x10(%rcx),%eax
  1015af:	89 46 04             	mov    %eax,0x4(%rsi)
  1015b2:	5d                   	pop    %rbp
  1015b3:	c3                   	ret
  1015b4:	66 66 66 2e 0f 1f 84 	data16 data16 cs nopw 0x0(%rax,%rax,1)
  1015bb:	00 00 00 00 00 

00000000001015c0 <apic_setup>:
  1015c0:	55                   	push   %rbp
  1015c1:	48 89 e5             	mov    %rsp,%rbp
  1015c4:	41 56                	push   %r14
  1015c6:	53                   	push   %rbx
  1015c7:	b0 ff                	mov    $0xff,%al
  1015c9:	e6 a1                	out    %al,$0xa1
  1015cb:	b0 ff                	mov    $0xff,%al
  1015cd:	e6 21                	out    %al,$0x21
  1015cf:	bf dc b8 10 00       	mov    $0x10b8dc,%edi
  1015d4:	e8 27 fb ff ff       	call   101100 <acpiman_get_tab>
  1015d9:	48 89 05 58 aa 00 00 	mov    %rax,0xaa58(%rip)        # 10c038 <madt>
  1015e0:	bf e1 b8 10 00       	mov    $0x10b8e1,%edi
  1015e5:	e8 a6 09 00 00       	call   101f90 <draw_string>
  1015ea:	48 8b 05 47 aa 00 00 	mov    0xaa47(%rip),%rax        # 10c038 <madt>
  1015f1:	8b 78 24             	mov    0x24(%rax),%edi
  1015f4:	e8 47 0b 00 00       	call   102140 <draw_hex>
  1015f9:	48 8b 1d 38 aa 00 00 	mov    0xaa38(%rip),%rbx        # 10c038 <madt>
  101600:	83 7b 04 2d          	cmpl   $0x2d,0x4(%rbx)
  101604:	0f 82 95 00 00 00    	jb     10169f <apic_setup+0xdf>
  10160a:	48 83 c3 2c          	add    $0x2c,%rbx
  10160e:	eb 1c                	jmp    10162c <apic_setup+0x6c>
  101610:	0f b6 43 01          	movzbl 0x1(%rbx),%eax
  101614:	48 01 c3             	add    %rax,%rbx
  101617:	48 8b 05 1a aa 00 00 	mov    0xaa1a(%rip),%rax        # 10c038 <madt>
  10161e:	48 89 d9             	mov    %rbx,%rcx
  101621:	48 29 c1             	sub    %rax,%rcx
  101624:	8b 40 04             	mov    0x4(%rax),%eax
  101627:	48 39 c1             	cmp    %rax,%rcx
  10162a:	73 73                	jae    10169f <apic_setup+0xdf>
  10162c:	bf ec b8 10 00       	mov    $0x10b8ec,%edi
  101631:	e8 5a 09 00 00       	call   101f90 <draw_string>
  101636:	0f b6 3b             	movzbl (%rbx),%edi
  101639:	e8 02 0b 00 00       	call   102140 <draw_hex>
  10163e:	80 3b 01             	cmpb   $0x1,(%rbx)
  101641:	75 cd                	jne    101610 <apic_setup+0x50>
  101643:	83 7b 08 00          	cmpl   $0x0,0x8(%rbx)
  101647:	75 c7                	jne    101610 <apic_setup+0x50>
  101649:	be 01 00 00 00       	mov    $0x1,%esi
  10164e:	48 89 df             	mov    %rbx,%rdi
  101651:	e8 ca 26 00 00       	call   103d20 <page_map_paddr>
  101656:	48 89 05 d3 a9 00 00 	mov    %rax,0xa9d3(%rip)        # 10c030 <ioapic_addr>
  10165d:	bf 01 b9 10 00       	mov    $0x10b901,%edi
  101662:	e8 29 09 00 00       	call   101f90 <draw_string>
  101667:	48 8b 3d c2 a9 00 00 	mov    0xa9c2(%rip),%rdi        # 10c030 <ioapic_addr>
  10166e:	e8 cd 0a 00 00       	call   102140 <draw_hex>
  101673:	48 8b 05 b6 a9 00 00 	mov    0xa9b6(%rip),%rax        # 10c030 <ioapic_addr>
  10167a:	8b 78 10             	mov    0x10(%rax),%edi
  10167d:	49 89 fe             	mov    %rdi,%r14
  101680:	49 c1 e6 20          	shl    $0x20,%r14
  101684:	49 09 fe             	or     %rdi,%r14
  101687:	c7 00 00 00 00 00    	movl   $0x0,(%rax)
  10168d:	e8 ae 0a 00 00       	call   102140 <draw_hex>
  101692:	4c 89 f7             	mov    %r14,%rdi
  101695:	e8 a6 0a 00 00       	call   102140 <draw_hex>
  10169a:	e9 71 ff ff ff       	jmp    101610 <apic_setup+0x50>
  10169f:	5b                   	pop    %rbx
  1016a0:	41 5e                	pop    %r14
  1016a2:	5d                   	pop    %rbp
  1016a3:	c3                   	ret
  1016a4:	66 2e 0f 1f 84 00 00 	cs nopw 0x0(%rax,%rax,1)
  1016ab:	00 00 00 
  1016ae:	66 90                	xchg   %ax,%ax

00000000001016b0 <dbgconchar>:
  1016b0:	55                   	push   %rbp
  1016b1:	48 89 e5             	mov    %rsp,%rbp
  1016b4:	89 f8                	mov    %edi,%eax
  1016b6:	e6 e9                	out    %al,$0xe9
  1016b8:	66 ba 79 03          	mov    $0x379,%dx
  1016bc:	ec                   	in     (%dx),%al
  1016bd:	89 f8                	mov    %edi,%eax
  1016bf:	66 ba 78 03          	mov    $0x378,%dx
  1016c3:	ee                   	out    %al,(%dx)
  1016c4:	66 ba 7a 03          	mov    $0x37a,%dx
  1016c8:	ec                   	in     (%dx),%al
  1016c9:	89 c1                	mov    %eax,%ecx
  1016cb:	0c 01                	or     $0x1,%al
  1016cd:	66 ba 7a 03          	mov    $0x37a,%dx
  1016d1:	ee                   	out    %al,(%dx)
  1016d2:	31 c0                	xor    %eax,%eax
  1016d4:	e6 80                	out    %al,$0x80
  1016d6:	89 c8                	mov    %ecx,%eax
  1016d8:	66 ba 7a 03          	mov    $0x37a,%dx
  1016dc:	ee                   	out    %al,(%dx)
  1016dd:	66 ba 79 03          	mov    $0x379,%dx
  1016e1:	ec                   	in     (%dx),%al
  1016e2:	5d                   	pop    %rbp
  1016e3:	c3                   	ret
  1016e4:	66 66 66 2e 0f 1f 84 	data16 data16 cs nopw 0x0(%rax,%rax,1)
  1016eb:	00 00 00 00 00 

00000000001016f0 <dbg_crash>:
  1016f0:	55                   	push   %rbp
  1016f1:	48 89 e5             	mov    %rsp,%rbp
  1016f4:	48 c7 c0 00 00 00 00 	mov    $0x0,%rax
  1016fb:	0f 22 d8             	mov    %rax,%cr3
  1016fe:	5d                   	pop    %rbp
  1016ff:	c3                   	ret

0000000000101700 <dbgnumout_hex>:
  101700:	55                   	push   %rbp
  101701:	48 89 e5             	mov    %rsp,%rbp
  101704:	b9 3c 00 00 00       	mov    $0x3c,%ecx
  101709:	0f 1f 80 00 00 00 00 	nopl   0x0(%rax)
  101710:	48 89 f8             	mov    %rdi,%rax
  101713:	48 d3 e8             	shr    %cl,%rax
  101716:	83 e0 0f             	and    $0xf,%eax
  101719:	0f b6 b0 80 ba 10 00 	movzbl 0x10ba80(%rax),%esi
  101720:	89 f0                	mov    %esi,%eax
  101722:	e6 e9                	out    %al,$0xe9
  101724:	66 ba 79 03          	mov    $0x379,%dx
  101728:	ec                   	in     (%dx),%al
  101729:	89 f0                	mov    %esi,%eax
  10172b:	66 ba 78 03          	mov    $0x378,%dx
  10172f:	ee                   	out    %al,(%dx)
  101730:	66 ba 7a 03          	mov    $0x37a,%dx
  101734:	ec                   	in     (%dx),%al
  101735:	89 c6                	mov    %eax,%esi
  101737:	0c 01                	or     $0x1,%al
  101739:	66 ba 7a 03          	mov    $0x37a,%dx
  10173d:	ee                   	out    %al,(%dx)
  10173e:	31 c0                	xor    %eax,%eax
  101740:	e6 80                	out    %al,$0x80
  101742:	89 f0                	mov    %esi,%eax
  101744:	66 ba 7a 03          	mov    $0x37a,%dx
  101748:	ee                   	out    %al,(%dx)
  101749:	66 ba 79 03          	mov    $0x379,%dx
  10174d:	ec                   	in     (%dx),%al
  10174e:	48 83 c1 fc          	add    $0xfffffffffffffffc,%rcx
  101752:	48 83 f9 fc          	cmp    $0xfffffffffffffffc,%rcx
  101756:	75 b8                	jne    101710 <dbgnumout_hex+0x10>
  101758:	b0 0d                	mov    $0xd,%al
  10175a:	e6 e9                	out    %al,$0xe9
  10175c:	66 ba 79 03          	mov    $0x379,%dx
  101760:	ec                   	in     (%dx),%al
  101761:	b0 0d                	mov    $0xd,%al
  101763:	66 ba 78 03          	mov    $0x378,%dx
  101767:	ee                   	out    %al,(%dx)
  101768:	66 ba 7a 03          	mov    $0x37a,%dx
  10176c:	ec                   	in     (%dx),%al
  10176d:	89 c1                	mov    %eax,%ecx
  10176f:	0c 01                	or     $0x1,%al
  101771:	66 ba 7a 03          	mov    $0x37a,%dx
  101775:	ee                   	out    %al,(%dx)
  101776:	31 c0                	xor    %eax,%eax
  101778:	e6 80                	out    %al,$0x80
  10177a:	89 c8                	mov    %ecx,%eax
  10177c:	66 ba 7a 03          	mov    $0x37a,%dx
  101780:	ee                   	out    %al,(%dx)
  101781:	66 ba 79 03          	mov    $0x379,%dx
  101785:	ec                   	in     (%dx),%al
  101786:	b0 0a                	mov    $0xa,%al
  101788:	e6 e9                	out    %al,$0xe9
  10178a:	66 ba 79 03          	mov    $0x379,%dx
  10178e:	ec                   	in     (%dx),%al
  10178f:	b0 0a                	mov    $0xa,%al
  101791:	66 ba 78 03          	mov    $0x378,%dx
  101795:	ee                   	out    %al,(%dx)
  101796:	66 ba 7a 03          	mov    $0x37a,%dx
  10179a:	ec                   	in     (%dx),%al
  10179b:	89 c1                	mov    %eax,%ecx
  10179d:	0c 01                	or     $0x1,%al
  10179f:	66 ba 7a 03          	mov    $0x37a,%dx
  1017a3:	ee                   	out    %al,(%dx)
  1017a4:	31 c0                	xor    %eax,%eax
  1017a6:	e6 80                	out    %al,$0x80
  1017a8:	89 c8                	mov    %ecx,%eax
  1017aa:	66 ba 7a 03          	mov    $0x37a,%dx
  1017ae:	ee                   	out    %al,(%dx)
  1017af:	66 ba 79 03          	mov    $0x379,%dx
  1017b3:	ec                   	in     (%dx),%al
  1017b4:	5d                   	pop    %rbp
  1017b5:	c3                   	ret
  1017b6:	66 2e 0f 1f 84 00 00 	cs nopw 0x0(%rax,%rax,1)
  1017bd:	00 00 00 

00000000001017c0 <dbgnumout_bin>:
  1017c0:	55                   	push   %rbp
  1017c1:	48 89 e5             	mov    %rsp,%rbp
  1017c4:	be 3f 00 00 00       	mov    $0x3f,%esi
  1017c9:	0f 1f 80 00 00 00 00 	nopl   0x0(%rax)
  1017d0:	48 0f a3 f7          	bt     %rsi,%rdi
  1017d4:	0f 92 c1             	setb   %cl
  1017d7:	80 c9 30             	or     $0x30,%cl
  1017da:	89 c8                	mov    %ecx,%eax
  1017dc:	e6 e9                	out    %al,$0xe9
  1017de:	66 ba 79 03          	mov    $0x379,%dx
  1017e2:	ec                   	in     (%dx),%al
  1017e3:	89 c8                	mov    %ecx,%eax
  1017e5:	66 ba 78 03          	mov    $0x378,%dx
  1017e9:	ee                   	out    %al,(%dx)
  1017ea:	66 ba 7a 03          	mov    $0x37a,%dx
  1017ee:	ec                   	in     (%dx),%al
  1017ef:	89 c1                	mov    %eax,%ecx
  1017f1:	0c 01                	or     $0x1,%al
  1017f3:	66 ba 7a 03          	mov    $0x37a,%dx
  1017f7:	ee                   	out    %al,(%dx)
  1017f8:	31 c0                	xor    %eax,%eax
  1017fa:	e6 80                	out    %al,$0x80
  1017fc:	89 c8                	mov    %ecx,%eax
  1017fe:	66 ba 7a 03          	mov    $0x37a,%dx
  101802:	ee                   	out    %al,(%dx)
  101803:	66 ba 79 03          	mov    $0x379,%dx
  101807:	ec                   	in     (%dx),%al
  101808:	48 83 c6 ff          	add    $0xffffffffffffffff,%rsi
  10180c:	72 c2                	jb     1017d0 <dbgnumout_bin+0x10>
  10180e:	b0 0d                	mov    $0xd,%al
  101810:	e6 e9                	out    %al,$0xe9
  101812:	66 ba 79 03          	mov    $0x379,%dx
  101816:	ec                   	in     (%dx),%al
  101817:	b0 0d                	mov    $0xd,%al
  101819:	66 ba 78 03          	mov    $0x378,%dx
  10181d:	ee                   	out    %al,(%dx)
  10181e:	66 ba 7a 03          	mov    $0x37a,%dx
  101822:	ec                   	in     (%dx),%al
  101823:	89 c1                	mov    %eax,%ecx
  101825:	0c 01                	or     $0x1,%al
  101827:	66 ba 7a 03          	mov    $0x37a,%dx
  10182b:	ee                   	out    %al,(%dx)
  10182c:	31 c0                	xor    %eax,%eax
  10182e:	e6 80                	out    %al,$0x80
  101830:	89 c8                	mov    %ecx,%eax
  101832:	66 ba 7a 03          	mov    $0x37a,%dx
  101836:	ee                   	out    %al,(%dx)
  101837:	66 ba 79 03          	mov    $0x379,%dx
  10183b:	ec                   	in     (%dx),%al
  10183c:	b0 0a                	mov    $0xa,%al
  10183e:	e6 e9                	out    %al,$0xe9
  101840:	66 ba 79 03          	mov    $0x379,%dx
  101844:	ec                   	in     (%dx),%al
  101845:	b0 0a                	mov    $0xa,%al
  101847:	66 ba 78 03          	mov    $0x378,%dx
  10184b:	ee                   	out    %al,(%dx)
  10184c:	66 ba 7a 03          	mov    $0x37a,%dx
  101850:	ec                   	in     (%dx),%al
  101851:	89 c1                	mov    %eax,%ecx
  101853:	0c 01                	or     $0x1,%al
  101855:	66 ba 7a 03          	mov    $0x37a,%dx
  101859:	ee                   	out    %al,(%dx)
  10185a:	31 c0                	xor    %eax,%eax
  10185c:	e6 80                	out    %al,$0x80
  10185e:	89 c8                	mov    %ecx,%eax
  101860:	66 ba 7a 03          	mov    $0x37a,%dx
  101864:	ee                   	out    %al,(%dx)
  101865:	66 ba 79 03          	mov    $0x379,%dx
  101869:	ec                   	in     (%dx),%al
  10186a:	5d                   	pop    %rbp
  10186b:	c3                   	ret
  10186c:	0f 1f 40 00          	nopl   0x0(%rax)

0000000000101870 <dbgconout>:
  101870:	55                   	push   %rbp
  101871:	48 89 e5             	mov    %rsp,%rbp
  101874:	0f b6 0f             	movzbl (%rdi),%ecx
  101877:	84 c9                	test   %cl,%cl
  101879:	74 3d                	je     1018b8 <dbgconout+0x48>
  10187b:	48 ff c7             	inc    %rdi
  10187e:	66 90                	xchg   %ax,%ax
  101880:	89 c8                	mov    %ecx,%eax
  101882:	e6 e9                	out    %al,$0xe9
  101884:	66 ba 79 03          	mov    $0x379,%dx
  101888:	ec                   	in     (%dx),%al
  101889:	89 c8                	mov    %ecx,%eax
  10188b:	66 ba 78 03          	mov    $0x378,%dx
  10188f:	ee                   	out    %al,(%dx)
  101890:	66 ba 7a 03          	mov    $0x37a,%dx
  101894:	ec                   	in     (%dx),%al
  101895:	89 c1                	mov    %eax,%ecx
  101897:	0c 01                	or     $0x1,%al
  101899:	66 ba 7a 03          	mov    $0x37a,%dx
  10189d:	ee                   	out    %al,(%dx)
  10189e:	31 c0                	xor    %eax,%eax
  1018a0:	e6 80                	out    %al,$0x80
  1018a2:	89 c8                	mov    %ecx,%eax
  1018a4:	66 ba 7a 03          	mov    $0x37a,%dx
  1018a8:	ee                   	out    %al,(%dx)
  1018a9:	66 ba 79 03          	mov    $0x379,%dx
  1018ad:	ec                   	in     (%dx),%al
  1018ae:	0f b6 0f             	movzbl (%rdi),%ecx
  1018b1:	48 ff c7             	inc    %rdi
  1018b4:	84 c9                	test   %cl,%cl
  1018b6:	75 c8                	jne    101880 <dbgconout+0x10>
  1018b8:	5d                   	pop    %rbp
  1018b9:	c3                   	ret
  1018ba:	66 0f 1f 44 00 00    	nopw   0x0(%rax,%rax,1)

00000000001018c0 <diskman_reg_disk>:
  1018c0:	55                   	push   %rbp
  1018c1:	48 89 e5             	mov    %rsp,%rbp
  1018c4:	5d                   	pop    %rbp
  1018c5:	c3                   	ret
  1018c6:	66 2e 0f 1f 84 00 00 	cs nopw 0x0(%rax,%rax,1)
  1018cd:	00 00 00 

00000000001018d0 <draw_char_at>:
  1018d0:	55                   	push   %rbp
  1018d1:	48 89 e5             	mov    %rsp,%rbp
  1018d4:	8d 47 99             	lea    -0x67(%rdi),%eax
  1018d7:	83 f8 12             	cmp    $0x12,%eax
  1018da:	77 10                	ja     1018ec <draw_char_at+0x1c>
  1018dc:	b9 01 06 04 00       	mov    $0x40601,%ecx
  1018e1:	0f a3 c1             	bt     %eax,%ecx
  1018e4:	73 06                	jae    1018ec <draw_char_at+0x1c>
  1018e6:	48 83 c2 03          	add    $0x3,%rdx
  1018ea:	eb 06                	jmp    1018f2 <draw_char_at+0x22>
  1018ec:	85 ff                	test   %edi,%edi
  1018ee:	75 02                	jne    1018f2 <draw_char_at+0x22>
  1018f0:	5d                   	pop    %rbp
  1018f1:	c3                   	ret
  1018f2:	49 b9 00 00 00 00 e0 	movabs $0xfe000000000,%r9
  1018f9:	0f 00 00 
  1018fc:	41 89 f8             	mov    %edi,%r8d
  1018ff:	41 83 e0 07          	and    $0x7,%r8d
  101903:	48 8b 0d 36 a7 00 00 	mov    0xa736(%rip),%rcx        # 10c040 <bb>
  10190a:	48 c1 e9 03          	shr    $0x3,%rcx
  10190e:	48 0f af f1          	imul   %rcx,%rsi
  101912:	44 0f b6 d7          	movzbl %dil,%r10d
  101916:	41 c1 e2 03          	shl    $0x3,%r10d
  10191a:	41 81 e2 c0 07 00 00 	and    $0x7c0,%r10d
  101921:	45 31 db             	xor    %r11d,%r11d
  101924:	eb 17                	jmp    10193d <draw_char_at+0x6d>
  101926:	66 2e 0f 1f 84 00 00 	cs nopw 0x0(%rax,%rax,1)
  10192d:	00 00 00 
  101930:	49 ff c3             	inc    %r11
  101933:	49 83 c2 08          	add    $0x8,%r10
  101937:	49 83 fb 08          	cmp    $0x8,%r11
  10193b:	74 b3                	je     1018f0 <draw_char_at+0x20>
  10193d:	4c 89 d0             	mov    %r10,%rax
  101940:	4c 09 c0             	or     %r8,%rax
  101943:	4a 8d 3c 1a          	lea    (%rdx,%r11,1),%rdi
  101947:	48 0f af 3d f9 a6 00 	imul   0xa6f9(%rip),%rdi        # 10c048 <p>
  10194e:	00 
  10194f:	0f b6 80 00 b0 10 00 	movzbl 0x10b000(%rax),%eax
  101956:	48 01 f7             	add    %rsi,%rdi
  101959:	48 01 cf             	add    %rcx,%rdi
  10195c:	a8 01                	test   $0x1,%al
  10195e:	75 19                	jne    101979 <draw_char_at+0xa9>
  101960:	66 41 c7 04 39 ff ff 	movw   $0xffff,(%r9,%rdi,1)
  101967:	41 c6 44 39 02 ff    	movb   $0xff,0x2(%r9,%rdi,1)
  10196d:	48 83 f9 04          	cmp    $0x4,%rcx
  101971:	75 06                	jne    101979 <draw_char_at+0xa9>
  101973:	42 c6 44 0f 03 ff    	movb   $0xff,0x3(%rdi,%r9,1)
  101979:	48 01 cf             	add    %rcx,%rdi
  10197c:	a8 02                	test   $0x2,%al
  10197e:	75 19                	jne    101999 <draw_char_at+0xc9>
  101980:	66 41 c7 04 39 ff ff 	movw   $0xffff,(%r9,%rdi,1)
  101987:	41 c6 44 39 02 ff    	movb   $0xff,0x2(%r9,%rdi,1)
  10198d:	48 83 f9 04          	cmp    $0x4,%rcx
  101991:	75 06                	jne    101999 <draw_char_at+0xc9>
  101993:	42 c6 44 0f 03 ff    	movb   $0xff,0x3(%rdi,%r9,1)
  101999:	48 01 cf             	add    %rcx,%rdi
  10199c:	a8 04                	test   $0x4,%al
  10199e:	75 19                	jne    1019b9 <draw_char_at+0xe9>
  1019a0:	66 41 c7 04 39 ff ff 	movw   $0xffff,(%r9,%rdi,1)
  1019a7:	41 c6 44 39 02 ff    	movb   $0xff,0x2(%r9,%rdi,1)
  1019ad:	48 83 f9 04          	cmp    $0x4,%rcx
  1019b1:	75 06                	jne    1019b9 <draw_char_at+0xe9>
  1019b3:	42 c6 44 0f 03 ff    	movb   $0xff,0x3(%rdi,%r9,1)
  1019b9:	48 01 cf             	add    %rcx,%rdi
  1019bc:	a8 08                	test   $0x8,%al
  1019be:	75 19                	jne    1019d9 <draw_char_at+0x109>
  1019c0:	66 41 c7 04 39 ff ff 	movw   $0xffff,(%r9,%rdi,1)
  1019c7:	41 c6 44 39 02 ff    	movb   $0xff,0x2(%r9,%rdi,1)
  1019cd:	48 83 f9 04          	cmp    $0x4,%rcx
  1019d1:	75 06                	jne    1019d9 <draw_char_at+0x109>
  1019d3:	42 c6 44 0f 03 ff    	movb   $0xff,0x3(%rdi,%r9,1)
  1019d9:	48 01 cf             	add    %rcx,%rdi
  1019dc:	a8 10                	test   $0x10,%al
  1019de:	75 19                	jne    1019f9 <draw_char_at+0x129>
  1019e0:	66 41 c7 04 39 ff ff 	movw   $0xffff,(%r9,%rdi,1)
  1019e7:	41 c6 44 39 02 ff    	movb   $0xff,0x2(%r9,%rdi,1)
  1019ed:	48 83 f9 04          	cmp    $0x4,%rcx
  1019f1:	75 06                	jne    1019f9 <draw_char_at+0x129>
  1019f3:	42 c6 44 0f 03 ff    	movb   $0xff,0x3(%rdi,%r9,1)
  1019f9:	48 01 cf             	add    %rcx,%rdi
  1019fc:	a8 20                	test   $0x20,%al
  1019fe:	75 19                	jne    101a19 <draw_char_at+0x149>
  101a00:	66 41 c7 04 39 ff ff 	movw   $0xffff,(%r9,%rdi,1)
  101a07:	41 c6 44 39 02 ff    	movb   $0xff,0x2(%r9,%rdi,1)
  101a0d:	48 83 f9 04          	cmp    $0x4,%rcx
  101a11:	75 06                	jne    101a19 <draw_char_at+0x149>
  101a13:	42 c6 44 0f 03 ff    	movb   $0xff,0x3(%rdi,%r9,1)
  101a19:	48 01 cf             	add    %rcx,%rdi
  101a1c:	a8 40                	test   $0x40,%al
  101a1e:	75 19                	jne    101a39 <draw_char_at+0x169>
  101a20:	66 41 c7 04 39 ff ff 	movw   $0xffff,(%r9,%rdi,1)
  101a27:	41 c6 44 39 02 ff    	movb   $0xff,0x2(%r9,%rdi,1)
  101a2d:	48 83 f9 04          	cmp    $0x4,%rcx
  101a31:	75 06                	jne    101a39 <draw_char_at+0x169>
  101a33:	42 c6 44 0f 03 ff    	movb   $0xff,0x3(%rdi,%r9,1)
  101a39:	84 c0                	test   %al,%al
  101a3b:	0f 88 ef fe ff ff    	js     101930 <draw_char_at+0x60>
  101a41:	48 01 cf             	add    %rcx,%rdi
  101a44:	66 41 c7 04 39 ff ff 	movw   $0xffff,(%r9,%rdi,1)
  101a4b:	41 c6 44 39 02 ff    	movb   $0xff,0x2(%r9,%rdi,1)
  101a51:	48 83 f9 04          	cmp    $0x4,%rcx
  101a55:	0f 85 d5 fe ff ff    	jne    101930 <draw_char_at+0x60>
  101a5b:	42 c6 44 0f 03 ff    	movb   $0xff,0x3(%rdi,%r9,1)
  101a61:	e9 ca fe ff ff       	jmp    101930 <draw_char_at+0x60>
  101a66:	66 2e 0f 1f 84 00 00 	cs nopw 0x0(%rax,%rax,1)
  101a6d:	00 00 00 

0000000000101a70 <draw_swap_textbuf>:
  101a70:	55                   	push   %rbp
  101a71:	48 89 e5             	mov    %rsp,%rbp
  101a74:	41 57                	push   %r15
  101a76:	41 56                	push   %r14
  101a78:	53                   	push   %rbx
  101a79:	50                   	push   %rax
  101a7a:	48 8b 05 cf a5 00 00 	mov    0xa5cf(%rip),%rax        # 10c050 <th>
  101a81:	48 8b 0d d0 a5 00 00 	mov    0xa5d0(%rip),%rcx        # 10c058 <tw>
  101a88:	48 89 ca             	mov    %rcx,%rdx
  101a8b:	48 0f af d0          	imul   %rax,%rdx
  101a8f:	48 85 d2             	test   %rdx,%rdx
  101a92:	0f 84 99 00 00 00    	je     101b31 <draw_swap_textbuf+0xc1>
  101a98:	45 31 f6             	xor    %r14d,%r14d
  101a9b:	eb 1f                	jmp    101abc <draw_swap_textbuf+0x4c>
  101a9d:	0f 1f 00             	nopl   (%rax)
  101aa0:	48 8b 05 a9 a5 00 00 	mov    0xa5a9(%rip),%rax        # 10c050 <th>
  101aa7:	48 89 ca             	mov    %rcx,%rdx
  101aaa:	49 01 d6             	add    %rdx,%r14
  101aad:	48 89 d6             	mov    %rdx,%rsi
  101ab0:	48 0f af f0          	imul   %rax,%rsi
  101ab4:	48 89 d1             	mov    %rdx,%rcx
  101ab7:	49 39 f6             	cmp    %rsi,%r14
  101aba:	73 75                	jae    101b31 <draw_swap_textbuf+0xc1>
  101abc:	ba 00 00 00 00       	mov    $0x0,%edx
  101ac1:	41 bf 00 00 00 00    	mov    $0x0,%r15d
  101ac7:	bb 00 00 00 00       	mov    $0x0,%ebx
  101acc:	48 85 c9             	test   %rcx,%rcx
  101acf:	75 3d                	jne    101b0e <draw_swap_textbuf+0x9e>
  101ad1:	eb d7                	jmp    101aaa <draw_swap_textbuf+0x3a>
  101ad3:	66 66 66 66 2e 0f 1f 	data16 data16 data16 cs nopw 0x0(%rax,%rax,1)
  101ada:	84 00 00 00 00 00 
  101ae0:	4c 89 f0             	mov    %r14,%rax
  101ae3:	31 d2                	xor    %edx,%edx
  101ae5:	48 f7 f1             	div    %rcx
  101ae8:	48 01 c0             	add    %rax,%rax
  101aeb:	48 8d 14 80          	lea    (%rax,%rax,4),%rdx
  101aef:	40 0f b6 fe          	movzbl %sil,%edi
  101af3:	4c 89 fe             	mov    %r15,%rsi
  101af6:	e8 d5 fd ff ff       	call   1018d0 <draw_char_at>
  101afb:	48 ff c3             	inc    %rbx
  101afe:	48 8b 0d 53 a5 00 00 	mov    0xa553(%rip),%rcx        # 10c058 <tw>
  101b05:	49 83 c7 08          	add    $0x8,%r15
  101b09:	48 39 cb             	cmp    %rcx,%rbx
  101b0c:	73 92                	jae    101aa0 <draw_swap_textbuf+0x30>
  101b0e:	48 8b 05 4b a5 00 00 	mov    0xa54b(%rip),%rax        # 10c060 <text_buf>
  101b15:	4c 01 f0             	add    %r14,%rax
  101b18:	0f b6 34 03          	movzbl (%rbx,%rax,1),%esi
  101b1c:	4c 89 f0             	mov    %r14,%rax
  101b1f:	48 09 c8             	or     %rcx,%rax
  101b22:	48 c1 e8 20          	shr    $0x20,%rax
  101b26:	75 b8                	jne    101ae0 <draw_swap_textbuf+0x70>
  101b28:	44 89 f0             	mov    %r14d,%eax
  101b2b:	31 d2                	xor    %edx,%edx
  101b2d:	f7 f1                	div    %ecx
  101b2f:	eb b7                	jmp    101ae8 <draw_swap_textbuf+0x78>
  101b31:	48 83 c4 08          	add    $0x8,%rsp
  101b35:	5b                   	pop    %rbx
  101b36:	41 5e                	pop    %r14
  101b38:	41 5f                	pop    %r15
  101b3a:	5d                   	pop    %rbp
  101b3b:	c3                   	ret
  101b3c:	0f 1f 40 00          	nopl   0x0(%rax)

0000000000101b40 <draw_setup>:
  101b40:	55                   	push   %rbp
  101b41:	48 89 e5             	mov    %rsp,%rbp
  101b44:	41 57                	push   %r15
  101b46:	41 56                	push   %r14
  101b48:	41 54                	push   %r12
  101b4a:	53                   	push   %rbx
  101b4b:	49 89 d6             	mov    %rdx,%r14
  101b4e:	49 89 f7             	mov    %rsi,%r15
  101b51:	49 89 fc             	mov    %rdi,%r12
  101b54:	48 89 35 0d a5 00 00 	mov    %rsi,0xa50d(%rip)        # 10c068 <w>
  101b5b:	48 89 15 0e a5 00 00 	mov    %rdx,0xa50e(%rip)        # 10c070 <h>
  101b62:	48 89 0d d7 a4 00 00 	mov    %rcx,0xa4d7(%rip)        # 10c040 <bb>
  101b69:	4c 89 05 d8 a4 00 00 	mov    %r8,0xa4d8(%rip)        # 10c048 <p>
  101b70:	48 bb 00 00 00 00 e0 	movabs $0xfe000000000,%rbx
  101b77:	0f 00 00 
  101b7a:	48 89 de             	mov    %rbx,%rsi
  101b7d:	e8 2e 1e 00 00       	call   1039b0 <page_alloc_dev>
  101b82:	49 8d bc 24 00 00 20 	lea    0x200000(%r12),%rdi
  101b89:	00 
  101b8a:	48 8d b3 00 00 20 00 	lea    0x200000(%rbx),%rsi
  101b91:	e8 1a 1e 00 00       	call   1039b0 <page_alloc_dev>
  101b96:	49 8d bc 24 00 00 40 	lea    0x400000(%r12),%rdi
  101b9d:	00 
  101b9e:	48 8d b3 00 00 40 00 	lea    0x400000(%rbx),%rsi
  101ba5:	e8 06 1e 00 00       	call   1039b0 <page_alloc_dev>
  101baa:	49 8d bc 24 00 00 60 	lea    0x600000(%r12),%rdi
  101bb1:	00 
  101bb2:	48 8d b3 00 00 60 00 	lea    0x600000(%rbx),%rsi
  101bb9:	e8 f2 1d 00 00       	call   1039b0 <page_alloc_dev>
  101bbe:	49 8d bc 24 00 00 80 	lea    0x800000(%r12),%rdi
  101bc5:	00 
  101bc6:	48 8d b3 00 00 80 00 	lea    0x800000(%rbx),%rsi
  101bcd:	e8 de 1d 00 00       	call   1039b0 <page_alloc_dev>
  101bd2:	49 8d bc 24 00 00 a0 	lea    0xa00000(%r12),%rdi
  101bd9:	00 
  101bda:	48 8d b3 00 00 a0 00 	lea    0xa00000(%rbx),%rsi
  101be1:	e8 ca 1d 00 00       	call   1039b0 <page_alloc_dev>
  101be6:	49 8d bc 24 00 00 c0 	lea    0xc00000(%r12),%rdi
  101bed:	00 
  101bee:	48 8d b3 00 00 c0 00 	lea    0xc00000(%rbx),%rsi
  101bf5:	e8 b6 1d 00 00       	call   1039b0 <page_alloc_dev>
  101bfa:	49 8d bc 24 00 00 e0 	lea    0xe00000(%r12),%rdi
  101c01:	00 
  101c02:	48 8d b3 00 00 e0 00 	lea    0xe00000(%rbx),%rsi
  101c09:	e8 a2 1d 00 00       	call   1039b0 <page_alloc_dev>
  101c0e:	49 8d bc 24 00 00 00 	lea    0x1000000(%r12),%rdi
  101c15:	01 
  101c16:	48 8d b3 00 00 00 01 	lea    0x1000000(%rbx),%rsi
  101c1d:	e8 8e 1d 00 00       	call   1039b0 <page_alloc_dev>
  101c22:	49 8d bc 24 00 00 20 	lea    0x1200000(%r12),%rdi
  101c29:	01 
  101c2a:	48 8d b3 00 00 20 01 	lea    0x1200000(%rbx),%rsi
  101c31:	e8 7a 1d 00 00       	call   1039b0 <page_alloc_dev>
  101c36:	49 8d bc 24 00 00 40 	lea    0x1400000(%r12),%rdi
  101c3d:	01 
  101c3e:	48 8d b3 00 00 40 01 	lea    0x1400000(%rbx),%rsi
  101c45:	e8 66 1d 00 00       	call   1039b0 <page_alloc_dev>
  101c4a:	49 8d bc 24 00 00 60 	lea    0x1600000(%r12),%rdi
  101c51:	01 
  101c52:	48 8d b3 00 00 60 01 	lea    0x1600000(%rbx),%rsi
  101c59:	e8 52 1d 00 00       	call   1039b0 <page_alloc_dev>
  101c5e:	49 8d bc 24 00 00 80 	lea    0x1800000(%r12),%rdi
  101c65:	01 
  101c66:	48 8d b3 00 00 80 01 	lea    0x1800000(%rbx),%rsi
  101c6d:	e8 3e 1d 00 00       	call   1039b0 <page_alloc_dev>
  101c72:	49 8d bc 24 00 00 a0 	lea    0x1a00000(%r12),%rdi
  101c79:	01 
  101c7a:	48 8d b3 00 00 a0 01 	lea    0x1a00000(%rbx),%rsi
  101c81:	e8 2a 1d 00 00       	call   1039b0 <page_alloc_dev>
  101c86:	49 8d bc 24 00 00 c0 	lea    0x1c00000(%r12),%rdi
  101c8d:	01 
  101c8e:	48 8d b3 00 00 c0 01 	lea    0x1c00000(%rbx),%rsi
  101c95:	e8 16 1d 00 00       	call   1039b0 <page_alloc_dev>
  101c9a:	49 81 c4 00 00 e0 01 	add    $0x1e00000,%r12
  101ca1:	48 81 cb 00 00 e0 01 	or     $0x1e00000,%rbx
  101ca8:	4c 89 e7             	mov    %r12,%rdi
  101cab:	48 89 de             	mov    %rbx,%rsi
  101cae:	e8 fd 1c 00 00       	call   1039b0 <page_alloc_dev>
  101cb3:	31 c0                	xor    %eax,%eax
  101cb5:	e8 26 23 00 00       	call   103fe0 <page_flush>
  101cba:	48 8b 3d af a3 00 00 	mov    0xa3af(%rip),%rdi        # 10c070 <h>
  101cc1:	48 0f af 3d 9f a3 00 	imul   0xa39f(%rip),%rdi        # 10c068 <w>
  101cc8:	00 
  101cc9:	48 c1 ef 03          	shr    $0x3,%rdi
  101ccd:	e8 2e fa ff ff       	call   101700 <dbgnumout_hex>
  101cd2:	48 8b 3d 97 a3 00 00 	mov    0xa397(%rip),%rdi        # 10c070 <h>
  101cd9:	48 0f af 3d 87 a3 00 	imul   0xa387(%rip),%rdi        # 10c068 <w>
  101ce0:	00 
  101ce1:	48 c1 ef 03          	shr    $0x3,%rdi
  101ce5:	e8 26 0f 00 00       	call   102c10 <k_obj_alloc>
  101cea:	48 89 05 6f a3 00 00 	mov    %rax,0xa36f(%rip)        # 10c060 <text_buf>
  101cf1:	48 c7 05 7c a3 00 00 	movq   $0x0,0xa37c(%rip)        # 10c078 <tcury>
  101cf8:	00 00 00 00 
  101cfc:	48 c7 05 79 a3 00 00 	movq   $0x0,0xa379(%rip)        # 10c080 <tcurx>
  101d03:	00 00 00 00 
  101d07:	49 c1 ef 03          	shr    $0x3,%r15
  101d0b:	48 b9 cd cc cc cc cc 	movabs $0xcccccccccccccccd,%rcx
  101d12:	cc cc cc 
  101d15:	4c 89 f0             	mov    %r14,%rax
  101d18:	48 f7 e1             	mul    %rcx
  101d1b:	4c 89 3d 36 a3 00 00 	mov    %r15,0xa336(%rip)        # 10c058 <tw>
  101d22:	48 c1 ea 03          	shr    $0x3,%rdx
  101d26:	48 89 15 23 a3 00 00 	mov    %rdx,0xa323(%rip)        # 10c050 <th>
  101d2d:	5b                   	pop    %rbx
  101d2e:	41 5c                	pop    %r12
  101d30:	41 5e                	pop    %r14
  101d32:	41 5f                	pop    %r15
  101d34:	5d                   	pop    %rbp
  101d35:	c3                   	ret
  101d36:	66 2e 0f 1f 84 00 00 	cs nopw 0x0(%rax,%rax,1)
  101d3d:	00 00 00 

0000000000101d40 <draw_scroll_text_buf>:
  101d40:	55                   	push   %rbp
  101d41:	48 89 e5             	mov    %rsp,%rbp
  101d44:	41 57                	push   %r15
  101d46:	41 56                	push   %r14
  101d48:	53                   	push   %rbx
  101d49:	50                   	push   %rax
  101d4a:	48 8b 3d 0f a3 00 00 	mov    0xa30f(%rip),%rdi        # 10c060 <text_buf>
  101d51:	48 8b 05 00 a3 00 00 	mov    0xa300(%rip),%rax        # 10c058 <tw>
  101d58:	48 8d 34 07          	lea    (%rdi,%rax,1),%rsi
  101d5c:	48 8b 15 ed a2 00 00 	mov    0xa2ed(%rip),%rdx        # 10c050 <th>
  101d63:	48 ff ca             	dec    %rdx
  101d66:	48 0f af d0          	imul   %rax,%rdx
  101d6a:	e8 71 07 00 00       	call   1024e0 <mem_cpy>
  101d6f:	48 8b 15 e2 a2 00 00 	mov    0xa2e2(%rip),%rdx        # 10c058 <tw>
  101d76:	48 8b 3d d3 a2 00 00 	mov    0xa2d3(%rip),%rdi        # 10c050 <th>
  101d7d:	48 ff cf             	dec    %rdi
  101d80:	48 0f af fa          	imul   %rdx,%rdi
  101d84:	48 03 3d d5 a2 00 00 	add    0xa2d5(%rip),%rdi        # 10c060 <text_buf>
  101d8b:	31 f6                	xor    %esi,%esi
  101d8d:	e8 0e 09 00 00       	call   1026a0 <mem_set>
  101d92:	48 8b 15 d7 a2 00 00 	mov    0xa2d7(%rip),%rdx        # 10c070 <h>
  101d99:	48 0f af 15 c7 a2 00 	imul   0xa2c7(%rip),%rdx        # 10c068 <w>
  101da0:	00 
  101da1:	48 0f af 15 97 a2 00 	imul   0xa297(%rip),%rdx        # 10c040 <bb>
  101da8:	00 
  101da9:	48 c1 ea 03          	shr    $0x3,%rdx
  101dad:	48 bf 00 00 00 00 e0 	movabs $0xfe000000000,%rdi
  101db4:	0f 00 00 
  101db7:	31 f6                	xor    %esi,%esi
  101db9:	e8 e2 08 00 00       	call   1026a0 <mem_set>
  101dbe:	48 8b 05 8b a2 00 00 	mov    0xa28b(%rip),%rax        # 10c050 <th>
  101dc5:	48 8b 0d 8c a2 00 00 	mov    0xa28c(%rip),%rcx        # 10c058 <tw>
  101dcc:	48 89 ca             	mov    %rcx,%rdx
  101dcf:	48 0f af d0          	imul   %rax,%rdx
  101dd3:	48 85 d2             	test   %rdx,%rdx
  101dd6:	0f 84 a5 00 00 00    	je     101e81 <draw_scroll_text_buf+0x141>
  101ddc:	45 31 f6             	xor    %r14d,%r14d
  101ddf:	eb 2b                	jmp    101e0c <draw_scroll_text_buf+0xcc>
  101de1:	66 66 66 66 66 66 2e 	data16 data16 data16 data16 data16 cs nopw 0x0(%rax,%rax,1)
  101de8:	0f 1f 84 00 00 00 00 
  101def:	00 
  101df0:	48 8b 05 59 a2 00 00 	mov    0xa259(%rip),%rax        # 10c050 <th>
  101df7:	48 89 ca             	mov    %rcx,%rdx
  101dfa:	49 01 d6             	add    %rdx,%r14
  101dfd:	48 89 c6             	mov    %rax,%rsi
  101e00:	48 0f af f2          	imul   %rdx,%rsi
  101e04:	48 89 d1             	mov    %rdx,%rcx
  101e07:	49 39 f6             	cmp    %rsi,%r14
  101e0a:	73 75                	jae    101e81 <draw_scroll_text_buf+0x141>
  101e0c:	ba 00 00 00 00       	mov    $0x0,%edx
  101e11:	41 bf 00 00 00 00    	mov    $0x0,%r15d
  101e17:	bb 00 00 00 00       	mov    $0x0,%ebx
  101e1c:	48 85 c9             	test   %rcx,%rcx
  101e1f:	75 3d                	jne    101e5e <draw_scroll_text_buf+0x11e>
  101e21:	eb d7                	jmp    101dfa <draw_scroll_text_buf+0xba>
  101e23:	66 66 66 66 2e 0f 1f 	data16 data16 data16 cs nopw 0x0(%rax,%rax,1)
  101e2a:	84 00 00 00 00 00 
  101e30:	4c 89 f0             	mov    %r14,%rax
  101e33:	31 d2                	xor    %edx,%edx
  101e35:	48 f7 f1             	div    %rcx
  101e38:	48 01 c0             	add    %rax,%rax
  101e3b:	48 8d 14 80          	lea    (%rax,%rax,4),%rdx
  101e3f:	40 0f b6 fe          	movzbl %sil,%edi
  101e43:	4c 89 fe             	mov    %r15,%rsi
  101e46:	e8 85 fa ff ff       	call   1018d0 <draw_char_at>
  101e4b:	48 ff c3             	inc    %rbx
  101e4e:	48 8b 0d 03 a2 00 00 	mov    0xa203(%rip),%rcx        # 10c058 <tw>
  101e55:	49 83 c7 08          	add    $0x8,%r15
  101e59:	48 39 cb             	cmp    %rcx,%rbx
  101e5c:	73 92                	jae    101df0 <draw_scroll_text_buf+0xb0>
  101e5e:	48 8b 05 fb a1 00 00 	mov    0xa1fb(%rip),%rax        # 10c060 <text_buf>
  101e65:	4c 01 f0             	add    %r14,%rax
  101e68:	0f b6 34 03          	movzbl (%rbx,%rax,1),%esi
  101e6c:	4c 89 f0             	mov    %r14,%rax
  101e6f:	48 09 c8             	or     %rcx,%rax
  101e72:	48 c1 e8 20          	shr    $0x20,%rax
  101e76:	75 b8                	jne    101e30 <draw_scroll_text_buf+0xf0>
  101e78:	44 89 f0             	mov    %r14d,%eax
  101e7b:	31 d2                	xor    %edx,%edx
  101e7d:	f7 f1                	div    %ecx
  101e7f:	eb b7                	jmp    101e38 <draw_scroll_text_buf+0xf8>
  101e81:	48 83 c4 08          	add    $0x8,%rsp
  101e85:	5b                   	pop    %rbx
  101e86:	41 5e                	pop    %r14
  101e88:	41 5f                	pop    %r15
  101e8a:	5d                   	pop    %rbp
  101e8b:	c3                   	ret
  101e8c:	0f 1f 40 00          	nopl   0x0(%rax)

0000000000101e90 <draw_increment_line>:
  101e90:	55                   	push   %rbp
  101e91:	48 89 e5             	mov    %rsp,%rbp
  101e94:	48 c7 05 e1 a1 00 00 	movq   $0x0,0xa1e1(%rip)        # 10c080 <tcurx>
  101e9b:	00 00 00 00 
  101e9f:	48 8b 05 d2 a1 00 00 	mov    0xa1d2(%rip),%rax        # 10c078 <tcury>
  101ea6:	48 ff c0             	inc    %rax
  101ea9:	48 3b 05 a0 a1 00 00 	cmp    0xa1a0(%rip),%rax        # 10c050 <th>
  101eb0:	73 09                	jae    101ebb <draw_increment_line+0x2b>
  101eb2:	48 89 05 bf a1 00 00 	mov    %rax,0xa1bf(%rip)        # 10c078 <tcury>
  101eb9:	5d                   	pop    %rbp
  101eba:	c3                   	ret
  101ebb:	5d                   	pop    %rbp
  101ebc:	e9 7f fe ff ff       	jmp    101d40 <draw_scroll_text_buf>
  101ec1:	66 66 66 66 66 66 2e 	data16 data16 data16 data16 data16 cs nopw 0x0(%rax,%rax,1)
  101ec8:	0f 1f 84 00 00 00 00 
  101ecf:	00 

0000000000101ed0 <draw_append_text_buf>:
  101ed0:	55                   	push   %rbp
  101ed1:	48 89 e5             	mov    %rsp,%rbp
  101ed4:	53                   	push   %rbx
  101ed5:	50                   	push   %rax
  101ed6:	85 ff                	test   %edi,%edi
  101ed8:	0f 84 a4 00 00 00    	je     101f82 <draw_append_text_buf+0xb2>
  101ede:	89 fb                	mov    %edi,%ebx
  101ee0:	83 ff 0a             	cmp    $0xa,%edi
  101ee3:	75 27                	jne    101f0c <draw_append_text_buf+0x3c>
  101ee5:	48 c7 05 90 a1 00 00 	movq   $0x0,0xa190(%rip)        # 10c080 <tcurx>
  101eec:	00 00 00 00 
  101ef0:	48 8b 05 81 a1 00 00 	mov    0xa181(%rip),%rax        # 10c078 <tcury>
  101ef7:	48 ff c0             	inc    %rax
  101efa:	48 3b 05 4f a1 00 00 	cmp    0xa14f(%rip),%rax        # 10c050 <th>
  101f01:	73 45                	jae    101f48 <draw_append_text_buf+0x78>
  101f03:	48 89 05 6e a1 00 00 	mov    %rax,0xa16e(%rip)        # 10c078 <tcury>
  101f0a:	eb 76                	jmp    101f82 <draw_append_text_buf+0xb2>
  101f0c:	48 8b 0d 6d a1 00 00 	mov    0xa16d(%rip),%rcx        # 10c080 <tcurx>
  101f13:	48 8b 05 3e a1 00 00 	mov    0xa13e(%rip),%rax        # 10c058 <tw>
  101f1a:	48 39 c1             	cmp    %rax,%rcx
  101f1d:	72 47                	jb     101f66 <draw_append_text_buf+0x96>
  101f1f:	48 c7 05 56 a1 00 00 	movq   $0x0,0xa156(%rip)        # 10c080 <tcurx>
  101f26:	00 00 00 00 
  101f2a:	48 8b 0d 47 a1 00 00 	mov    0xa147(%rip),%rcx        # 10c078 <tcury>
  101f31:	48 ff c1             	inc    %rcx
  101f34:	48 3b 0d 15 a1 00 00 	cmp    0xa115(%rip),%rcx        # 10c050 <th>
  101f3b:	73 16                	jae    101f53 <draw_append_text_buf+0x83>
  101f3d:	48 89 0d 34 a1 00 00 	mov    %rcx,0xa134(%rip)        # 10c078 <tcury>
  101f44:	31 c9                	xor    %ecx,%ecx
  101f46:	eb 1e                	jmp    101f66 <draw_append_text_buf+0x96>
  101f48:	48 83 c4 08          	add    $0x8,%rsp
  101f4c:	5b                   	pop    %rbx
  101f4d:	5d                   	pop    %rbp
  101f4e:	e9 ed fd ff ff       	jmp    101d40 <draw_scroll_text_buf>
  101f53:	e8 e8 fd ff ff       	call   101d40 <draw_scroll_text_buf>
  101f58:	48 8b 05 f9 a0 00 00 	mov    0xa0f9(%rip),%rax        # 10c058 <tw>
  101f5f:	48 8b 0d 1a a1 00 00 	mov    0xa11a(%rip),%rcx        # 10c080 <tcurx>
  101f66:	48 0f af 05 0a a1 00 	imul   0xa10a(%rip),%rax        # 10c078 <tcury>
  101f6d:	00 
  101f6e:	48 01 c8             	add    %rcx,%rax
  101f71:	48 8b 0d e8 a0 00 00 	mov    0xa0e8(%rip),%rcx        # 10c060 <text_buf>
  101f78:	88 1c 01             	mov    %bl,(%rcx,%rax,1)
  101f7b:	48 ff 05 fe a0 00 00 	incq   0xa0fe(%rip)        # 10c080 <tcurx>
  101f82:	48 83 c4 08          	add    $0x8,%rsp
  101f86:	5b                   	pop    %rbx
  101f87:	5d                   	pop    %rbp
  101f88:	c3                   	ret
  101f89:	0f 1f 80 00 00 00 00 	nopl   0x0(%rax)

0000000000101f90 <draw_string>:
  101f90:	55                   	push   %rbp
  101f91:	48 89 e5             	mov    %rsp,%rbp
  101f94:	41 57                	push   %r15
  101f96:	41 56                	push   %r14
  101f98:	53                   	push   %rbx
  101f99:	50                   	push   %rax
  101f9a:	44 0f b6 37          	movzbl (%rdi),%r14d
  101f9e:	45 84 f6             	test   %r14b,%r14b
  101fa1:	0f 84 d0 00 00 00    	je     102077 <draw_string+0xe7>
  101fa7:	48 89 fb             	mov    %rdi,%rbx
  101faa:	48 ff c3             	inc    %rbx
  101fad:	eb 36                	jmp    101fe5 <draw_string+0x55>
  101faf:	48 89 0d c2 a0 00 00 	mov    %rcx,0xa0c2(%rip)        # 10c078 <tcury>
  101fb6:	31 c9                	xor    %ecx,%ecx
  101fb8:	48 0f af 05 b8 a0 00 	imul   0xa0b8(%rip),%rax        # 10c078 <tcury>
  101fbf:	00 
  101fc0:	48 01 c8             	add    %rcx,%rax
  101fc3:	48 8b 0d 96 a0 00 00 	mov    0xa096(%rip),%rcx        # 10c060 <text_buf>
  101fca:	44 88 34 01          	mov    %r14b,(%rcx,%rax,1)
  101fce:	48 ff 05 ab a0 00 00 	incq   0xa0ab(%rip)        # 10c080 <tcurx>
  101fd5:	44 0f b6 33          	movzbl (%rbx),%r14d
  101fd9:	48 ff c3             	inc    %rbx
  101fdc:	45 84 f6             	test   %r14b,%r14b
  101fdf:	0f 84 92 00 00 00    	je     102077 <draw_string+0xe7>
  101fe5:	41 0f be c6          	movsbl %r14b,%eax
  101fe9:	85 c0                	test   %eax,%eax
  101feb:	74 e8                	je     101fd5 <draw_string+0x45>
  101fed:	83 f8 0a             	cmp    $0xa,%eax
  101ff0:	75 2e                	jne    102020 <draw_string+0x90>
  101ff2:	48 c7 05 83 a0 00 00 	movq   $0x0,0xa083(%rip)        # 10c080 <tcurx>
  101ff9:	00 00 00 00 
  101ffd:	48 8b 05 74 a0 00 00 	mov    0xa074(%rip),%rax        # 10c078 <tcury>
  102004:	48 ff c0             	inc    %rax
  102007:	48 3b 05 42 a0 00 00 	cmp    0xa042(%rip),%rax        # 10c050 <th>
  10200e:	73 5d                	jae    10206d <draw_string+0xdd>
  102010:	48 89 05 61 a0 00 00 	mov    %rax,0xa061(%rip)        # 10c078 <tcury>
  102017:	eb bc                	jmp    101fd5 <draw_string+0x45>
  102019:	0f 1f 80 00 00 00 00 	nopl   0x0(%rax)
  102020:	48 8b 0d 59 a0 00 00 	mov    0xa059(%rip),%rcx        # 10c080 <tcurx>
  102027:	48 8b 05 2a a0 00 00 	mov    0xa02a(%rip),%rax        # 10c058 <tw>
  10202e:	48 39 c1             	cmp    %rax,%rcx
  102031:	72 85                	jb     101fb8 <draw_string+0x28>
  102033:	48 c7 05 42 a0 00 00 	movq   $0x0,0xa042(%rip)        # 10c080 <tcurx>
  10203a:	00 00 00 00 
  10203e:	48 8b 0d 33 a0 00 00 	mov    0xa033(%rip),%rcx        # 10c078 <tcury>
  102045:	48 ff c1             	inc    %rcx
  102048:	48 3b 0d 01 a0 00 00 	cmp    0xa001(%rip),%rcx        # 10c050 <th>
  10204f:	0f 82 5a ff ff ff    	jb     101faf <draw_string+0x1f>
  102055:	e8 e6 fc ff ff       	call   101d40 <draw_scroll_text_buf>
  10205a:	48 8b 05 f7 9f 00 00 	mov    0x9ff7(%rip),%rax        # 10c058 <tw>
  102061:	48 8b 0d 18 a0 00 00 	mov    0xa018(%rip),%rcx        # 10c080 <tcurx>
  102068:	e9 4b ff ff ff       	jmp    101fb8 <draw_string+0x28>
  10206d:	e8 ce fc ff ff       	call   101d40 <draw_scroll_text_buf>
  102072:	e9 5e ff ff ff       	jmp    101fd5 <draw_string+0x45>
  102077:	48 8b 05 d2 9f 00 00 	mov    0x9fd2(%rip),%rax        # 10c050 <th>
  10207e:	48 8b 0d d3 9f 00 00 	mov    0x9fd3(%rip),%rcx        # 10c058 <tw>
  102085:	48 89 ca             	mov    %rcx,%rdx
  102088:	48 0f af d0          	imul   %rax,%rdx
  10208c:	48 85 d2             	test   %rdx,%rdx
  10208f:	0f 84 9c 00 00 00    	je     102131 <draw_string+0x1a1>
  102095:	45 31 f6             	xor    %r14d,%r14d
  102098:	eb 22                	jmp    1020bc <draw_string+0x12c>
  10209a:	66 0f 1f 44 00 00    	nopw   0x0(%rax,%rax,1)
  1020a0:	48 8b 05 a9 9f 00 00 	mov    0x9fa9(%rip),%rax        # 10c050 <th>
  1020a7:	48 89 ca             	mov    %rcx,%rdx
  1020aa:	49 01 d6             	add    %rdx,%r14
  1020ad:	48 89 c6             	mov    %rax,%rsi
  1020b0:	48 0f af f2          	imul   %rdx,%rsi
  1020b4:	48 89 d1             	mov    %rdx,%rcx
  1020b7:	49 39 f6             	cmp    %rsi,%r14
  1020ba:	73 75                	jae    102131 <draw_string+0x1a1>
  1020bc:	ba 00 00 00 00       	mov    $0x0,%edx
  1020c1:	41 bf 00 00 00 00    	mov    $0x0,%r15d
  1020c7:	bb 00 00 00 00       	mov    $0x0,%ebx
  1020cc:	48 85 c9             	test   %rcx,%rcx
  1020cf:	75 3d                	jne    10210e <draw_string+0x17e>
  1020d1:	eb d7                	jmp    1020aa <draw_string+0x11a>
  1020d3:	66 66 66 66 2e 0f 1f 	data16 data16 data16 cs nopw 0x0(%rax,%rax,1)
  1020da:	84 00 00 00 00 00 
  1020e0:	4c 89 f0             	mov    %r14,%rax
  1020e3:	31 d2                	xor    %edx,%edx
  1020e5:	48 f7 f1             	div    %rcx
  1020e8:	48 01 c0             	add    %rax,%rax
  1020eb:	48 8d 14 80          	lea    (%rax,%rax,4),%rdx
  1020ef:	40 0f b6 fe          	movzbl %sil,%edi
  1020f3:	4c 89 fe             	mov    %r15,%rsi
  1020f6:	e8 d5 f7 ff ff       	call   1018d0 <draw_char_at>
  1020fb:	48 ff c3             	inc    %rbx
  1020fe:	48 8b 0d 53 9f 00 00 	mov    0x9f53(%rip),%rcx        # 10c058 <tw>
  102105:	49 83 c7 08          	add    $0x8,%r15
  102109:	48 39 cb             	cmp    %rcx,%rbx
  10210c:	73 92                	jae    1020a0 <draw_string+0x110>
  10210e:	48 8b 05 4b 9f 00 00 	mov    0x9f4b(%rip),%rax        # 10c060 <text_buf>
  102115:	4c 01 f0             	add    %r14,%rax
  102118:	0f b6 34 03          	movzbl (%rbx,%rax,1),%esi
  10211c:	4c 89 f0             	mov    %r14,%rax
  10211f:	48 09 c8             	or     %rcx,%rax
  102122:	48 c1 e8 20          	shr    $0x20,%rax
  102126:	75 b8                	jne    1020e0 <draw_string+0x150>
  102128:	44 89 f0             	mov    %r14d,%eax
  10212b:	31 d2                	xor    %edx,%edx
  10212d:	f7 f1                	div    %ecx
  10212f:	eb b7                	jmp    1020e8 <draw_string+0x158>
  102131:	48 83 c4 08          	add    $0x8,%rsp
  102135:	5b                   	pop    %rbx
  102136:	41 5e                	pop    %r14
  102138:	41 5f                	pop    %r15
  10213a:	5d                   	pop    %rbp
  10213b:	c3                   	ret
  10213c:	0f 1f 40 00          	nopl   0x0(%rax)

0000000000102140 <draw_hex>:
  102140:	55                   	push   %rbp
  102141:	48 89 e5             	mov    %rsp,%rbp
  102144:	41 57                	push   %r15
  102146:	41 56                	push   %r14
  102148:	53                   	push   %rbx
  102149:	50                   	push   %rax
  10214a:	49 89 fe             	mov    %rdi,%r14
  10214d:	bb 3c 00 00 00       	mov    $0x3c,%ebx
  102152:	eb 34                	jmp    102188 <draw_hex+0x48>
  102154:	48 89 0d 1d 9f 00 00 	mov    %rcx,0x9f1d(%rip)        # 10c078 <tcury>
  10215b:	31 c9                	xor    %ecx,%ecx
  10215d:	48 0f af 05 13 9f 00 	imul   0x9f13(%rip),%rax        # 10c078 <tcury>
  102164:	00 
  102165:	48 01 c8             	add    %rcx,%rax
  102168:	48 8b 0d f1 9e 00 00 	mov    0x9ef1(%rip),%rcx        # 10c060 <text_buf>
  10216f:	44 88 3c 01          	mov    %r15b,(%rcx,%rax,1)
  102173:	48 ff 05 06 9f 00 00 	incq   0x9f06(%rip)        # 10c080 <tcurx>
  10217a:	48 83 c3 fc          	add    $0xfffffffffffffffc,%rbx
  10217e:	48 83 fb fc          	cmp    $0xfffffffffffffffc,%rbx
  102182:	0f 84 a3 00 00 00    	je     10222b <draw_hex+0xeb>
  102188:	4c 89 f0             	mov    %r14,%rax
  10218b:	89 d9                	mov    %ebx,%ecx
  10218d:	48 d3 e8             	shr    %cl,%rax
  102190:	83 e0 0f             	and    $0xf,%eax
  102193:	44 0f b6 b8 80 ba 10 	movzbl 0x10ba80(%rax),%r15d
  10219a:	00 
  10219b:	41 0f be c7          	movsbl %r15b,%eax
  10219f:	85 c0                	test   %eax,%eax
  1021a1:	74 d7                	je     10217a <draw_hex+0x3a>
  1021a3:	83 f8 0a             	cmp    $0xa,%eax
  1021a6:	75 28                	jne    1021d0 <draw_hex+0x90>
  1021a8:	48 c7 05 cd 9e 00 00 	movq   $0x0,0x9ecd(%rip)        # 10c080 <tcurx>
  1021af:	00 00 00 00 
  1021b3:	48 8b 05 be 9e 00 00 	mov    0x9ebe(%rip),%rax        # 10c078 <tcury>
  1021ba:	48 ff c0             	inc    %rax
  1021bd:	48 3b 05 8c 9e 00 00 	cmp    0x9e8c(%rip),%rax        # 10c050 <th>
  1021c4:	73 5b                	jae    102221 <draw_hex+0xe1>
  1021c6:	48 89 05 ab 9e 00 00 	mov    %rax,0x9eab(%rip)        # 10c078 <tcury>
  1021cd:	eb ab                	jmp    10217a <draw_hex+0x3a>
  1021cf:	90                   	nop
  1021d0:	48 8b 0d a9 9e 00 00 	mov    0x9ea9(%rip),%rcx        # 10c080 <tcurx>
  1021d7:	48 8b 05 7a 9e 00 00 	mov    0x9e7a(%rip),%rax        # 10c058 <tw>
  1021de:	48 39 c1             	cmp    %rax,%rcx
  1021e1:	0f 82 76 ff ff ff    	jb     10215d <draw_hex+0x1d>
  1021e7:	48 c7 05 8e 9e 00 00 	movq   $0x0,0x9e8e(%rip)        # 10c080 <tcurx>
  1021ee:	00 00 00 00 
  1021f2:	48 8b 0d 7f 9e 00 00 	mov    0x9e7f(%rip),%rcx        # 10c078 <tcury>
  1021f9:	48 ff c1             	inc    %rcx
  1021fc:	48 3b 0d 4d 9e 00 00 	cmp    0x9e4d(%rip),%rcx        # 10c050 <th>
  102203:	0f 82 4b ff ff ff    	jb     102154 <draw_hex+0x14>
  102209:	e8 32 fb ff ff       	call   101d40 <draw_scroll_text_buf>
  10220e:	48 8b 05 43 9e 00 00 	mov    0x9e43(%rip),%rax        # 10c058 <tw>
  102215:	48 8b 0d 64 9e 00 00 	mov    0x9e64(%rip),%rcx        # 10c080 <tcurx>
  10221c:	e9 3c ff ff ff       	jmp    10215d <draw_hex+0x1d>
  102221:	e8 1a fb ff ff       	call   101d40 <draw_scroll_text_buf>
  102226:	e9 4f ff ff ff       	jmp    10217a <draw_hex+0x3a>
  10222b:	48 c7 05 4a 9e 00 00 	movq   $0x0,0x9e4a(%rip)        # 10c080 <tcurx>
  102232:	00 00 00 00 
  102236:	48 8b 0d 3b 9e 00 00 	mov    0x9e3b(%rip),%rcx        # 10c078 <tcury>
  10223d:	48 ff c1             	inc    %rcx
  102240:	48 8b 05 09 9e 00 00 	mov    0x9e09(%rip),%rax        # 10c050 <th>
  102247:	48 39 c1             	cmp    %rax,%rcx
  10224a:	73 09                	jae    102255 <draw_hex+0x115>
  10224c:	48 89 0d 25 9e 00 00 	mov    %rcx,0x9e25(%rip)        # 10c078 <tcury>
  102253:	eb 0c                	jmp    102261 <draw_hex+0x121>
  102255:	e8 e6 fa ff ff       	call   101d40 <draw_scroll_text_buf>
  10225a:	48 8b 05 ef 9d 00 00 	mov    0x9def(%rip),%rax        # 10c050 <th>
  102261:	48 8b 0d f0 9d 00 00 	mov    0x9df0(%rip),%rcx        # 10c058 <tw>
  102268:	48 89 ca             	mov    %rcx,%rdx
  10226b:	48 0f af d0          	imul   %rax,%rdx
  10226f:	48 85 d2             	test   %rdx,%rdx
  102272:	0f 84 99 00 00 00    	je     102311 <draw_hex+0x1d1>
  102278:	45 31 f6             	xor    %r14d,%r14d
  10227b:	eb 1f                	jmp    10229c <draw_hex+0x15c>
  10227d:	0f 1f 00             	nopl   (%rax)
  102280:	48 8b 05 c9 9d 00 00 	mov    0x9dc9(%rip),%rax        # 10c050 <th>
  102287:	48 89 ca             	mov    %rcx,%rdx
  10228a:	49 01 d6             	add    %rdx,%r14
  10228d:	48 89 c6             	mov    %rax,%rsi
  102290:	48 0f af f2          	imul   %rdx,%rsi
  102294:	48 89 d1             	mov    %rdx,%rcx
  102297:	49 39 f6             	cmp    %rsi,%r14
  10229a:	73 75                	jae    102311 <draw_hex+0x1d1>
  10229c:	ba 00 00 00 00       	mov    $0x0,%edx
  1022a1:	41 bf 00 00 00 00    	mov    $0x0,%r15d
  1022a7:	bb 00 00 00 00       	mov    $0x0,%ebx
  1022ac:	48 85 c9             	test   %rcx,%rcx
  1022af:	75 3d                	jne    1022ee <draw_hex+0x1ae>
  1022b1:	eb d7                	jmp    10228a <draw_hex+0x14a>
  1022b3:	66 66 66 66 2e 0f 1f 	data16 data16 data16 cs nopw 0x0(%rax,%rax,1)
  1022ba:	84 00 00 00 00 00 
  1022c0:	4c 89 f0             	mov    %r14,%rax
  1022c3:	31 d2                	xor    %edx,%edx
  1022c5:	48 f7 f1             	div    %rcx
  1022c8:	48 01 c0             	add    %rax,%rax
  1022cb:	48 8d 14 80          	lea    (%rax,%rax,4),%rdx
  1022cf:	40 0f b6 fe          	movzbl %sil,%edi
  1022d3:	4c 89 fe             	mov    %r15,%rsi
  1022d6:	e8 f5 f5 ff ff       	call   1018d0 <draw_char_at>
  1022db:	48 ff c3             	inc    %rbx
  1022de:	48 8b 0d 73 9d 00 00 	mov    0x9d73(%rip),%rcx        # 10c058 <tw>
  1022e5:	49 83 c7 08          	add    $0x8,%r15
  1022e9:	48 39 cb             	cmp    %rcx,%rbx
  1022ec:	73 92                	jae    102280 <draw_hex+0x140>
  1022ee:	48 8b 05 6b 9d 00 00 	mov    0x9d6b(%rip),%rax        # 10c060 <text_buf>
  1022f5:	4c 01 f0             	add    %r14,%rax
  1022f8:	0f b6 34 03          	movzbl (%rbx,%rax,1),%esi
  1022fc:	4c 89 f0             	mov    %r14,%rax
  1022ff:	48 09 c8             	or     %rcx,%rax
  102302:	48 c1 e8 20          	shr    $0x20,%rax
  102306:	75 b8                	jne    1022c0 <draw_hex+0x180>
  102308:	44 89 f0             	mov    %r14d,%eax
  10230b:	31 d2                	xor    %edx,%edx
  10230d:	f7 f1                	div    %ecx
  10230f:	eb b7                	jmp    1022c8 <draw_hex+0x188>
  102311:	48 83 c4 08          	add    $0x8,%rsp
  102315:	5b                   	pop    %rbx
  102316:	41 5e                	pop    %r14
  102318:	41 5f                	pop    %r15
  10231a:	5d                   	pop    %rbp
  10231b:	c3                   	ret
  10231c:	0f 1f 40 00          	nopl   0x0(%rax)

0000000000102320 <drivers_setup>:
  102320:	55                   	push   %rbp
  102321:	48 89 e5             	mov    %rsp,%rbp
  102324:	31 c0                	xor    %eax,%eax
  102326:	5d                   	pop    %rbp
  102327:	e9 24 08 00 00       	jmp    102b50 <nvme_setup>
  10232c:	0f 1f 40 00          	nopl   0x0(%rax)

0000000000102330 <idt_pagefault_handler>:
  102330:	55                   	push   %rbp
  102331:	48 89 e5             	mov    %rsp,%rbp
  102334:	41 57                	push   %r15
  102336:	41 56                	push   %r14
  102338:	53                   	push   %rbx
  102339:	50                   	push   %rax
  10233a:	8b 5d 68             	mov    0x68(%rbp),%ebx
  10233d:	4c 8b 75 60          	mov    0x60(%rbp),%r14
  102341:	4c 8b 7d 70          	mov    0x70(%rbp),%r15
  102345:	bf 13 b9 10 00       	mov    $0x10b913,%edi
  10234a:	e8 21 f5 ff ff       	call   101870 <dbgconout>
  10234f:	48 89 df             	mov    %rbx,%rdi
  102352:	e8 69 f4 ff ff       	call   1017c0 <dbgnumout_bin>
  102357:	bf 28 b9 10 00       	mov    $0x10b928,%edi
  10235c:	e8 0f f5 ff ff       	call   101870 <dbgconout>
  102361:	4c 89 ff             	mov    %r15,%rdi
  102364:	e8 97 f3 ff ff       	call   101700 <dbgnumout_hex>
  102369:	bf 2e b9 10 00       	mov    $0x10b92e,%edi
  10236e:	e8 fd f4 ff ff       	call   101870 <dbgconout>
  102373:	4c 89 f7             	mov    %r14,%rdi
  102376:	e8 85 f3 ff ff       	call   101700 <dbgnumout_hex>
  10237b:	bf 34 b9 10 00       	mov    $0x10b934,%edi
  102380:	e8 0b fc ff ff       	call   101f90 <draw_string>
  102385:	48 89 df             	mov    %rbx,%rdi
  102388:	e8 b3 fd ff ff       	call   102140 <draw_hex>
  10238d:	bf 50 b9 10 00       	mov    $0x10b950,%edi
  102392:	e8 f9 fb ff ff       	call   101f90 <draw_string>
  102397:	4c 89 ff             	mov    %r15,%rdi
  10239a:	e8 a1 fd ff ff       	call   102140 <draw_hex>
  10239f:	bf 55 b9 10 00       	mov    $0x10b955,%edi
  1023a4:	e8 e7 fb ff ff       	call   101f90 <draw_string>
  1023a9:	4c 89 f7             	mov    %r14,%rdi
  1023ac:	e8 8f fd ff ff       	call   102140 <draw_hex>
  1023b1:	66 66 66 66 66 66 2e 	data16 data16 data16 data16 data16 cs nopw 0x0(%rax,%rax,1)
  1023b8:	0f 1f 84 00 00 00 00 
  1023bf:	00 
  1023c0:	eb fe                	jmp    1023c0 <idt_pagefault_handler+0x90>
  1023c2:	66 66 66 66 66 2e 0f 	data16 data16 data16 data16 cs nopw 0x0(%rax,%rax,1)
  1023c9:	1f 84 00 00 00 00 00 

00000000001023d0 <idt_set_addr>:
  1023d0:	55                   	push   %rbp
  1023d1:	48 89 e5             	mov    %rsp,%rbp
  1023d4:	66 89 37             	mov    %si,(%rdi)
  1023d7:	48 89 f0             	mov    %rsi,%rax
  1023da:	48 c1 e8 10          	shr    $0x10,%rax
  1023de:	66 89 47 06          	mov    %ax,0x6(%rdi)
  1023e2:	48 c1 ee 20          	shr    $0x20,%rsi
  1023e6:	89 77 08             	mov    %esi,0x8(%rdi)
  1023e9:	5d                   	pop    %rbp
  1023ea:	c3                   	ret
  1023eb:	0f 1f 44 00 00       	nopl   0x0(%rax,%rax,1)

00000000001023f0 <idt_set_trap_ent>:
  1023f0:	55                   	push   %rbp
  1023f1:	48 89 e5             	mov    %rsp,%rbp
  1023f4:	48 c1 e7 04          	shl    $0x4,%rdi
  1023f8:	c6 87 95 c0 10 00 8f 	movb   $0x8f,0x10c095(%rdi)
  1023ff:	66 c7 87 92 c0 10 00 	movw   $0x8,0x10c092(%rdi)
  102406:	08 00 
  102408:	66 89 b7 90 c0 10 00 	mov    %si,0x10c090(%rdi)
  10240f:	48 89 f0             	mov    %rsi,%rax
  102412:	48 c1 e8 10          	shr    $0x10,%rax
  102416:	66 89 87 96 c0 10 00 	mov    %ax,0x10c096(%rdi)
  10241d:	48 c1 ee 20          	shr    $0x20,%rsi
  102421:	89 b7 98 c0 10 00    	mov    %esi,0x10c098(%rdi)
  102427:	5d                   	pop    %rbp
  102428:	c3                   	ret
  102429:	0f 1f 80 00 00 00 00 	nopl   0x0(%rax)

0000000000102430 <idt_set_irq_ent>:
  102430:	55                   	push   %rbp
  102431:	48 89 e5             	mov    %rsp,%rbp
  102434:	48 c1 e7 04          	shl    $0x4,%rdi
  102438:	c6 87 95 c0 10 00 8e 	movb   $0x8e,0x10c095(%rdi)
  10243f:	66 c7 87 92 c0 10 00 	movw   $0x8,0x10c092(%rdi)
  102446:	08 00 
  102448:	66 89 b7 90 c0 10 00 	mov    %si,0x10c090(%rdi)
  10244f:	48 89 f0             	mov    %rsi,%rax
  102452:	48 c1 e8 10          	shr    $0x10,%rax
  102456:	66 89 87 96 c0 10 00 	mov    %ax,0x10c096(%rdi)
  10245d:	48 c1 ee 20          	shr    $0x20,%rsi
  102461:	89 b7 98 c0 10 00    	mov    %esi,0x10c098(%rdi)
  102467:	5d                   	pop    %rbp
  102468:	c3                   	ret
  102469:	0f 1f 80 00 00 00 00 	nopl   0x0(%rax)

0000000000102470 <idt_flush>:
  102470:	55                   	push   %rbp
  102471:	48 89 e5             	mov    %rsp,%rbp
  102474:	0f 01 1c 25 80 d0 10 	lidt   0x10d080
  10247b:	00 
  10247c:	5d                   	pop    %rbp
  10247d:	c3                   	ret
  10247e:	66 90                	xchg   %ax,%ax

0000000000102480 <idt_setup>:
  102480:	55                   	push   %rbp
  102481:	48 89 e5             	mov    %rsp,%rbp
  102484:	48 c7 05 f3 ab 00 00 	movq   $0x10c090,0xabf3(%rip)        # 10d082 <idtr+0x2>
  10248b:	90 c0 10 00 
  10248f:	66 c7 05 e8 ab 00 00 	movw   $0xfef,0xabe8(%rip)        # 10d080 <idtr>
  102496:	ef 0f 
  102498:	c6 05 d6 9c 00 00 8f 	movb   $0x8f,0x9cd6(%rip)        # 10c175 <idt_table+0xe5>
  10249f:	66 c7 05 ca 9c 00 00 	movw   $0x8,0x9cca(%rip)        # 10c172 <idt_table+0xe2>
  1024a6:	08 00 
  1024a8:	b8 48 a1 10 00       	mov    $0x10a148,%eax
  1024ad:	66 89 05 bc 9c 00 00 	mov    %ax,0x9cbc(%rip)        # 10c170 <idt_table+0xe0>
  1024b4:	b9 48 a1 10 00       	mov    $0x10a148,%ecx
  1024b9:	48 c1 e9 10          	shr    $0x10,%rcx
  1024bd:	66 89 0d b2 9c 00 00 	mov    %cx,0x9cb2(%rip)        # 10c176 <idt_table+0xe6>
  1024c4:	48 c1 e8 20          	shr    $0x20,%rax
  1024c8:	89 05 aa 9c 00 00    	mov    %eax,0x9caa(%rip)        # 10c178 <idt_table+0xe8>
  1024ce:	0f 01 1c 25 80 d0 10 	lidt   0x10d080
  1024d5:	00 
  1024d6:	5d                   	pop    %rbp
  1024d7:	c3                   	ret
  1024d8:	0f 1f 84 00 00 00 00 	nopl   0x0(%rax,%rax,1)
  1024df:	00 

00000000001024e0 <mem_cpy>:
  1024e0:	55                   	push   %rbp
  1024e1:	48 89 e5             	mov    %rsp,%rbp
  1024e4:	48 85 d2             	test   %rdx,%rdx
  1024e7:	0f 84 a6 01 00 00    	je     102693 <mem_cpy+0x1b3>
  1024ed:	45 31 db             	xor    %r11d,%r11d
  1024f0:	48 83 fa 08          	cmp    $0x8,%rdx
  1024f4:	0f 82 2c 01 00 00    	jb     102626 <mem_cpy+0x146>
  1024fa:	48 89 f9             	mov    %rdi,%rcx
  1024fd:	48 29 f1             	sub    %rsi,%rcx
  102500:	48 83 f9 20          	cmp    $0x20,%rcx
  102504:	0f 82 1c 01 00 00    	jb     102626 <mem_cpy+0x146>
  10250a:	48 83 fa 20          	cmp    $0x20,%rdx
  10250e:	73 08                	jae    102518 <mem_cpy+0x38>
  102510:	45 31 db             	xor    %r11d,%r11d
  102513:	e9 e5 00 00 00       	jmp    1025fd <mem_cpy+0x11d>
  102518:	49 89 d3             	mov    %rdx,%r11
  10251b:	49 83 e3 e0          	and    $0xffffffffffffffe0,%r11
  10251f:	49 8d 4b e0          	lea    -0x20(%r11),%rcx
  102523:	49 89 c9             	mov    %rcx,%r9
  102526:	49 c1 e9 05          	shr    $0x5,%r9
  10252a:	49 ff c1             	inc    %r9
  10252d:	45 89 c8             	mov    %r9d,%r8d
  102530:	41 83 e0 03          	and    $0x3,%r8d
  102534:	48 83 f9 60          	cmp    $0x60,%rcx
  102538:	73 04                	jae    10253e <mem_cpy+0x5e>
  10253a:	31 c9                	xor    %ecx,%ecx
  10253c:	eb 6a                	jmp    1025a8 <mem_cpy+0xc8>
  10253e:	49 83 e1 fc          	and    $0xfffffffffffffffc,%r9
  102542:	31 c9                	xor    %ecx,%ecx
  102544:	66 66 66 2e 0f 1f 84 	data16 data16 cs nopw 0x0(%rax,%rax,1)
  10254b:	00 00 00 00 00 
  102550:	0f 10 04 0e          	movups (%rsi,%rcx,1),%xmm0
  102554:	0f 10 4c 0e 10       	movups 0x10(%rsi,%rcx,1),%xmm1
  102559:	0f 11 04 0f          	movups %xmm0,(%rdi,%rcx,1)
  10255d:	0f 11 4c 0f 10       	movups %xmm1,0x10(%rdi,%rcx,1)
  102562:	0f 10 44 0e 20       	movups 0x20(%rsi,%rcx,1),%xmm0
  102567:	0f 10 4c 0e 30       	movups 0x30(%rsi,%rcx,1),%xmm1
  10256c:	0f 11 44 0f 20       	movups %xmm0,0x20(%rdi,%rcx,1)
  102571:	0f 11 4c 0f 30       	movups %xmm1,0x30(%rdi,%rcx,1)
  102576:	0f 10 44 0e 40       	movups 0x40(%rsi,%rcx,1),%xmm0
  10257b:	0f 10 4c 0e 50       	movups 0x50(%rsi,%rcx,1),%xmm1
  102580:	0f 11 44 0f 40       	movups %xmm0,0x40(%rdi,%rcx,1)
  102585:	0f 11 4c 0f 50       	movups %xmm1,0x50(%rdi,%rcx,1)
  10258a:	0f 10 44 0e 60       	movups 0x60(%rsi,%rcx,1),%xmm0
  10258f:	0f 10 4c 0e 70       	movups 0x70(%rsi,%rcx,1),%xmm1
  102594:	0f 11 44 0f 60       	movups %xmm0,0x60(%rdi,%rcx,1)
  102599:	0f 11 4c 0f 70       	movups %xmm1,0x70(%rdi,%rcx,1)
  10259e:	48 83 e9 80          	sub    $0xffffffffffffff80,%rcx
  1025a2:	49 83 c1 fc          	add    $0xfffffffffffffffc,%r9
  1025a6:	75 a8                	jne    102550 <mem_cpy+0x70>
  1025a8:	4d 85 c0             	test   %r8,%r8
  1025ab:	74 42                	je     1025ef <mem_cpy+0x10f>
  1025ad:	4c 8d 0c 0f          	lea    (%rdi,%rcx,1),%r9
  1025b1:	49 83 c1 10          	add    $0x10,%r9
  1025b5:	4c 8d 14 0e          	lea    (%rsi,%rcx,1),%r10
  1025b9:	49 83 c2 10          	add    $0x10,%r10
  1025bd:	49 c1 e0 05          	shl    $0x5,%r8
  1025c1:	31 c9                	xor    %ecx,%ecx
  1025c3:	66 66 66 66 2e 0f 1f 	data16 data16 data16 cs nopw 0x0(%rax,%rax,1)
  1025ca:	84 00 00 00 00 00 
  1025d0:	41 0f 10 44 0a f0    	movups -0x10(%r10,%rcx,1),%xmm0
  1025d6:	41 0f 10 0c 0a       	movups (%r10,%rcx,1),%xmm1
  1025db:	41 0f 11 44 09 f0    	movups %xmm0,-0x10(%r9,%rcx,1)
  1025e1:	41 0f 11 0c 09       	movups %xmm1,(%r9,%rcx,1)
  1025e6:	48 83 c1 20          	add    $0x20,%rcx
  1025ea:	49 39 c8             	cmp    %rcx,%r8
  1025ed:	75 e1                	jne    1025d0 <mem_cpy+0xf0>
  1025ef:	49 39 d3             	cmp    %rdx,%r11
  1025f2:	0f 84 9b 00 00 00    	je     102693 <mem_cpy+0x1b3>
  1025f8:	f6 c2 18             	test   $0x18,%dl
  1025fb:	74 29                	je     102626 <mem_cpy+0x146>
  1025fd:	4c 89 d9             	mov    %r11,%rcx
  102600:	49 89 d3             	mov    %rdx,%r11
  102603:	49 83 e3 f8          	and    $0xfffffffffffffff8,%r11
  102607:	66 0f 1f 84 00 00 00 	nopw   0x0(%rax,%rax,1)
  10260e:	00 00 
  102610:	48 8b 04 0e          	mov    (%rsi,%rcx,1),%rax
  102614:	48 89 04 0f          	mov    %rax,(%rdi,%rcx,1)
  102618:	48 83 c1 08          	add    $0x8,%rcx
  10261c:	49 39 cb             	cmp    %rcx,%r11
  10261f:	75 ef                	jne    102610 <mem_cpy+0x130>
  102621:	49 39 d3             	cmp    %rdx,%r11
  102624:	74 6d                	je     102693 <mem_cpy+0x1b3>
  102626:	4d 89 d8             	mov    %r11,%r8
  102629:	49 f7 d0             	not    %r8
  10262c:	49 01 d0             	add    %rdx,%r8
  10262f:	48 89 d1             	mov    %rdx,%rcx
  102632:	48 83 e1 03          	and    $0x3,%rcx
  102636:	74 19                	je     102651 <mem_cpy+0x171>
  102638:	0f 1f 84 00 00 00 00 	nopl   0x0(%rax,%rax,1)
  10263f:	00 
  102640:	42 0f b6 04 1e       	movzbl (%rsi,%r11,1),%eax
  102645:	42 88 04 1f          	mov    %al,(%rdi,%r11,1)
  102649:	49 ff c3             	inc    %r11
  10264c:	48 ff c9             	dec    %rcx
  10264f:	75 ef                	jne    102640 <mem_cpy+0x160>
  102651:	49 83 f8 03          	cmp    $0x3,%r8
  102655:	72 3c                	jb     102693 <mem_cpy+0x1b3>
  102657:	66 0f 1f 84 00 00 00 	nopw   0x0(%rax,%rax,1)
  10265e:	00 00 
  102660:	42 0f b6 04 1e       	movzbl (%rsi,%r11,1),%eax
  102665:	42 88 04 1f          	mov    %al,(%rdi,%r11,1)
  102669:	42 0f b6 44 1e 01    	movzbl 0x1(%rsi,%r11,1),%eax
  10266f:	42 88 44 1f 01       	mov    %al,0x1(%rdi,%r11,1)
  102674:	42 0f b6 44 1e 02    	movzbl 0x2(%rsi,%r11,1),%eax
  10267a:	42 88 44 1f 02       	mov    %al,0x2(%rdi,%r11,1)
  10267f:	42 0f b6 44 1e 03    	movzbl 0x3(%rsi,%r11,1),%eax
  102685:	42 88 44 1f 03       	mov    %al,0x3(%rdi,%r11,1)
  10268a:	49 83 c3 04          	add    $0x4,%r11
  10268e:	4c 39 da             	cmp    %r11,%rdx
  102691:	75 cd                	jne    102660 <mem_cpy+0x180>
  102693:	5d                   	pop    %rbp
  102694:	c3                   	ret
  102695:	66 66 2e 0f 1f 84 00 	data16 cs nopw 0x0(%rax,%rax,1)
  10269c:	00 00 00 00 

00000000001026a0 <mem_set>:
  1026a0:	55                   	push   %rbp
  1026a1:	48 89 e5             	mov    %rsp,%rbp
  1026a4:	4c 8d 14 17          	lea    (%rdi,%rdx,1),%r10
  1026a8:	f6 c2 0f             	test   $0xf,%dl
  1026ab:	74 24                	je     1026d1 <mem_set+0x31>
  1026ad:	f6 c2 07             	test   $0x7,%dl
  1026b0:	0f 84 82 00 00 00    	je     102738 <mem_set+0x98>
  1026b6:	49 39 fa             	cmp    %rdi,%r10
  1026b9:	0f 84 9c 02 00 00    	je     10295b <mem_set+0x2bb>
  1026bf:	48 83 fa 08          	cmp    $0x8,%rdx
  1026c3:	0f 83 d3 00 00 00    	jae    10279c <mem_set+0xfc>
  1026c9:	48 89 f8             	mov    %rdi,%rax
  1026cc:	e9 7f 02 00 00       	jmp    102950 <mem_set+0x2b0>
  1026d1:	49 39 fa             	cmp    %rdi,%r10
  1026d4:	0f 84 81 02 00 00    	je     10295b <mem_set+0x2bb>
  1026da:	40 0f b6 d6          	movzbl %sil,%edx
  1026de:	49 89 d0             	mov    %rdx,%r8
  1026e1:	48 89 d6             	mov    %rdx,%rsi
  1026e4:	48 b8 00 01 01 01 01 	movabs $0x101010101010100,%rax
  1026eb:	01 01 01 
  1026ee:	48 0f af c2          	imul   %rdx,%rax
  1026f2:	48 b9 01 00 00 00 01 	movabs $0x101010100000001,%rcx
  1026f9:	01 01 01 
  1026fc:	48 0f af ca          	imul   %rdx,%rcx
  102700:	48 09 d0             	or     %rdx,%rax
  102703:	48 c1 e2 18          	shl    $0x18,%rdx
  102707:	49 c1 e0 10          	shl    $0x10,%r8
  10270b:	49 09 d0             	or     %rdx,%r8
  10270e:	48 c1 e6 08          	shl    $0x8,%rsi
  102712:	4c 09 c6             	or     %r8,%rsi
  102715:	48 09 f1             	or     %rsi,%rcx
  102718:	0f 1f 84 00 00 00 00 	nopl   0x0(%rax,%rax,1)
  10271f:	00 
  102720:	48 89 0f             	mov    %rcx,(%rdi)
  102723:	48 89 47 08          	mov    %rax,0x8(%rdi)
  102727:	48 8d 57 10          	lea    0x10(%rdi),%rdx
  10272b:	48 89 d7             	mov    %rdx,%rdi
  10272e:	4c 39 d2             	cmp    %r10,%rdx
  102731:	75 ed                	jne    102720 <mem_set+0x80>
  102733:	e9 23 02 00 00       	jmp    10295b <mem_set+0x2bb>
  102738:	4d 89 d1             	mov    %r10,%r9
  10273b:	49 29 f9             	sub    %rdi,%r9
  10273e:	0f 84 17 02 00 00    	je     10295b <mem_set+0x2bb>
  102744:	40 0f b6 c6          	movzbl %sil,%eax
  102748:	48 b9 01 01 01 01 01 	movabs $0x101010101010101,%rcx
  10274f:	01 01 01 
  102752:	48 0f af c8          	imul   %rax,%rcx
  102756:	49 83 c1 f8          	add    $0xfffffffffffffff8,%r9
  10275a:	49 83 f9 18          	cmp    $0x18,%r9
  10275e:	0f 82 1c 01 00 00    	jb     102880 <mem_set+0x1e0>
  102764:	49 c1 e9 03          	shr    $0x3,%r9
  102768:	49 ff c1             	inc    %r9
  10276b:	4d 89 c8             	mov    %r9,%r8
  10276e:	49 83 e0 fc          	and    $0xfffffffffffffffc,%r8
  102772:	66 48 0f 6e c1       	movq   %rcx,%xmm0
  102777:	66 0f 70 c0 44       	pshufd $0x44,%xmm0,%xmm0
  10277c:	49 8d 50 fc          	lea    -0x4(%r8),%rdx
  102780:	48 89 d0             	mov    %rdx,%rax
  102783:	48 c1 e8 02          	shr    $0x2,%rax
  102787:	48 ff c0             	inc    %rax
  10278a:	89 c6                	mov    %eax,%esi
  10278c:	83 e6 03             	and    $0x3,%esi
  10278f:	48 83 fa 0c          	cmp    $0xc,%rdx
  102793:	73 58                	jae    1027ed <mem_set+0x14d>
  102795:	31 d2                	xor    %edx,%edx
  102797:	e9 9d 00 00 00       	jmp    102839 <mem_set+0x199>
  10279c:	44 0f b6 c6          	movzbl %sil,%r8d
  1027a0:	48 83 fa 20          	cmp    $0x20,%rdx
  1027a4:	73 07                	jae    1027ad <mem_set+0x10d>
  1027a6:	31 c9                	xor    %ecx,%ecx
  1027a8:	e9 63 01 00 00       	jmp    102910 <mem_set+0x270>
  1027ad:	48 89 d1             	mov    %rdx,%rcx
  1027b0:	48 83 e1 e0          	and    $0xffffffffffffffe0,%rcx
  1027b4:	66 41 0f 6e c0       	movd   %r8d,%xmm0
  1027b9:	66 0f 60 c0          	punpcklbw %xmm0,%xmm0
  1027bd:	f2 0f 70 c0 00       	pshuflw $0x0,%xmm0,%xmm0
  1027c2:	66 0f 70 c0 00       	pshufd $0x0,%xmm0,%xmm0
  1027c7:	48 8d 41 e0          	lea    -0x20(%rcx),%rax
  1027cb:	49 89 c3             	mov    %rax,%r11
  1027ce:	49 c1 eb 05          	shr    $0x5,%r11
  1027d2:	49 ff c3             	inc    %r11
  1027d5:	45 89 d9             	mov    %r11d,%r9d
  1027d8:	41 83 e1 03          	and    $0x3,%r9d
  1027dc:	48 83 f8 60          	cmp    $0x60,%rax
  1027e0:	0f 83 ab 00 00 00    	jae    102891 <mem_set+0x1f1>
  1027e6:	31 c0                	xor    %eax,%eax
  1027e8:	e9 ec 00 00 00       	jmp    1028d9 <mem_set+0x239>
  1027ed:	48 83 e0 fc          	and    $0xfffffffffffffffc,%rax
  1027f1:	31 d2                	xor    %edx,%edx
  1027f3:	66 66 66 66 2e 0f 1f 	data16 data16 data16 cs nopw 0x0(%rax,%rax,1)
  1027fa:	84 00 00 00 00 00 
  102800:	f3 0f 7f 04 d7       	movdqu %xmm0,(%rdi,%rdx,8)
  102805:	f3 0f 7f 44 d7 10    	movdqu %xmm0,0x10(%rdi,%rdx,8)
  10280b:	f3 0f 7f 44 d7 20    	movdqu %xmm0,0x20(%rdi,%rdx,8)
  102811:	f3 0f 7f 44 d7 30    	movdqu %xmm0,0x30(%rdi,%rdx,8)
  102817:	f3 0f 7f 44 d7 40    	movdqu %xmm0,0x40(%rdi,%rdx,8)
  10281d:	f3 0f 7f 44 d7 50    	movdqu %xmm0,0x50(%rdi,%rdx,8)
  102823:	f3 0f 7f 44 d7 60    	movdqu %xmm0,0x60(%rdi,%rdx,8)
  102829:	f3 0f 7f 44 d7 70    	movdqu %xmm0,0x70(%rdi,%rdx,8)
  10282f:	48 83 c2 10          	add    $0x10,%rdx
  102833:	48 83 c0 fc          	add    $0xfffffffffffffffc,%rax
  102837:	75 c7                	jne    102800 <mem_set+0x160>
  102839:	48 85 f6             	test   %rsi,%rsi
  10283c:	74 26                	je     102864 <mem_set+0x1c4>
  10283e:	48 8d 04 d7          	lea    (%rdi,%rdx,8),%rax
  102842:	48 83 c0 10          	add    $0x10,%rax
  102846:	48 c1 e6 05          	shl    $0x5,%rsi
  10284a:	31 d2                	xor    %edx,%edx
  10284c:	0f 1f 40 00          	nopl   0x0(%rax)
  102850:	f3 0f 7f 44 10 f0    	movdqu %xmm0,-0x10(%rax,%rdx,1)
  102856:	f3 0f 7f 04 10       	movdqu %xmm0,(%rax,%rdx,1)
  10285b:	48 83 c2 20          	add    $0x20,%rdx
  10285f:	48 39 d6             	cmp    %rdx,%rsi
  102862:	75 ec                	jne    102850 <mem_set+0x1b0>
  102864:	4d 39 c1             	cmp    %r8,%r9
  102867:	0f 84 ee 00 00 00    	je     10295b <mem_set+0x2bb>
  10286d:	4a 8d 3c c7          	lea    (%rdi,%r8,8),%rdi
  102871:	66 66 66 66 66 66 2e 	data16 data16 data16 data16 data16 cs nopw 0x0(%rax,%rax,1)
  102878:	0f 1f 84 00 00 00 00 
  10287f:	00 
  102880:	48 89 0f             	mov    %rcx,(%rdi)
  102883:	48 83 c7 08          	add    $0x8,%rdi
  102887:	4c 39 d7             	cmp    %r10,%rdi
  10288a:	75 f4                	jne    102880 <mem_set+0x1e0>
  10288c:	e9 ca 00 00 00       	jmp    10295b <mem_set+0x2bb>
  102891:	49 83 e3 fc          	and    $0xfffffffffffffffc,%r11
  102895:	31 c0                	xor    %eax,%eax
  102897:	66 0f 1f 84 00 00 00 	nopw   0x0(%rax,%rax,1)
  10289e:	00 00 
  1028a0:	f3 0f 7f 04 07       	movdqu %xmm0,(%rdi,%rax,1)
  1028a5:	f3 0f 7f 44 07 10    	movdqu %xmm0,0x10(%rdi,%rax,1)
  1028ab:	f3 0f 7f 44 07 20    	movdqu %xmm0,0x20(%rdi,%rax,1)
  1028b1:	f3 0f 7f 44 07 30    	movdqu %xmm0,0x30(%rdi,%rax,1)
  1028b7:	f3 0f 7f 44 07 40    	movdqu %xmm0,0x40(%rdi,%rax,1)
  1028bd:	f3 0f 7f 44 07 50    	movdqu %xmm0,0x50(%rdi,%rax,1)
  1028c3:	f3 0f 7f 44 07 60    	movdqu %xmm0,0x60(%rdi,%rax,1)
  1028c9:	f3 0f 7f 44 07 70    	movdqu %xmm0,0x70(%rdi,%rax,1)
  1028cf:	48 83 e8 80          	sub    $0xffffffffffffff80,%rax
  1028d3:	49 83 c3 fc          	add    $0xfffffffffffffffc,%r11
  1028d7:	75 c7                	jne    1028a0 <mem_set+0x200>
  1028d9:	4d 85 c9             	test   %r9,%r9
  1028dc:	74 28                	je     102906 <mem_set+0x266>
  1028de:	4c 8d 1c 38          	lea    (%rax,%rdi,1),%r11
  1028e2:	49 83 c3 10          	add    $0x10,%r11
  1028e6:	49 c1 e1 05          	shl    $0x5,%r9
  1028ea:	31 c0                	xor    %eax,%eax
  1028ec:	0f 1f 40 00          	nopl   0x0(%rax)
  1028f0:	f3 41 0f 7f 44 03 f0 	movdqu %xmm0,-0x10(%r11,%rax,1)
  1028f7:	f3 41 0f 7f 04 03    	movdqu %xmm0,(%r11,%rax,1)
  1028fd:	48 83 c0 20          	add    $0x20,%rax
  102901:	49 39 c1             	cmp    %rax,%r9
  102904:	75 ea                	jne    1028f0 <mem_set+0x250>
  102906:	48 39 d1             	cmp    %rdx,%rcx
  102909:	74 50                	je     10295b <mem_set+0x2bb>
  10290b:	f6 c2 18             	test   $0x18,%dl
  10290e:	74 35                	je     102945 <mem_set+0x2a5>
  102910:	49 89 d1             	mov    %rdx,%r9
  102913:	49 83 e1 f8          	and    $0xfffffffffffffff8,%r9
  102917:	4a 8d 04 0f          	lea    (%rdi,%r9,1),%rax
  10291b:	66 41 0f 6e c0       	movd   %r8d,%xmm0
  102920:	66 0f 60 c0          	punpcklbw %xmm0,%xmm0
  102924:	f2 0f 70 c0 00       	pshuflw $0x0,%xmm0,%xmm0
  102929:	0f 1f 80 00 00 00 00 	nopl   0x0(%rax)
  102930:	66 0f d6 04 0f       	movq   %xmm0,(%rdi,%rcx,1)
  102935:	48 83 c1 08          	add    $0x8,%rcx
  102939:	49 39 c9             	cmp    %rcx,%r9
  10293c:	75 f2                	jne    102930 <mem_set+0x290>
  10293e:	49 39 d1             	cmp    %rdx,%r9
  102941:	75 0d                	jne    102950 <mem_set+0x2b0>
  102943:	eb 16                	jmp    10295b <mem_set+0x2bb>
  102945:	48 01 cf             	add    %rcx,%rdi
  102948:	48 89 f8             	mov    %rdi,%rax
  10294b:	0f 1f 44 00 00       	nopl   0x0(%rax,%rax,1)
  102950:	40 88 30             	mov    %sil,(%rax)
  102953:	48 ff c0             	inc    %rax
  102956:	4c 39 d0             	cmp    %r10,%rax
  102959:	75 f5                	jne    102950 <mem_set+0x2b0>
  10295b:	5d                   	pop    %rbp
  10295c:	c3                   	ret
  10295d:	0f 1f 00             	nopl   (%rax)

0000000000102960 <mem_cmp>:
  102960:	55                   	push   %rbp
  102961:	48 89 e5             	mov    %rsp,%rbp
  102964:	41 57                	push   %r15
  102966:	41 56                	push   %r14
  102968:	53                   	push   %rbx
  102969:	50                   	push   %rax
  10296a:	49 89 d6             	mov    %rdx,%r14
  10296d:	49 89 f7             	mov    %rsi,%r15
  102970:	48 89 fb             	mov    %rdi,%rbx
  102973:	e8 88 ed ff ff       	call   101700 <dbgnumout_hex>
  102978:	4c 89 ff             	mov    %r15,%rdi
  10297b:	e8 80 ed ff ff       	call   101700 <dbgnumout_hex>
  102980:	b8 01 00 00 00       	mov    $0x1,%eax
  102985:	4d 85 f6             	test   %r14,%r14
  102988:	74 1c                	je     1029a6 <mem_cmp+0x46>
  10298a:	31 c9                	xor    %ecx,%ecx
  10298c:	0f 1f 40 00          	nopl   0x0(%rax)
  102990:	0f b6 14 0b          	movzbl (%rbx,%rcx,1),%edx
  102994:	41 3a 14 0f          	cmp    (%r15,%rcx,1),%dl
  102998:	75 0a                	jne    1029a4 <mem_cmp+0x44>
  10299a:	48 ff c1             	inc    %rcx
  10299d:	49 39 ce             	cmp    %rcx,%r14
  1029a0:	75 ee                	jne    102990 <mem_cmp+0x30>
  1029a2:	eb 02                	jmp    1029a6 <mem_cmp+0x46>
  1029a4:	31 c0                	xor    %eax,%eax
  1029a6:	48 83 c4 08          	add    $0x8,%rsp
  1029aa:	5b                   	pop    %rbx
  1029ab:	41 5e                	pop    %r14
  1029ad:	41 5f                	pop    %r15
  1029af:	5d                   	pop    %rbp
  1029b0:	c3                   	ret
  1029b1:	66 2e 0f 1f 84 00 00 	cs nopw 0x0(%rax,%rax,1)
  1029b8:	00 00 00 
  1029bb:	0f 1f 44 00 00       	nopl   0x0(%rax,%rax,1)

00000000001029c0 <krnl_main>:
  1029c0:	81 ff 89 62 d7 36    	cmp    $0x36d76289,%edi
  1029c6:	0f 85 e1 00 00 00    	jne    102aad <krnl_main+0xed>
  1029cc:	55                   	push   %rbp
  1029cd:	48 89 e5             	mov    %rsp,%rbp
  1029d0:	41 57                	push   %r15
  1029d2:	41 56                	push   %r14
  1029d4:	53                   	push   %rbx
  1029d5:	50                   	push   %rax
  1029d6:	49 89 f6             	mov    %rsi,%r14
  1029d9:	bf 5a b9 10 00       	mov    $0x10b95a,%edi
  1029de:	e8 8d ee ff ff       	call   101870 <dbgconout>
  1029e3:	31 c0                	xor    %eax,%eax
  1029e5:	e8 96 fa ff ff       	call   102480 <idt_setup>
  1029ea:	31 c0                	xor    %eax,%eax
  1029ec:	e8 1f 16 00 00       	call   104010 <k_pageobj_heap_setup>
  1029f1:	31 c0                	xor    %eax,%eax
  1029f3:	e8 b8 0b 00 00       	call   1035b0 <page_init_map>
  1029f8:	41 bf 20 f4 11 01    	mov    $0x111f420,%r15d
  1029fe:	49 c1 ef 15          	shr    $0x15,%r15
  102a02:	49 83 ff ff          	cmp    $0xffffffffffffffff,%r15
  102a06:	74 1f                	je     102a27 <krnl_main+0x67>
  102a08:	49 ff c7             	inc    %r15
  102a0b:	31 db                	xor    %ebx,%ebx
  102a0d:	0f 1f 00             	nopl   (%rax)
  102a10:	48 89 df             	mov    %rbx,%rdi
  102a13:	48 89 de             	mov    %rbx,%rsi
  102a16:	e8 05 0d 00 00       	call   103720 <page_alloc>
  102a1b:	48 81 c3 00 00 20 00 	add    $0x200000,%rbx
  102a22:	49 ff cf             	dec    %r15
  102a25:	75 e9                	jne    102a10 <krnl_main+0x50>
  102a27:	31 c0                	xor    %eax,%eax
  102a29:	e8 b2 15 00 00       	call   103fe0 <page_flush>
  102a2e:	45 8b 3e             	mov    (%r14),%r15d
  102a31:	4c 89 ff             	mov    %r15,%rdi
  102a34:	e8 d7 01 00 00       	call   102c10 <k_obj_alloc>
  102a39:	48 89 05 50 a6 00 00 	mov    %rax,0xa650(%rip)        # 10d090 <m_info>
  102a40:	48 89 c7             	mov    %rax,%rdi
  102a43:	4c 89 f6             	mov    %r14,%rsi
  102a46:	4c 89 fa             	mov    %r15,%rdx
  102a49:	e8 92 fa ff ff       	call   1024e0 <mem_cpy>
  102a4e:	48 8b 05 3b a6 00 00 	mov    0xa63b(%rip),%rax        # 10d090 <m_info>
  102a55:	48 8d 58 08          	lea    0x8(%rax),%rbx
  102a59:	eb 1f                	jmp    102a7a <krnl_main+0xba>
  102a5b:	0f 1f 44 00 00       	nopl   0x0(%rax,%rax,1)
  102a60:	49 89 de             	mov    %rbx,%r14
  102a63:	8b 4b 04             	mov    0x4(%rbx),%ecx
  102a66:	83 c1 07             	add    $0x7,%ecx
  102a69:	83 e1 f8             	and    $0xfffffff8,%ecx
  102a6c:	48 01 cb             	add    %rcx,%rbx
  102a6f:	48 89 d9             	mov    %rbx,%rcx
  102a72:	48 29 c1             	sub    %rax,%rcx
  102a75:	4c 39 f9             	cmp    %r15,%rcx
  102a78:	73 3d                	jae    102ab7 <krnl_main+0xf7>
  102a7a:	8b 0b                	mov    (%rbx),%ecx
  102a7c:	83 f9 0f             	cmp    $0xf,%ecx
  102a7f:	74 df                	je     102a60 <krnl_main+0xa0>
  102a81:	83 f9 08             	cmp    $0x8,%ecx
  102a84:	75 dd                	jne    102a63 <krnl_main+0xa3>
  102a86:	48 8b 7b 08          	mov    0x8(%rbx),%rdi
  102a8a:	8b 73 14             	mov    0x14(%rbx),%esi
  102a8d:	8b 53 18             	mov    0x18(%rbx),%edx
  102a90:	0f b6 4b 1c          	movzbl 0x1c(%rbx),%ecx
  102a94:	44 8b 43 10          	mov    0x10(%rbx),%r8d
  102a98:	e8 a3 f0 ff ff       	call   101b40 <draw_setup>
  102a9d:	31 c0                	xor    %eax,%eax
  102a9f:	e8 3c 15 00 00       	call   103fe0 <page_flush>
  102aa4:	48 8b 05 e5 a5 00 00 	mov    0xa5e5(%rip),%rax        # 10d090 <m_info>
  102aab:	eb b6                	jmp    102a63 <krnl_main+0xa3>
  102aad:	bf 72 b9 10 00       	mov    $0x10b972,%edi
  102ab2:	e9 b9 ed ff ff       	jmp    101870 <dbgconout>
  102ab7:	49 83 c6 08          	add    $0x8,%r14
  102abb:	4c 89 f7             	mov    %r14,%rdi
  102abe:	e8 bd e6 ff ff       	call   101180 <acpiman_setup>
  102ac3:	31 c0                	xor    %eax,%eax
  102ac5:	e8 f6 ea ff ff       	call   1015c0 <apic_setup>
  102aca:	31 c0                	xor    %eax,%eax
  102acc:	e8 3f 23 00 00       	call   104e10 <timer_setup>
  102ad1:	31 c0                	xor    %eax,%eax
  102ad3:	e8 08 22 00 00       	call   104ce0 <pci_enum>
  102ad8:	31 c0                	xor    %eax,%eax
  102ada:	e8 41 f8 ff ff       	call   102320 <drivers_setup>
  102adf:	bf 8a b9 10 00       	mov    $0x10b98a,%edi
  102ae4:	e8 a7 f4 ff ff       	call   101f90 <draw_string>
  102ae9:	48 83 c4 08          	add    $0x8,%rsp
  102aed:	5b                   	pop    %rbx
  102aee:	41 5e                	pop    %r14
  102af0:	41 5f                	pop    %r15
  102af2:	5d                   	pop    %rbp
  102af3:	66 66 66 66 2e 0f 1f 	data16 data16 data16 cs nopw 0x0(%rax,%rax,1)
  102afa:	84 00 00 00 00 00 
  102b00:	eb fe                	jmp    102b00 <krnl_main+0x140>
  102b02:	66 2e 0f 1f 84 00 00 	cs nopw 0x0(%rax,%rax,1)
  102b09:	00 00 00 
  102b0c:	0f 1f 40 00          	nopl   0x0(%rax)

0000000000102b10 <nvme_setup_pci_dev>:
  102b10:	55                   	push   %rbp
  102b11:	48 89 e5             	mov    %rsp,%rbp
  102b14:	53                   	push   %rbx
  102b15:	50                   	push   %rax
  102b16:	48 89 fb             	mov    %rdi,%rbx
  102b19:	bf a5 b9 10 00       	mov    $0x10b9a5,%edi
  102b1e:	e8 4d ed ff ff       	call   101870 <dbgconout>
  102b23:	0f b6 7b 08          	movzbl 0x8(%rbx),%edi
  102b27:	e8 d4 eb ff ff       	call   101700 <dbgnumout_hex>
  102b2c:	0f b6 7b 09          	movzbl 0x9(%rbx),%edi
  102b30:	e8 cb eb ff ff       	call   101700 <dbgnumout_hex>
  102b35:	0f b6 7b 0a          	movzbl 0xa(%rbx),%edi
  102b39:	48 83 c4 08          	add    $0x8,%rsp
  102b3d:	5b                   	pop    %rbx
  102b3e:	5d                   	pop    %rbp
  102b3f:	e9 bc eb ff ff       	jmp    101700 <dbgnumout_hex>
  102b44:	66 66 66 2e 0f 1f 84 	data16 data16 cs nopw 0x0(%rax,%rax,1)
  102b4b:	00 00 00 00 00 

0000000000102b50 <nvme_setup>:
  102b50:	55                   	push   %rbp
  102b51:	48 89 e5             	mov    %rsp,%rbp
  102b54:	53                   	push   %rbx
  102b55:	50                   	push   %rax
  102b56:	31 ff                	xor    %edi,%edi
  102b58:	e8 93 19 00 00       	call   1044f0 <pci_get_next_dev_ent>
  102b5d:	48 85 c0             	test   %rax,%rax
  102b60:	74 5a                	je     102bbc <nvme_setup+0x6c>
  102b62:	48 89 c3             	mov    %rax,%rbx
  102b65:	eb 19                	jmp    102b80 <nvme_setup+0x30>
  102b67:	66 0f 1f 84 00 00 00 	nopw   0x0(%rax,%rax,1)
  102b6e:	00 00 
  102b70:	48 89 df             	mov    %rbx,%rdi
  102b73:	e8 78 19 00 00       	call   1044f0 <pci_get_next_dev_ent>
  102b78:	48 89 c3             	mov    %rax,%rbx
  102b7b:	48 85 c0             	test   %rax,%rax
  102b7e:	74 3c                	je     102bbc <nvme_setup+0x6c>
  102b80:	0f b6 7b 0b          	movzbl 0xb(%rbx),%edi
  102b84:	e8 77 eb ff ff       	call   101700 <dbgnumout_hex>
  102b89:	80 7b 0b 01          	cmpb   $0x1,0xb(%rbx)
  102b8d:	75 e1                	jne    102b70 <nvme_setup+0x20>
  102b8f:	80 7b 0c 08          	cmpb   $0x8,0xc(%rbx)
  102b93:	75 db                	jne    102b70 <nvme_setup+0x20>
  102b95:	bf a5 b9 10 00       	mov    $0x10b9a5,%edi
  102b9a:	e8 d1 ec ff ff       	call   101870 <dbgconout>
  102b9f:	0f b6 7b 08          	movzbl 0x8(%rbx),%edi
  102ba3:	e8 58 eb ff ff       	call   101700 <dbgnumout_hex>
  102ba8:	0f b6 7b 09          	movzbl 0x9(%rbx),%edi
  102bac:	e8 4f eb ff ff       	call   101700 <dbgnumout_hex>
  102bb1:	0f b6 7b 0a          	movzbl 0xa(%rbx),%edi
  102bb5:	e8 46 eb ff ff       	call   101700 <dbgnumout_hex>
  102bba:	eb b4                	jmp    102b70 <nvme_setup+0x20>
  102bbc:	48 83 c4 08          	add    $0x8,%rsp
  102bc0:	5b                   	pop    %rbx
  102bc1:	5d                   	pop    %rbp
  102bc2:	c3                   	ret
  102bc3:	66 2e 0f 1f 84 00 00 	cs nopw 0x0(%rax,%rax,1)
  102bca:	00 00 00 
  102bcd:	0f 1f 00             	nopl   (%rax)

0000000000102bd0 <liballoc_unlock>:
  102bd0:	55                   	push   %rbp
  102bd1:	48 89 e5             	mov    %rsp,%rbp
  102bd4:	b8 01 00 00 00       	mov    $0x1,%eax
  102bd9:	5d                   	pop    %rbp
  102bda:	c3                   	ret
  102bdb:	0f 1f 44 00 00       	nopl   0x0(%rax,%rax,1)

0000000000102be0 <liballoc_lock>:
  102be0:	55                   	push   %rbp
  102be1:	48 89 e5             	mov    %rsp,%rbp
  102be4:	b8 01 00 00 00       	mov    $0x1,%eax
  102be9:	5d                   	pop    %rbp
  102bea:	c3                   	ret
  102beb:	0f 1f 44 00 00       	nopl   0x0(%rax,%rax,1)

0000000000102bf0 <liballoc_alloc>:
  102bf0:	55                   	push   %rbp
  102bf1:	48 89 e5             	mov    %rsp,%rbp
  102bf4:	48 63 ff             	movslq %edi,%rdi
  102bf7:	5d                   	pop    %rbp
  102bf8:	e9 a3 11 00 00       	jmp    103da0 <page_find_and_alloc>
  102bfd:	0f 1f 00             	nopl   (%rax)

0000000000102c00 <liballoc_free>:
  102c00:	55                   	push   %rbp
  102c01:	48 89 e5             	mov    %rsp,%rbp
  102c04:	48 63 f6             	movslq %esi,%rsi
  102c07:	e8 e4 12 00 00       	call   103ef0 <page_free_found>
  102c0c:	31 c0                	xor    %eax,%eax
  102c0e:	5d                   	pop    %rbp
  102c0f:	c3                   	ret

0000000000102c10 <k_obj_alloc>:
  102c10:	55                   	push   %rbp
  102c11:	48 89 e5             	mov    %rsp,%rbp
  102c14:	41 57                	push   %r15
  102c16:	41 56                	push   %r14
  102c18:	41 55                	push   %r13
  102c1a:	41 54                	push   %r12
  102c1c:	53                   	push   %rbx
  102c1d:	48 83 ec 18          	sub    $0x18,%rsp
  102c21:	49 89 f9             	mov    %rdi,%r9
  102c24:	49 83 c1 20          	add    $0x20,%r9
  102c28:	75 12                	jne    102c3c <k_obj_alloc+0x2c>
  102c2a:	48 ff 05 67 a4 00 00 	incq   0xa467(%rip)        # 10d098 <l_warningCount>
  102c31:	41 b9 21 00 00 00    	mov    $0x21,%r9d
  102c37:	bf 01 00 00 00       	mov    $0x1,%edi
  102c3c:	48 8b 05 5d a4 00 00 	mov    0xa45d(%rip),%rax        # 10d0a0 <l_memRoot>
  102c43:	48 85 c0             	test   %rax,%rax
  102c46:	74 2a                	je     102c72 <k_obj_alloc+0x62>
  102c48:	48 8b 48 20          	mov    0x20(%rax),%rcx
  102c4c:	ba ef be ad de       	mov    $0xdeadbeef,%edx
  102c51:	48 89 50 20          	mov    %rdx,0x20(%rax)
  102c55:	48 39 d1             	cmp    %rdx,%rcx
  102c58:	0f 85 80 00 00 00    	jne    102cde <k_obj_alloc+0xce>
  102c5e:	bf b2 b9 10 00       	mov    $0x10b9b2,%edi
  102c63:	e8 08 ec ff ff       	call   101870 <dbgconout>
  102c68:	0f 1f 84 00 00 00 00 	nopl   0x0(%rax,%rax,1)
  102c6f:	00 
  102c70:	eb fe                	jmp    102c70 <k_obj_alloc+0x60>
  102c72:	49 89 ff             	mov    %rdi,%r15
  102c75:	4d 89 ce             	mov    %r9,%r14
  102c78:	41 8d 41 50          	lea    0x50(%r9),%eax
  102c7c:	89 c1                	mov    %eax,%ecx
  102c7e:	81 e1 ff ff 1f 00    	and    $0x1fffff,%ecx
  102c84:	c1 e8 15             	shr    $0x15,%eax
  102c87:	83 f9 01             	cmp    $0x1,%ecx
  102c8a:	83 d8 ff             	sbb    $0xffffffff,%eax
  102c8d:	83 f8 05             	cmp    $0x5,%eax
  102c90:	bb 04 00 00 00       	mov    $0x4,%ebx
  102c95:	0f 43 d8             	cmovae %eax,%ebx
  102c98:	48 89 df             	mov    %rbx,%rdi
  102c9b:	e8 00 11 00 00       	call   103da0 <page_find_and_alloc>
  102ca0:	48 85 c0             	test   %rax,%rax
  102ca3:	0f 84 47 02 00 00    	je     102ef0 <k_obj_alloc+0x2e0>
  102ca9:	0f 57 c0             	xorps  %xmm0,%xmm0
  102cac:	0f 11 00             	movups %xmm0,(%rax)
  102caf:	89 58 10             	mov    %ebx,0x10(%rax)
  102cb2:	c1 e3 15             	shl    $0x15,%ebx
  102cb5:	89 58 14             	mov    %ebx,0x14(%rax)
  102cb8:	c7 40 18 28 00 00 00 	movl   $0x28,0x18(%rax)
  102cbf:	48 01 1d 02 a4 00 00 	add    %rbx,0xa402(%rip)        # 10d0c8 <l_allocated>
  102cc6:	48 89 05 d3 a3 00 00 	mov    %rax,0xa3d3(%rip)        # 10d0a0 <l_memRoot>
  102ccd:	b9 ef be ad de       	mov    $0xdeadbeef,%ecx
  102cd2:	48 89 48 20          	mov    %rcx,0x20(%rax)
  102cd6:	31 c9                	xor    %ecx,%ecx
  102cd8:	4d 89 f1             	mov    %r14,%r9
  102cdb:	4c 89 ff             	mov    %r15,%rdi
  102cde:	48 89 48 20          	mov    %rcx,0x20(%rax)
  102ce2:	48 8b 0d bf a3 00 00 	mov    0xa3bf(%rip),%rcx        # 10d0a8 <l_bestBet>
  102ce9:	48 85 c9             	test   %rcx,%rcx
  102cec:	74 1c                	je     102d0a <k_obj_alloc+0xfa>
  102cee:	44 8b 61 14          	mov    0x14(%rcx),%r12d
  102cf2:	44 2b 61 18          	sub    0x18(%rcx),%r12d
  102cf6:	48 8d 57 48          	lea    0x48(%rdi),%rdx
  102cfa:	45 31 db             	xor    %r11d,%r11d
  102cfd:	4c 39 e2             	cmp    %r12,%rdx
  102d00:	41 0f 92 c3          	setb   %r11b
  102d04:	48 0f 42 c1          	cmovb  %rcx,%rax
  102d08:	eb 06                	jmp    102d10 <k_obj_alloc+0x100>
  102d0a:	45 31 e4             	xor    %r12d,%r12d
  102d0d:	45 31 db             	xor    %r11d,%r11d
  102d10:	4c 8d 77 48          	lea    0x48(%rdi),%r14
  102d14:	41 8d 49 50          	lea    0x50(%r9),%ecx
  102d18:	89 ca                	mov    %ecx,%edx
  102d1a:	81 e2 ff ff 1f 00    	and    $0x1fffff,%edx
  102d20:	c1 e9 15             	shr    $0x15,%ecx
  102d23:	83 fa 01             	cmp    $0x1,%edx
  102d26:	83 d9 ff             	sbb    $0xffffffff,%ecx
  102d29:	83 f9 05             	cmp    $0x5,%ecx
  102d2c:	41 bd 04 00 00 00    	mov    $0x4,%r13d
  102d32:	44 0f 43 e9          	cmovae %ecx,%r13d
  102d36:	44 89 e9             	mov    %r13d,%ecx
  102d39:	c1 e1 15             	shl    $0x15,%ecx
  102d3c:	48 89 4d d0          	mov    %rcx,-0x30(%rbp)
  102d40:	eb 1b                	jmp    102d5d <k_obj_alloc+0x14d>
  102d42:	66 66 66 66 66 2e 0f 	data16 data16 data16 data16 cs nopw 0x0(%rax,%rax,1)
  102d49:	1f 84 00 00 00 00 00 
  102d50:	49 8b 47 08          	mov    0x8(%r15),%rax
  102d54:	48 85 c0             	test   %rax,%rax
  102d57:	0f 84 08 01 00 00    	je     102e65 <k_obj_alloc+0x255>
  102d5d:	49 89 c7             	mov    %rax,%r15
  102d60:	8b 40 14             	mov    0x14(%rax),%eax
  102d63:	45 8b 47 18          	mov    0x18(%r15),%r8d
  102d67:	89 c1                	mov    %eax,%ecx
  102d69:	44 29 c1             	sub    %r8d,%ecx
  102d6c:	49 39 cc             	cmp    %rcx,%r12
  102d6f:	73 0a                	jae    102d7b <k_obj_alloc+0x16b>
  102d71:	4c 89 3d 30 a3 00 00 	mov    %r15,0xa330(%rip)        # 10d0a8 <l_bestBet>
  102d78:	49 89 cc             	mov    %rcx,%r12
  102d7b:	49 39 ce             	cmp    %rcx,%r14
  102d7e:	77 d0                	ja     102d50 <k_obj_alloc+0x140>
  102d80:	49 8b 5f 20          	mov    0x20(%r15),%rbx
  102d84:	48 85 db             	test   %rbx,%rbx
  102d87:	0f 84 35 02 00 00    	je     102fc2 <k_obj_alloc+0x3b2>
  102d8d:	48 89 d9             	mov    %rbx,%rcx
  102d90:	4c 29 f9             	sub    %r15,%rcx
  102d93:	48 83 c1 d8          	add    $0xffffffffffffffd8,%rcx
  102d97:	4c 39 f1             	cmp    %r14,%rcx
  102d9a:	0f 83 6a 01 00 00    	jae    102f0a <k_obj_alloc+0x2fa>
  102da0:	49 8d 4f d8          	lea    -0x28(%r15),%rcx
  102da4:	66 66 66 2e 0f 1f 84 	data16 data16 cs nopw 0x0(%rax,%rax,1)
  102dab:	00 00 00 00 00 
  102db0:	49 89 da             	mov    %rbx,%r10
  102db3:	48 8b 5b 08          	mov    0x8(%rbx),%rbx
  102db7:	48 85 db             	test   %rbx,%rbx
  102dba:	74 24                	je     102de0 <k_obj_alloc+0x1d0>
  102dbc:	41 8b 52 1c          	mov    0x1c(%r10),%edx
  102dc0:	4c 01 d2             	add    %r10,%rdx
  102dc3:	48 89 de             	mov    %rbx,%rsi
  102dc6:	48 29 d6             	sub    %rdx,%rsi
  102dc9:	48 83 c6 d8          	add    $0xffffffffffffffd8,%rsi
  102dcd:	4c 39 f6             	cmp    %r14,%rsi
  102dd0:	72 de                	jb     102db0 <k_obj_alloc+0x1a0>
  102dd2:	e9 b0 00 00 00       	jmp    102e87 <k_obj_alloc+0x277>
  102dd7:	66 0f 1f 84 00 00 00 	nopw   0x0(%rax,%rax,1)
  102dde:	00 00 
  102de0:	41 8b 52 1c          	mov    0x1c(%r10),%edx
  102de4:	48 01 c1             	add    %rax,%rcx
  102de7:	4c 01 d2             	add    %r10,%rdx
  102dea:	48 29 d1             	sub    %rdx,%rcx
  102ded:	4c 39 f1             	cmp    %r14,%rcx
  102df0:	0f 83 4b 01 00 00    	jae    102f41 <k_obj_alloc+0x331>
  102df6:	49 8b 47 08          	mov    0x8(%r15),%rax
  102dfa:	48 85 c0             	test   %rax,%rax
  102dfd:	0f 85 5a ff ff ff    	jne    102d5d <k_obj_alloc+0x14d>
  102e03:	41 83 fb 01          	cmp    $0x1,%r11d
  102e07:	74 66                	je     102e6f <k_obj_alloc+0x25f>
  102e09:	4c 89 5d c0          	mov    %r11,-0x40(%rbp)
  102e0d:	48 89 7d c8          	mov    %rdi,-0x38(%rbp)
  102e11:	4c 89 cb             	mov    %r9,%rbx
  102e14:	4c 89 ef             	mov    %r13,%rdi
  102e17:	e8 84 0f 00 00       	call   103da0 <page_find_and_alloc>
  102e1c:	48 85 c0             	test   %rax,%rax
  102e1f:	0f 84 10 02 00 00    	je     103035 <k_obj_alloc+0x425>
  102e25:	48 c7 40 08 00 00 00 	movq   $0x0,0x8(%rax)
  102e2c:	00 
  102e2d:	44 89 68 10          	mov    %r13d,0x10(%rax)
  102e31:	48 8b 4d d0          	mov    -0x30(%rbp),%rcx
  102e35:	89 48 14             	mov    %ecx,0x14(%rax)
  102e38:	c7 40 18 28 00 00 00 	movl   $0x28,0x18(%rax)
  102e3f:	48 c7 40 20 00 00 00 	movq   $0x0,0x20(%rax)
  102e46:	00 
  102e47:	48 01 0d 7a a2 00 00 	add    %rcx,0xa27a(%rip)        # 10d0c8 <l_allocated>
  102e4e:	49 89 47 08          	mov    %rax,0x8(%r15)
  102e52:	4c 89 38             	mov    %r15,(%rax)
  102e55:	49 89 d9             	mov    %rbx,%r9
  102e58:	48 8b 7d c8          	mov    -0x38(%rbp),%rdi
  102e5c:	4c 8b 5d c0          	mov    -0x40(%rbp),%r11
  102e60:	e9 f8 fe ff ff       	jmp    102d5d <k_obj_alloc+0x14d>
  102e65:	41 83 fb 01          	cmp    $0x1,%r11d
  102e69:	0f 85 fd 00 00 00    	jne    102f6c <k_obj_alloc+0x35c>
  102e6f:	48 8b 05 2a a2 00 00 	mov    0xa22a(%rip),%rax        # 10d0a0 <l_memRoot>
  102e76:	45 31 db             	xor    %r11d,%r11d
  102e79:	48 85 c0             	test   %rax,%rax
  102e7c:	0f 85 db fe ff ff    	jne    102d5d <k_obj_alloc+0x14d>
  102e82:	e9 9c 01 00 00       	jmp    103023 <k_obj_alloc+0x413>
  102e87:	48 8d 42 28          	lea    0x28(%rdx),%rax
  102e8b:	c7 42 40 de c0 01 c0 	movl   $0xc001c0de,0x40(%rdx)
  102e92:	48 89 5a 30          	mov    %rbx,0x30(%rdx)
  102e96:	4c 89 52 28          	mov    %r10,0x28(%rdx)
  102e9a:	44 89 4a 44          	mov    %r9d,0x44(%rdx)
  102e9e:	89 7a 48             	mov    %edi,0x48(%rdx)
  102ea1:	4c 89 7a 38          	mov    %r15,0x38(%rdx)
  102ea5:	49 8b 4a 08          	mov    0x8(%r10),%rcx
  102ea9:	48 89 01             	mov    %rax,(%rcx)
  102eac:	49 89 42 08          	mov    %rax,0x8(%r10)
  102eb0:	45 01 f0             	add    %r14d,%r8d
  102eb3:	45 89 47 18          	mov    %r8d,0x18(%r15)
  102eb7:	4c 01 0d f2 a1 00 00 	add    %r9,0xa1f2(%rip)        # 10d0b0 <l_inuse>
  102ebe:	48 8d 42 60          	lea    0x60(%rdx),%rax
  102ec2:	89 d1                	mov    %edx,%ecx
  102ec4:	83 e1 0f             	and    $0xf,%ecx
  102ec7:	48 83 c2 70          	add    $0x70,%rdx
  102ecb:	48 83 e2 f0          	and    $0xfffffffffffffff0,%rdx
  102ecf:	b3 20                	mov    $0x20,%bl
  102ed1:	28 cb                	sub    %cl,%bl
  102ed3:	48 85 c9             	test   %rcx,%rcx
  102ed6:	48 0f 44 d0          	cmove  %rax,%rdx
  102eda:	0f b6 c3             	movzbl %bl,%eax
  102edd:	b9 10 00 00 00       	mov    $0x10,%ecx
  102ee2:	0f 45 c8             	cmovne %eax,%ecx
  102ee5:	88 4a f0             	mov    %cl,-0x10(%rdx)
  102ee8:	49 89 d3             	mov    %rdx,%r11
  102eeb:	e9 33 01 00 00       	jmp    103023 <k_obj_alloc+0x413>
  102ef0:	48 ff 05 a1 a1 00 00 	incq   0xa1a1(%rip)        # 10d098 <l_warningCount>
  102ef7:	48 c7 05 9e a1 00 00 	movq   $0x0,0xa19e(%rip)        # 10d0a0 <l_memRoot>
  102efe:	00 00 00 00 
  102f02:	45 31 db             	xor    %r11d,%r11d
  102f05:	e9 19 01 00 00       	jmp    103023 <k_obj_alloc+0x413>
  102f0a:	49 8d 47 28          	lea    0x28(%r15),%rax
  102f0e:	48 89 03             	mov    %rax,(%rbx)
  102f11:	49 89 5f 30          	mov    %rbx,0x30(%r15)
  102f15:	49 89 47 20          	mov    %rax,0x20(%r15)
  102f19:	41 c7 47 40 de c0 01 	movl   $0xc001c0de,0x40(%r15)
  102f20:	c0 
  102f21:	49 c7 47 28 00 00 00 	movq   $0x0,0x28(%r15)
  102f28:	00 
  102f29:	4d 89 7f 38          	mov    %r15,0x38(%r15)
  102f2d:	45 89 4f 44          	mov    %r9d,0x44(%r15)
  102f31:	41 89 7f 48          	mov    %edi,0x48(%r15)
  102f35:	45 01 f0             	add    %r14d,%r8d
  102f38:	45 89 47 18          	mov    %r8d,0x18(%r15)
  102f3c:	e9 ac 00 00 00       	jmp    102fed <k_obj_alloc+0x3dd>
  102f41:	48 8d 42 28          	lea    0x28(%rdx),%rax
  102f45:	49 89 42 08          	mov    %rax,0x8(%r10)
  102f49:	4c 89 52 28          	mov    %r10,0x28(%rdx)
  102f4d:	48 c7 42 30 00 00 00 	movq   $0x0,0x30(%rdx)
  102f54:	00 
  102f55:	c7 42 40 de c0 01 c0 	movl   $0xc001c0de,0x40(%rdx)
  102f5c:	4c 89 7a 38          	mov    %r15,0x38(%rdx)
  102f60:	44 89 4a 44          	mov    %r9d,0x44(%rdx)
  102f64:	89 7a 48             	mov    %edi,0x48(%rdx)
  102f67:	e9 44 ff ff ff       	jmp    102eb0 <k_obj_alloc+0x2a0>
  102f6c:	49 89 fc             	mov    %rdi,%r12
  102f6f:	4c 89 cb             	mov    %r9,%rbx
  102f72:	4c 89 ef             	mov    %r13,%rdi
  102f75:	e8 26 0e 00 00       	call   103da0 <page_find_and_alloc>
  102f7a:	48 85 c0             	test   %rax,%rax
  102f7d:	0f 84 b2 00 00 00    	je     103035 <k_obj_alloc+0x425>
  102f83:	48 c7 40 08 00 00 00 	movq   $0x0,0x8(%rax)
  102f8a:	00 
  102f8b:	44 89 68 10          	mov    %r13d,0x10(%rax)
  102f8f:	48 8b 4d d0          	mov    -0x30(%rbp),%rcx
  102f93:	89 48 14             	mov    %ecx,0x14(%rax)
  102f96:	c7 40 18 28 00 00 00 	movl   $0x28,0x18(%rax)
  102f9d:	48 c7 40 20 00 00 00 	movq   $0x0,0x20(%rax)
  102fa4:	00 
  102fa5:	48 01 0d 1c a1 00 00 	add    %rcx,0xa11c(%rip)        # 10d0c8 <l_allocated>
  102fac:	49 89 47 08          	mov    %rax,0x8(%r15)
  102fb0:	4c 89 38             	mov    %r15,(%rax)
  102fb3:	41 b8 28 00 00 00    	mov    $0x28,%r8d
  102fb9:	49 89 c7             	mov    %rax,%r15
  102fbc:	49 89 d9             	mov    %rbx,%r9
  102fbf:	4c 89 e7             	mov    %r12,%rdi
  102fc2:	49 8d 47 28          	lea    0x28(%r15),%rax
  102fc6:	49 89 47 20          	mov    %rax,0x20(%r15)
  102fca:	41 c7 47 40 de c0 01 	movl   $0xc001c0de,0x40(%r15)
  102fd1:	c0 
  102fd2:	0f 57 c0             	xorps  %xmm0,%xmm0
  102fd5:	41 0f 11 47 28       	movups %xmm0,0x28(%r15)
  102fda:	4d 89 7f 38          	mov    %r15,0x38(%r15)
  102fde:	45 89 4f 44          	mov    %r9d,0x44(%r15)
  102fe2:	41 89 7f 48          	mov    %edi,0x48(%r15)
  102fe6:	45 01 c6             	add    %r8d,%r14d
  102fe9:	45 89 77 18          	mov    %r14d,0x18(%r15)
  102fed:	4c 01 0d bc a0 00 00 	add    %r9,0xa0bc(%rip)        # 10d0b0 <l_inuse>
  102ff4:	49 8d 47 60          	lea    0x60(%r15),%rax
  102ff8:	44 89 f9             	mov    %r15d,%ecx
  102ffb:	83 e1 0f             	and    $0xf,%ecx
  102ffe:	49 83 c7 70          	add    $0x70,%r15
  103002:	49 83 e7 f0          	and    $0xfffffffffffffff0,%r15
  103006:	b2 20                	mov    $0x20,%dl
  103008:	28 ca                	sub    %cl,%dl
  10300a:	48 85 c9             	test   %rcx,%rcx
  10300d:	4c 0f 44 f8          	cmove  %rax,%r15
  103011:	0f b6 c2             	movzbl %dl,%eax
  103014:	b9 10 00 00 00       	mov    $0x10,%ecx
  103019:	0f 45 c8             	cmovne %eax,%ecx
  10301c:	41 88 4f f0          	mov    %cl,-0x10(%r15)
  103020:	4d 89 fb             	mov    %r15,%r11
  103023:	4c 89 d8             	mov    %r11,%rax
  103026:	48 83 c4 18          	add    $0x18,%rsp
  10302a:	5b                   	pop    %rbx
  10302b:	41 5c                	pop    %r12
  10302d:	41 5d                	pop    %r13
  10302f:	41 5e                	pop    %r14
  103031:	41 5f                	pop    %r15
  103033:	5d                   	pop    %rbp
  103034:	c3                   	ret
  103035:	48 ff 05 5c a0 00 00 	incq   0xa05c(%rip)        # 10d098 <l_warningCount>
  10303c:	49 c7 47 08 00 00 00 	movq   $0x0,0x8(%r15)
  103043:	00 
  103044:	e9 b9 fe ff ff       	jmp    102f02 <k_obj_alloc+0x2f2>
  103049:	0f 1f 80 00 00 00 00 	nopl   0x0(%rax)

0000000000103050 <k_obj_free>:
  103050:	55                   	push   %rbp
  103051:	48 89 e5             	mov    %rsp,%rbp
  103054:	53                   	push   %rbx
  103055:	50                   	push   %rax
  103056:	48 85 ff             	test   %rdi,%rdi
  103059:	0f 84 93 00 00 00    	je     1030f2 <k_obj_free+0xa2>
  10305f:	48 0f be 47 f0       	movsbq -0x10(%rdi),%rax
  103064:	48 89 fb             	mov    %rdi,%rbx
  103067:	48 29 c3             	sub    %rax,%rbx
  10306a:	48 83 f8 20          	cmp    $0x20,%rax
  10306e:	48 0f 43 df          	cmovae %rdi,%rbx
  103072:	8b 43 f0             	mov    -0x10(%rbx),%eax
  103075:	3d de c0 01 c0       	cmp    $0xc001c0de,%eax
  10307a:	0f 85 80 00 00 00    	jne    103100 <k_obj_free+0xb0>
  103080:	48 8b 7b e8          	mov    -0x18(%rbx),%rdi
  103084:	8b 4b f4             	mov    -0xc(%rbx),%ecx
  103087:	48 29 0d 22 a0 00 00 	sub    %rcx,0xa022(%rip)        # 10d0b0 <l_inuse>
  10308e:	8b 47 18             	mov    0x18(%rdi),%eax
  103091:	29 c8                	sub    %ecx,%eax
  103093:	83 c0 d8             	add    $0xffffffd8,%eax
  103096:	89 47 18             	mov    %eax,0x18(%rdi)
  103099:	c7 43 f0 ad de ad de 	movl   $0xdeaddead,-0x10(%rbx)
  1030a0:	48 8b 4b e0          	mov    -0x20(%rbx),%rcx
  1030a4:	48 85 c9             	test   %rcx,%rcx
  1030a7:	74 07                	je     1030b0 <k_obj_free+0x60>
  1030a9:	48 8b 53 d8          	mov    -0x28(%rbx),%rdx
  1030ad:	48 89 11             	mov    %rdx,(%rcx)
  1030b0:	48 8b 53 d8          	mov    -0x28(%rbx),%rdx
  1030b4:	48 85 d2             	test   %rdx,%rdx
  1030b7:	0f 84 8e 00 00 00    	je     10314b <k_obj_free+0xfb>
  1030bd:	48 89 4a 08          	mov    %rcx,0x8(%rdx)
  1030c1:	48 8b 4f 20          	mov    0x20(%rdi),%rcx
  1030c5:	48 85 c9             	test   %rcx,%rcx
  1030c8:	0f 84 8a 00 00 00    	je     103158 <k_obj_free+0x108>
  1030ce:	48 8b 0d d3 9f 00 00 	mov    0x9fd3(%rip),%rcx        # 10d0a8 <l_bestBet>
  1030d5:	48 85 c9             	test   %rcx,%rcx
  1030d8:	74 1f                	je     1030f9 <k_obj_free+0xa9>
  1030da:	8b 51 14             	mov    0x14(%rcx),%edx
  1030dd:	2b 51 18             	sub    0x18(%rcx),%edx
  1030e0:	8b 4f 14             	mov    0x14(%rdi),%ecx
  1030e3:	29 c1                	sub    %eax,%ecx
  1030e5:	39 d1                	cmp    %edx,%ecx
  1030e7:	7e 10                	jle    1030f9 <k_obj_free+0xa9>
  1030e9:	48 89 3d b8 9f 00 00 	mov    %rdi,0x9fb8(%rip)        # 10d0a8 <l_bestBet>
  1030f0:	eb 07                	jmp    1030f9 <k_obj_free+0xa9>
  1030f2:	48 ff 05 9f 9f 00 00 	incq   0x9f9f(%rip)        # 10d098 <l_warningCount>
  1030f9:	48 83 c4 08          	add    $0x8,%rsp
  1030fd:	5b                   	pop    %rbx
  1030fe:	5d                   	pop    %rbp
  1030ff:	c3                   	ret
  103100:	48 ff 05 b1 9f 00 00 	incq   0x9fb1(%rip)        # 10d0b8 <l_errorCount>
  103107:	89 c1                	mov    %eax,%ecx
  103109:	81 e1 ff ff ff 00    	and    $0xffffff,%ecx
  10310f:	81 f9 de c0 01 00    	cmp    $0x1c0de,%ecx
  103115:	74 15                	je     10312c <k_obj_free+0xdc>
  103117:	0f b7 c8             	movzwl %ax,%ecx
  10311a:	81 f9 de c0 00 00    	cmp    $0xc0de,%ecx
  103120:	74 0a                	je     10312c <k_obj_free+0xdc>
  103122:	0f b6 c0             	movzbl %al,%eax
  103125:	3d de 00 00 00       	cmp    $0xde,%eax
  10312a:	75 07                	jne    103133 <k_obj_free+0xe3>
  10312c:	48 ff 05 8d 9f 00 00 	incq   0x9f8d(%rip)        # 10d0c0 <l_possibleOverruns>
  103133:	bf c8 b9 10 00       	mov    $0x10b9c8,%edi
  103138:	e8 33 e7 ff ff       	call   101870 <dbgconout>
  10313d:	8b 7b f0             	mov    -0x10(%rbx),%edi
  103140:	48 83 c4 08          	add    $0x8,%rsp
  103144:	5b                   	pop    %rbx
  103145:	5d                   	pop    %rbp
  103146:	e9 b5 e5 ff ff       	jmp    101700 <dbgnumout_hex>
  10314b:	48 89 4f 20          	mov    %rcx,0x20(%rdi)
  10314f:	48 85 c9             	test   %rcx,%rcx
  103152:	0f 85 76 ff ff ff    	jne    1030ce <k_obj_free+0x7e>
  103158:	48 39 3d 41 9f 00 00 	cmp    %rdi,0x9f41(%rip)        # 10d0a0 <l_memRoot>
  10315f:	75 0b                	jne    10316c <k_obj_free+0x11c>
  103161:	48 8b 47 08          	mov    0x8(%rdi),%rax
  103165:	48 89 05 34 9f 00 00 	mov    %rax,0x9f34(%rip)        # 10d0a0 <l_memRoot>
  10316c:	48 39 3d 35 9f 00 00 	cmp    %rdi,0x9f35(%rip)        # 10d0a8 <l_bestBet>
  103173:	75 0b                	jne    103180 <k_obj_free+0x130>
  103175:	48 c7 05 28 9f 00 00 	movq   $0x0,0x9f28(%rip)        # 10d0a8 <l_bestBet>
  10317c:	00 00 00 00 
  103180:	48 8b 07             	mov    (%rdi),%rax
  103183:	48 85 c0             	test   %rax,%rax
  103186:	74 08                	je     103190 <k_obj_free+0x140>
  103188:	48 8b 4f 08          	mov    0x8(%rdi),%rcx
  10318c:	48 89 48 08          	mov    %rcx,0x8(%rax)
  103190:	48 8b 4f 08          	mov    0x8(%rdi),%rcx
  103194:	48 85 c9             	test   %rcx,%rcx
  103197:	74 03                	je     10319c <k_obj_free+0x14c>
  103199:	48 89 01             	mov    %rax,(%rcx)
  10319c:	8b 47 14             	mov    0x14(%rdi),%eax
  10319f:	48 29 05 22 9f 00 00 	sub    %rax,0x9f22(%rip)        # 10d0c8 <l_allocated>
  1031a6:	48 63 77 10          	movslq 0x10(%rdi),%rsi
  1031aa:	48 83 c4 08          	add    $0x8,%rsp
  1031ae:	5b                   	pop    %rbx
  1031af:	5d                   	pop    %rbp
  1031b0:	e9 3b 0d 00 00       	jmp    103ef0 <page_free_found>
  1031b5:	66 66 2e 0f 1f 84 00 	data16 cs nopw 0x0(%rax,%rax,1)
  1031bc:	00 00 00 00 

00000000001031c0 <k_obj_calloc>:
  1031c0:	55                   	push   %rbp
  1031c1:	48 89 e5             	mov    %rsp,%rbp
  1031c4:	41 56                	push   %r14
  1031c6:	53                   	push   %rbx
  1031c7:	48 0f af fe          	imul   %rsi,%rdi
  1031cb:	48 63 df             	movslq %edi,%rbx
  1031ce:	49 89 fe             	mov    %rdi,%r14
  1031d1:	49 c1 e6 20          	shl    $0x20,%r14
  1031d5:	48 89 df             	mov    %rbx,%rdi
  1031d8:	e8 33 fa ff ff       	call   102c10 <k_obj_alloc>
  1031dd:	4d 85 f6             	test   %r14,%r14
  1031e0:	74 19                	je     1031fb <k_obj_calloc+0x3b>
  1031e2:	31 c9                	xor    %ecx,%ecx
  1031e4:	66 66 66 2e 0f 1f 84 	data16 data16 cs nopw 0x0(%rax,%rax,1)
  1031eb:	00 00 00 00 00 
  1031f0:	c6 04 08 00          	movb   $0x0,(%rax,%rcx,1)
  1031f4:	ff c1                	inc    %ecx
  1031f6:	48 39 d9             	cmp    %rbx,%rcx
  1031f9:	72 f5                	jb     1031f0 <k_obj_calloc+0x30>
  1031fb:	5b                   	pop    %rbx
  1031fc:	41 5e                	pop    %r14
  1031fe:	5d                   	pop    %rbp
  1031ff:	c3                   	ret

0000000000103200 <k_obj_realloc>:
  103200:	55                   	push   %rbp
  103201:	48 89 e5             	mov    %rsp,%rbp
  103204:	41 57                	push   %r15
  103206:	41 56                	push   %r14
  103208:	41 54                	push   %r12
  10320a:	53                   	push   %rbx
  10320b:	49 89 ff             	mov    %rdi,%r15
  10320e:	48 85 f6             	test   %rsi,%rsi
  103211:	0f 84 d3 00 00 00    	je     1032ea <k_obj_realloc+0xea>
  103217:	4d 85 ff             	test   %r15,%r15
  10321a:	0f 84 d4 00 00 00    	je     1032f4 <k_obj_realloc+0xf4>
  103220:	49 0f be 47 f0       	movsbq -0x10(%r15),%rax
  103225:	4c 89 f9             	mov    %r15,%rcx
  103228:	48 29 c1             	sub    %rax,%rcx
  10322b:	48 83 f8 20          	cmp    $0x20,%rax
  10322f:	49 0f 43 cf          	cmovae %r15,%rcx
  103233:	8b 41 f0             	mov    -0x10(%rcx),%eax
  103236:	3d de c0 01 c0       	cmp    $0xc001c0de,%eax
  10323b:	0f 85 c3 00 00 00    	jne    103304 <k_obj_realloc+0x104>
  103241:	44 8b 61 f8          	mov    -0x8(%rcx),%r12d
  103245:	49 39 f4             	cmp    %rsi,%r12
  103248:	0f 83 f8 00 00 00    	jae    103346 <k_obj_realloc+0x146>
  10324e:	48 89 f7             	mov    %rsi,%rdi
  103251:	e8 ba f9 ff ff       	call   102c10 <k_obj_alloc>
  103256:	49 89 c6             	mov    %rax,%r14
  103259:	41 83 fc 04          	cmp    $0x4,%r12d
  10325d:	0f 82 eb 00 00 00    	jb     10334e <k_obj_realloc+0x14e>
  103263:	49 8d 54 24 fc       	lea    -0x4(%r12),%rdx
  103268:	48 83 fa 1c          	cmp    $0x1c,%rdx
  10326c:	0f 82 e4 00 00 00    	jb     103356 <k_obj_realloc+0x156>
  103272:	4c 89 f0             	mov    %r14,%rax
  103275:	4c 29 f8             	sub    %r15,%rax
  103278:	48 83 f8 20          	cmp    $0x20,%rax
  10327c:	0f 82 d4 00 00 00    	jb     103356 <k_obj_realloc+0x156>
  103282:	48 c1 ea 02          	shr    $0x2,%rdx
  103286:	48 ff c2             	inc    %rdx
  103289:	48 89 d6             	mov    %rdx,%rsi
  10328c:	48 83 e6 f8          	and    $0xfffffffffffffff8,%rsi
  103290:	48 8d 4e f8          	lea    -0x8(%rsi),%rcx
  103294:	48 89 c8             	mov    %rcx,%rax
  103297:	48 c1 e8 03          	shr    $0x3,%rax
  10329b:	48 ff c0             	inc    %rax
  10329e:	48 85 c9             	test   %rcx,%rcx
  1032a1:	0f 84 b7 00 00 00    	je     10335e <k_obj_realloc+0x15e>
  1032a7:	48 89 c7             	mov    %rax,%rdi
  1032aa:	48 83 e7 fe          	and    $0xfffffffffffffffe,%rdi
  1032ae:	31 c9                	xor    %ecx,%ecx
  1032b0:	41 0f 10 04 8f       	movups (%r15,%rcx,4),%xmm0
  1032b5:	41 0f 10 4c 8f 10    	movups 0x10(%r15,%rcx,4),%xmm1
  1032bb:	41 0f 11 04 8e       	movups %xmm0,(%r14,%rcx,4)
  1032c0:	41 0f 11 4c 8e 10    	movups %xmm1,0x10(%r14,%rcx,4)
  1032c6:	41 0f 10 44 8f 20    	movups 0x20(%r15,%rcx,4),%xmm0
  1032cc:	41 0f 10 4c 8f 30    	movups 0x30(%r15,%rcx,4),%xmm1
  1032d2:	41 0f 11 44 8e 20    	movups %xmm0,0x20(%r14,%rcx,4)
  1032d8:	41 0f 11 4c 8e 30    	movups %xmm1,0x30(%r14,%rcx,4)
  1032de:	48 83 c1 10          	add    $0x10,%rcx
  1032e2:	48 83 c7 fe          	add    $0xfffffffffffffffe,%rdi
  1032e6:	75 c8                	jne    1032b0 <k_obj_realloc+0xb0>
  1032e8:	eb 76                	jmp    103360 <k_obj_realloc+0x160>
  1032ea:	4c 89 ff             	mov    %r15,%rdi
  1032ed:	e8 5e fd ff ff       	call   103050 <k_obj_free>
  1032f2:	eb 43                	jmp    103337 <k_obj_realloc+0x137>
  1032f4:	48 89 f7             	mov    %rsi,%rdi
  1032f7:	5b                   	pop    %rbx
  1032f8:	41 5c                	pop    %r12
  1032fa:	41 5e                	pop    %r14
  1032fc:	41 5f                	pop    %r15
  1032fe:	5d                   	pop    %rbp
  1032ff:	e9 0c f9 ff ff       	jmp    102c10 <k_obj_alloc>
  103304:	48 ff 05 ad 9d 00 00 	incq   0x9dad(%rip)        # 10d0b8 <l_errorCount>
  10330b:	89 c1                	mov    %eax,%ecx
  10330d:	81 e1 ff ff ff 00    	and    $0xffffff,%ecx
  103313:	81 f9 de c0 01 00    	cmp    $0x1c0de,%ecx
  103319:	74 15                	je     103330 <k_obj_realloc+0x130>
  10331b:	0f b7 c8             	movzwl %ax,%ecx
  10331e:	81 f9 de c0 00 00    	cmp    $0xc0de,%ecx
  103324:	74 0a                	je     103330 <k_obj_realloc+0x130>
  103326:	0f b6 c0             	movzbl %al,%eax
  103329:	3d de 00 00 00       	cmp    $0xde,%eax
  10332e:	75 07                	jne    103337 <k_obj_realloc+0x137>
  103330:	48 ff 05 89 9d 00 00 	incq   0x9d89(%rip)        # 10d0c0 <l_possibleOverruns>
  103337:	45 31 f6             	xor    %r14d,%r14d
  10333a:	4c 89 f0             	mov    %r14,%rax
  10333d:	5b                   	pop    %rbx
  10333e:	41 5c                	pop    %r12
  103340:	41 5e                	pop    %r14
  103342:	41 5f                	pop    %r15
  103344:	5d                   	pop    %rbp
  103345:	c3                   	ret
  103346:	89 71 f8             	mov    %esi,-0x8(%rcx)
  103349:	4d 89 fe             	mov    %r15,%r14
  10334c:	eb ec                	jmp    10333a <k_obj_realloc+0x13a>
  10334e:	4c 89 f0             	mov    %r14,%rax
  103351:	4c 89 f9             	mov    %r15,%rcx
  103354:	eb 60                	jmp    1033b6 <k_obj_realloc+0x1b6>
  103356:	4c 89 f9             	mov    %r15,%rcx
  103359:	4c 89 f0             	mov    %r14,%rax
  10335c:	eb 42                	jmp    1033a0 <k_obj_realloc+0x1a0>
  10335e:	31 c9                	xor    %ecx,%ecx
  103360:	48 8d 3c b5 00 00 00 	lea    0x0(,%rsi,4),%rdi
  103367:	00 
  103368:	a8 01                	test   $0x1,%al
  10336a:	74 16                	je     103382 <k_obj_realloc+0x182>
  10336c:	41 0f 10 04 8f       	movups (%r15,%rcx,4),%xmm0
  103371:	41 0f 10 4c 8f 10    	movups 0x10(%r15,%rcx,4),%xmm1
  103377:	41 0f 11 04 8e       	movups %xmm0,(%r14,%rcx,4)
  10337c:	41 0f 11 4c 8e 10    	movups %xmm1,0x10(%r14,%rcx,4)
  103382:	49 8d 0c b7          	lea    (%r15,%rsi,4),%rcx
  103386:	49 8d 04 b6          	lea    (%r14,%rsi,4),%rax
  10338a:	49 29 fc             	sub    %rdi,%r12
  10338d:	48 39 f2             	cmp    %rsi,%rdx
  103390:	74 24                	je     1033b6 <k_obj_realloc+0x1b6>
  103392:	66 66 66 66 66 2e 0f 	data16 data16 data16 data16 cs nopw 0x0(%rax,%rax,1)
  103399:	1f 84 00 00 00 00 00 
  1033a0:	8b 11                	mov    (%rcx),%edx
  1033a2:	48 83 c1 04          	add    $0x4,%rcx
  1033a6:	89 10                	mov    %edx,(%rax)
  1033a8:	48 83 c0 04          	add    $0x4,%rax
  1033ac:	49 83 c4 fc          	add    $0xfffffffffffffffc,%r12
  1033b0:	49 83 fc 03          	cmp    $0x3,%r12
  1033b4:	77 ea                	ja     1033a0 <k_obj_realloc+0x1a0>
  1033b6:	4d 85 e4             	test   %r12,%r12
  1033b9:	0f 84 e0 01 00 00    	je     10359f <k_obj_realloc+0x39f>
  1033bf:	49 83 fc 08          	cmp    $0x8,%r12
  1033c3:	0f 82 4c 01 00 00    	jb     103515 <k_obj_realloc+0x315>
  1033c9:	48 89 c2             	mov    %rax,%rdx
  1033cc:	48 29 ca             	sub    %rcx,%rdx
  1033cf:	48 83 fa 20          	cmp    $0x20,%rdx
  1033d3:	0f 82 3c 01 00 00    	jb     103515 <k_obj_realloc+0x315>
  1033d9:	49 83 fc 20          	cmp    $0x20,%r12
  1033dd:	73 07                	jae    1033e6 <k_obj_realloc+0x1e6>
  1033df:	31 d2                	xor    %edx,%edx
  1033e1:	e9 e6 00 00 00       	jmp    1034cc <k_obj_realloc+0x2cc>
  1033e6:	4c 89 e2             	mov    %r12,%rdx
  1033e9:	48 83 e2 e0          	and    $0xffffffffffffffe0,%rdx
  1033ed:	48 8d 72 e0          	lea    -0x20(%rdx),%rsi
  1033f1:	48 89 f7             	mov    %rsi,%rdi
  1033f4:	48 c1 ef 05          	shr    $0x5,%rdi
  1033f8:	48 ff c7             	inc    %rdi
  1033fb:	41 89 f8             	mov    %edi,%r8d
  1033fe:	41 83 e0 03          	and    $0x3,%r8d
  103402:	48 83 fe 60          	cmp    $0x60,%rsi
  103406:	73 04                	jae    10340c <k_obj_realloc+0x20c>
  103408:	31 f6                	xor    %esi,%esi
  10340a:	eb 6c                	jmp    103478 <k_obj_realloc+0x278>
  10340c:	48 83 e7 fc          	and    $0xfffffffffffffffc,%rdi
  103410:	31 f6                	xor    %esi,%esi
  103412:	66 66 66 66 66 2e 0f 	data16 data16 data16 data16 cs nopw 0x0(%rax,%rax,1)
  103419:	1f 84 00 00 00 00 00 
  103420:	0f 10 04 31          	movups (%rcx,%rsi,1),%xmm0
  103424:	0f 10 4c 31 10       	movups 0x10(%rcx,%rsi,1),%xmm1
  103429:	0f 11 04 30          	movups %xmm0,(%rax,%rsi,1)
  10342d:	0f 11 4c 30 10       	movups %xmm1,0x10(%rax,%rsi,1)
  103432:	0f 10 44 31 20       	movups 0x20(%rcx,%rsi,1),%xmm0
  103437:	0f 10 4c 31 30       	movups 0x30(%rcx,%rsi,1),%xmm1
  10343c:	0f 11 44 30 20       	movups %xmm0,0x20(%rax,%rsi,1)
  103441:	0f 11 4c 30 30       	movups %xmm1,0x30(%rax,%rsi,1)
  103446:	0f 10 44 31 40       	movups 0x40(%rcx,%rsi,1),%xmm0
  10344b:	0f 10 4c 31 50       	movups 0x50(%rcx,%rsi,1),%xmm1
  103450:	0f 11 44 30 40       	movups %xmm0,0x40(%rax,%rsi,1)
  103455:	0f 11 4c 30 50       	movups %xmm1,0x50(%rax,%rsi,1)
  10345a:	0f 10 44 31 60       	movups 0x60(%rcx,%rsi,1),%xmm0
  10345f:	0f 10 4c 31 70       	movups 0x70(%rcx,%rsi,1),%xmm1
  103464:	0f 11 44 30 60       	movups %xmm0,0x60(%rax,%rsi,1)
  103469:	0f 11 4c 30 70       	movups %xmm1,0x70(%rax,%rsi,1)
  10346e:	48 83 ee 80          	sub    $0xffffffffffffff80,%rsi
  103472:	48 83 c7 fc          	add    $0xfffffffffffffffc,%rdi
  103476:	75 a8                	jne    103420 <k_obj_realloc+0x220>
  103478:	4d 85 c0             	test   %r8,%r8
  10347b:	74 40                	je     1034bd <k_obj_realloc+0x2bd>
  10347d:	4c 8d 0c 30          	lea    (%rax,%rsi,1),%r9
  103481:	49 83 c1 10          	add    $0x10,%r9
  103485:	48 01 ce             	add    %rcx,%rsi
  103488:	48 83 c6 10          	add    $0x10,%rsi
  10348c:	49 c1 e0 05          	shl    $0x5,%r8
  103490:	31 ff                	xor    %edi,%edi
  103492:	66 66 66 66 66 2e 0f 	data16 data16 data16 data16 cs nopw 0x0(%rax,%rax,1)
  103499:	1f 84 00 00 00 00 00 
  1034a0:	0f 10 44 3e f0       	movups -0x10(%rsi,%rdi,1),%xmm0
  1034a5:	0f 10 0c 3e          	movups (%rsi,%rdi,1),%xmm1
  1034a9:	41 0f 11 44 39 f0    	movups %xmm0,-0x10(%r9,%rdi,1)
  1034af:	41 0f 11 0c 39       	movups %xmm1,(%r9,%rdi,1)
  1034b4:	48 83 c7 20          	add    $0x20,%rdi
  1034b8:	49 39 f8             	cmp    %rdi,%r8
  1034bb:	75 e3                	jne    1034a0 <k_obj_realloc+0x2a0>
  1034bd:	49 39 d4             	cmp    %rdx,%r12
  1034c0:	0f 84 d9 00 00 00    	je     10359f <k_obj_realloc+0x39f>
  1034c6:	41 f6 c4 18          	test   $0x18,%r12b
  1034ca:	74 3f                	je     10350b <k_obj_realloc+0x30b>
  1034cc:	4d 89 e1             	mov    %r12,%r9
  1034cf:	49 83 e1 f8          	and    $0xfffffffffffffff8,%r9
  1034d3:	4a 8d 34 09          	lea    (%rcx,%r9,1),%rsi
  1034d7:	4a 8d 3c 08          	lea    (%rax,%r9,1),%rdi
  1034db:	45 89 e0             	mov    %r12d,%r8d
  1034de:	41 83 e0 07          	and    $0x7,%r8d
  1034e2:	66 66 66 66 66 2e 0f 	data16 data16 data16 data16 cs nopw 0x0(%rax,%rax,1)
  1034e9:	1f 84 00 00 00 00 00 
  1034f0:	48 8b 1c 11          	mov    (%rcx,%rdx,1),%rbx
  1034f4:	48 89 1c 10          	mov    %rbx,(%rax,%rdx,1)
  1034f8:	48 83 c2 08          	add    $0x8,%rdx
  1034fc:	49 39 d1             	cmp    %rdx,%r9
  1034ff:	75 ef                	jne    1034f0 <k_obj_realloc+0x2f0>
  103501:	4d 39 cc             	cmp    %r9,%r12
  103504:	75 18                	jne    10351e <k_obj_realloc+0x31e>
  103506:	e9 94 00 00 00       	jmp    10359f <k_obj_realloc+0x39f>
  10350b:	41 83 e4 1f          	and    $0x1f,%r12d
  10350f:	48 01 d0             	add    %rdx,%rax
  103512:	48 01 d1             	add    %rdx,%rcx
  103515:	48 89 ce             	mov    %rcx,%rsi
  103518:	48 89 c7             	mov    %rax,%rdi
  10351b:	4d 89 e0             	mov    %r12,%r8
  10351e:	49 8d 40 ff          	lea    -0x1(%r8),%rax
  103522:	4c 89 c2             	mov    %r8,%rdx
  103525:	48 83 e2 07          	and    $0x7,%rdx
  103529:	74 1d                	je     103548 <k_obj_realloc+0x348>
  10352b:	31 c9                	xor    %ecx,%ecx
  10352d:	0f 1f 00             	nopl   (%rax)
  103530:	0f b6 1c 0e          	movzbl (%rsi,%rcx,1),%ebx
  103534:	88 1c 0f             	mov    %bl,(%rdi,%rcx,1)
  103537:	48 ff c1             	inc    %rcx
  10353a:	48 39 ca             	cmp    %rcx,%rdx
  10353d:	75 f1                	jne    103530 <k_obj_realloc+0x330>
  10353f:	48 01 ce             	add    %rcx,%rsi
  103542:	48 01 cf             	add    %rcx,%rdi
  103545:	49 29 c8             	sub    %rcx,%r8
  103548:	48 83 f8 07          	cmp    $0x7,%rax
  10354c:	72 51                	jb     10359f <k_obj_realloc+0x39f>
  10354e:	31 c0                	xor    %eax,%eax
  103550:	0f b6 0c 06          	movzbl (%rsi,%rax,1),%ecx
  103554:	88 0c 07             	mov    %cl,(%rdi,%rax,1)
  103557:	0f b6 4c 06 01       	movzbl 0x1(%rsi,%rax,1),%ecx
  10355c:	88 4c 07 01          	mov    %cl,0x1(%rdi,%rax,1)
  103560:	0f b6 4c 06 02       	movzbl 0x2(%rsi,%rax,1),%ecx
  103565:	88 4c 07 02          	mov    %cl,0x2(%rdi,%rax,1)
  103569:	0f b6 4c 06 03       	movzbl 0x3(%rsi,%rax,1),%ecx
  10356e:	88 4c 07 03          	mov    %cl,0x3(%rdi,%rax,1)
  103572:	0f b6 4c 06 04       	movzbl 0x4(%rsi,%rax,1),%ecx
  103577:	88 4c 07 04          	mov    %cl,0x4(%rdi,%rax,1)
  10357b:	0f b6 4c 06 05       	movzbl 0x5(%rsi,%rax,1),%ecx
  103580:	88 4c 07 05          	mov    %cl,0x5(%rdi,%rax,1)
  103584:	0f b6 4c 06 06       	movzbl 0x6(%rsi,%rax,1),%ecx
  103589:	88 4c 07 06          	mov    %cl,0x6(%rdi,%rax,1)
  10358d:	0f b6 4c 06 07       	movzbl 0x7(%rsi,%rax,1),%ecx
  103592:	88 4c 07 07          	mov    %cl,0x7(%rdi,%rax,1)
  103596:	48 83 c0 08          	add    $0x8,%rax
  10359a:	49 39 c0             	cmp    %rax,%r8
  10359d:	75 b1                	jne    103550 <k_obj_realloc+0x350>
  10359f:	4c 89 ff             	mov    %r15,%rdi
  1035a2:	e8 a9 fa ff ff       	call   103050 <k_obj_free>
  1035a7:	e9 8e fd ff ff       	jmp    10333a <k_obj_realloc+0x13a>
  1035ac:	0f 1f 40 00          	nopl   0x0(%rax)

00000000001035b0 <page_init_map>:
  1035b0:	55                   	push   %rbp
  1035b1:	48 89 e5             	mov    %rsp,%rbp
  1035b4:	31 c0                	xor    %eax,%eax
  1035b6:	0f 57 c0             	xorps  %xmm0,%xmm0
  1035b9:	0f 1f 80 00 00 00 00 	nopl   0x0(%rax)
  1035c0:	0f 29 80 00 e0 10 00 	movaps %xmm0,0x10e000(%rax)
  1035c7:	0f 29 80 10 e0 10 00 	movaps %xmm0,0x10e010(%rax)
  1035ce:	0f 29 80 20 e0 10 00 	movaps %xmm0,0x10e020(%rax)
  1035d5:	0f 29 80 30 e0 10 00 	movaps %xmm0,0x10e030(%rax)
  1035dc:	0f 29 80 40 e0 10 00 	movaps %xmm0,0x10e040(%rax)
  1035e3:	0f 29 80 50 e0 10 00 	movaps %xmm0,0x10e050(%rax)
  1035ea:	0f 29 80 60 e0 10 00 	movaps %xmm0,0x10e060(%rax)
  1035f1:	0f 29 80 70 e0 10 00 	movaps %xmm0,0x10e070(%rax)
  1035f8:	48 83 e8 80          	sub    $0xffffffffffffff80,%rax
  1035fc:	48 3d 00 00 00 01    	cmp    $0x1000000,%rax
  103602:	75 bc                	jne    1035c0 <page_init_map+0x10>
  103604:	48 c7 c0 00 f0 ff ff 	mov    $0xfffffffffffff000,%rax
  10360b:	0f 57 c0             	xorps  %xmm0,%xmm0
  10360e:	66 90                	xchg   %ax,%ax
  103610:	0f 29 80 00 f0 10 01 	movaps %xmm0,0x110f000(%rax)
  103617:	0f 29 80 10 f0 10 01 	movaps %xmm0,0x110f010(%rax)
  10361e:	0f 29 80 20 f0 10 01 	movaps %xmm0,0x110f020(%rax)
  103625:	0f 29 80 30 f0 10 01 	movaps %xmm0,0x110f030(%rax)
  10362c:	0f 29 80 40 f0 10 01 	movaps %xmm0,0x110f040(%rax)
  103633:	0f 29 80 50 f0 10 01 	movaps %xmm0,0x110f050(%rax)
  10363a:	0f 29 80 60 f0 10 01 	movaps %xmm0,0x110f060(%rax)
  103641:	0f 29 80 70 f0 10 01 	movaps %xmm0,0x110f070(%rax)
  103648:	48 83 e8 80          	sub    $0xffffffffffffff80,%rax
  10364c:	75 c2                	jne    103610 <page_init_map+0x60>
  10364e:	5d                   	pop    %rbp
  10364f:	c3                   	ret

0000000000103650 <page_lookup_paddr>:
  103650:	55                   	push   %rbp
  103651:	48 89 e5             	mov    %rsp,%rbp
  103654:	53                   	push   %rbx
  103655:	50                   	push   %rax
  103656:	48 89 fb             	mov    %rdi,%rbx
  103659:	48 89 f8             	mov    %rdi,%rax
  10365c:	48 c1 e8 24          	shr    $0x24,%rax
  103660:	25 f8 0f 00 00       	and    $0xff8,%eax
  103665:	8b 88 00 e0 10 01    	mov    0x110e000(%rax),%ecx
  10366b:	0f b6 90 04 e0 10 01 	movzbl 0x110e004(%rax),%edx
  103672:	48 c1 e2 20          	shl    $0x20,%rdx
  103676:	48 09 ca             	or     %rcx,%rdx
  103679:	48 c1 ea 0c          	shr    $0xc,%rdx
  10367d:	0f b6 80 05 e0 10 01 	movzbl 0x110e005(%rax),%eax
  103684:	c1 e0 1c             	shl    $0x1c,%eax
  103687:	48 98                	cltq
  103689:	48 09 d0             	or     %rdx,%rax
  10368c:	74 72                	je     103700 <page_lookup_paddr+0xb0>
  10368e:	48 c1 e0 0c          	shl    $0xc,%rax
  103692:	48 89 d9             	mov    %rbx,%rcx
  103695:	48 c1 e9 1b          	shr    $0x1b,%rcx
  103699:	81 e1 f8 0f 00 00    	and    $0xff8,%ecx
  10369f:	8b 14 08             	mov    (%rax,%rcx,1),%edx
  1036a2:	0f b6 74 08 04       	movzbl 0x4(%rax,%rcx,1),%esi
  1036a7:	48 c1 e6 20          	shl    $0x20,%rsi
  1036ab:	48 09 d6             	or     %rdx,%rsi
  1036ae:	48 c1 ee 0c          	shr    $0xc,%rsi
  1036b2:	0f b6 44 08 05       	movzbl 0x5(%rax,%rcx,1),%eax
  1036b7:	c1 e0 1c             	shl    $0x1c,%eax
  1036ba:	48 63 c8             	movslq %eax,%rcx
  1036bd:	48 09 f1             	or     %rsi,%rcx
  1036c0:	74 3e                	je     103700 <page_lookup_paddr+0xb0>
  1036c2:	89 d8                	mov    %ebx,%eax
  1036c4:	25 ff ff 1f 00       	and    $0x1fffff,%eax
  1036c9:	c1 eb 15             	shr    $0x15,%ebx
  1036cc:	81 e3 ff 01 00 00    	and    $0x1ff,%ebx
  1036d2:	48 c1 e1 0c          	shl    $0xc,%rcx
  1036d6:	8b 14 d9             	mov    (%rcx,%rbx,8),%edx
  1036d9:	0f b6 74 d9 04       	movzbl 0x4(%rcx,%rbx,8),%esi
  1036de:	48 c1 e6 20          	shl    $0x20,%rsi
  1036e2:	48 09 d6             	or     %rdx,%rsi
  1036e5:	48 c1 ee 0c          	shr    $0xc,%rsi
  1036e9:	0f b6 4c d9 05       	movzbl 0x5(%rcx,%rbx,8),%ecx
  1036ee:	c1 e1 1c             	shl    $0x1c,%ecx
  1036f1:	48 63 d9             	movslq %ecx,%rbx
  1036f4:	48 09 f3             	or     %rsi,%rbx
  1036f7:	48 c1 e3 0c          	shl    $0xc,%rbx
  1036fb:	48 01 c3             	add    %rax,%rbx
  1036fe:	eb 0a                	jmp    10370a <page_lookup_paddr+0xba>
  103700:	bf dd b9 10 00       	mov    $0x10b9dd,%edi
  103705:	e8 66 e1 ff ff       	call   101870 <dbgconout>
  10370a:	48 89 d8             	mov    %rbx,%rax
  10370d:	48 83 c4 08          	add    $0x8,%rsp
  103711:	5b                   	pop    %rbx
  103712:	5d                   	pop    %rbp
  103713:	c3                   	ret
  103714:	66 66 66 2e 0f 1f 84 	data16 data16 cs nopw 0x0(%rax,%rax,1)
  10371b:	00 00 00 00 00 

0000000000103720 <page_alloc>:
  103720:	55                   	push   %rbp
  103721:	48 89 e5             	mov    %rsp,%rbp
  103724:	41 57                	push   %r15
  103726:	41 56                	push   %r14
  103728:	41 55                	push   %r13
  10372a:	41 54                	push   %r12
  10372c:	53                   	push   %rbx
  10372d:	50                   	push   %rax
  10372e:	49 89 f7             	mov    %rsi,%r15
  103731:	49 89 fe             	mov    %rdi,%r14
  103734:	48 89 f3             	mov    %rsi,%rbx
  103737:	48 c1 eb 27          	shr    $0x27,%rbx
  10373b:	81 e3 ff 01 00 00    	and    $0x1ff,%ebx
  103741:	49 89 f4             	mov    %rsi,%r12
  103744:	49 c1 ec 1e          	shr    $0x1e,%r12
  103748:	41 81 e4 ff 01 00 00 	and    $0x1ff,%r12d
  10374f:	8b 04 dd 00 e0 10 01 	mov    0x110e000(,%rbx,8),%eax
  103756:	0f b6 0c dd 04 e0 10 	movzbl 0x110e004(,%rbx,8),%ecx
  10375d:	01 
  10375e:	48 c1 e1 20          	shl    $0x20,%rcx
  103762:	48 09 c1             	or     %rax,%rcx
  103765:	f6 c1 01             	test   $0x1,%cl
  103768:	75 36                	jne    1037a0 <page_alloc+0x80>
  10376a:	bf 00 f0 10 01       	mov    $0x110f000,%edi
  10376f:	be 00 10 00 00       	mov    $0x1000,%esi
  103774:	e8 37 0a 00 00       	call   1041b0 <k_pageobj_alloc>
  103779:	8b 0c dd 00 e0 10 01 	mov    0x110e000(,%rbx,8),%ecx
  103780:	48 89 c2             	mov    %rax,%rdx
  103783:	48 81 e2 00 f0 ff ff 	and    $0xfffffffffffff000,%rdx
  10378a:	81 e1 ff 0f 00 00    	and    $0xfff,%ecx
  103790:	48 09 d1             	or     %rdx,%rcx
  103793:	48 c1 e8 28          	shr    $0x28,%rax
  103797:	88 04 dd 05 e0 10 01 	mov    %al,0x110e005(,%rbx,8)
  10379e:	eb 08                	jmp    1037a8 <page_alloc+0x88>
  1037a0:	0f b6 04 dd 05 e0 10 	movzbl 0x110e005(,%rbx,8),%eax
  1037a7:	01 
  1037a8:	48 89 ca             	mov    %rcx,%rdx
  1037ab:	48 83 ca 03          	or     $0x3,%rdx
  1037af:	48 89 ce             	mov    %rcx,%rsi
  1037b2:	48 c1 ee 20          	shr    $0x20,%rsi
  1037b6:	40 88 34 dd 04 e0 10 	mov    %sil,0x110e004(,%rbx,8)
  1037bd:	01 
  1037be:	89 14 dd 00 e0 10 01 	mov    %edx,0x110e000(,%rbx,8)
  1037c5:	48 c1 e9 0c          	shr    $0xc,%rcx
  1037c9:	81 e1 ff ff ff 0f    	and    $0xfffffff,%ecx
  1037cf:	0f b6 c0             	movzbl %al,%eax
  1037d2:	c1 e0 1c             	shl    $0x1c,%eax
  1037d5:	48 63 d8             	movslq %eax,%rbx
  1037d8:	48 09 cb             	or     %rcx,%rbx
  1037db:	48 c1 e3 0c          	shl    $0xc,%rbx
  1037df:	42 8b 0c e3          	mov    (%rbx,%r12,8),%ecx
  1037e3:	42 0f b6 44 e3 04    	movzbl 0x4(%rbx,%r12,8),%eax
  1037e9:	48 c1 e0 20          	shl    $0x20,%rax
  1037ed:	48 09 c8             	or     %rcx,%rax
  1037f0:	48 89 c2             	mov    %rax,%rdx
  1037f3:	48 c1 ea 0c          	shr    $0xc,%rdx
  1037f7:	42 0f b6 4c e3 05    	movzbl 0x5(%rbx,%r12,8),%ecx
  1037fd:	c1 e1 1c             	shl    $0x1c,%ecx
  103800:	48 63 c9             	movslq %ecx,%rcx
  103803:	48 09 d1             	or     %rdx,%rcx
  103806:	74 0b                	je     103813 <page_alloc+0xf3>
  103808:	89 c2                	mov    %eax,%edx
  10380a:	83 e2 01             	and    $0x1,%edx
  10380d:	0f 85 0c 01 00 00    	jne    10391f <page_alloc+0x1ff>
  103813:	bf 00 f0 10 01       	mov    $0x110f000,%edi
  103818:	be 00 10 00 00       	mov    $0x1000,%esi
  10381d:	e8 8e 09 00 00       	call   1041b0 <k_pageobj_alloc>
  103822:	49 89 c5             	mov    %rax,%r13
  103825:	48 c1 e8 24          	shr    $0x24,%rax
  103829:	25 f8 0f 00 00       	and    $0xff8,%eax
  10382e:	8b 88 00 e0 10 01    	mov    0x110e000(%rax),%ecx
  103834:	0f b6 90 04 e0 10 01 	movzbl 0x110e004(%rax),%edx
  10383b:	48 c1 e2 20          	shl    $0x20,%rdx
  10383f:	48 09 ca             	or     %rcx,%rdx
  103842:	48 c1 ea 0c          	shr    $0xc,%rdx
  103846:	0f b6 80 05 e0 10 01 	movzbl 0x110e005(%rax),%eax
  10384d:	c1 e0 1c             	shl    $0x1c,%eax
  103850:	48 98                	cltq
  103852:	48 09 d0             	or     %rdx,%rax
  103855:	74 78                	je     1038cf <page_alloc+0x1af>
  103857:	48 c1 e0 0c          	shl    $0xc,%rax
  10385b:	4c 89 e9             	mov    %r13,%rcx
  10385e:	48 c1 e9 1b          	shr    $0x1b,%rcx
  103862:	81 e1 f8 0f 00 00    	and    $0xff8,%ecx
  103868:	8b 14 08             	mov    (%rax,%rcx,1),%edx
  10386b:	0f b6 74 08 04       	movzbl 0x4(%rax,%rcx,1),%esi
  103870:	48 c1 e6 20          	shl    $0x20,%rsi
  103874:	48 09 d6             	or     %rdx,%rsi
  103877:	48 c1 ee 0c          	shr    $0xc,%rsi
  10387b:	0f b6 44 08 05       	movzbl 0x5(%rax,%rcx,1),%eax
  103880:	c1 e0 1c             	shl    $0x1c,%eax
  103883:	48 63 c8             	movslq %eax,%rcx
  103886:	48 09 f1             	or     %rsi,%rcx
  103889:	74 44                	je     1038cf <page_alloc+0x1af>
  10388b:	44 89 e8             	mov    %r13d,%eax
  10388e:	25 ff ff 1f 00       	and    $0x1fffff,%eax
  103893:	41 c1 ed 15          	shr    $0x15,%r13d
  103897:	41 81 e5 ff 01 00 00 	and    $0x1ff,%r13d
  10389e:	48 c1 e1 0c          	shl    $0xc,%rcx
  1038a2:	42 8b 14 e9          	mov    (%rcx,%r13,8),%edx
  1038a6:	42 0f b6 74 e9 04    	movzbl 0x4(%rcx,%r13,8),%esi
  1038ac:	48 c1 e6 20          	shl    $0x20,%rsi
  1038b0:	48 09 d6             	or     %rdx,%rsi
  1038b3:	48 c1 ee 0c          	shr    $0xc,%rsi
  1038b7:	42 0f b6 4c e9 05    	movzbl 0x5(%rcx,%r13,8),%ecx
  1038bd:	c1 e1 1c             	shl    $0x1c,%ecx
  1038c0:	4c 63 e9             	movslq %ecx,%r13
  1038c3:	49 09 f5             	or     %rsi,%r13
  1038c6:	49 c1 e5 0c          	shl    $0xc,%r13
  1038ca:	49 01 c5             	add    %rax,%r13
  1038cd:	eb 0a                	jmp    1038d9 <page_alloc+0x1b9>
  1038cf:	bf dd b9 10 00       	mov    $0x10b9dd,%edi
  1038d4:	e8 97 df ff ff       	call   101870 <dbgconout>
  1038d9:	42 8b 04 e3          	mov    (%rbx,%r12,8),%eax
  1038dd:	4c 89 e9             	mov    %r13,%rcx
  1038e0:	48 81 e1 00 f0 ff ff 	and    $0xfffffffffffff000,%rcx
  1038e7:	25 ff 0f 00 00       	and    $0xfff,%eax
  1038ec:	48 09 c8             	or     %rcx,%rax
  1038ef:	4c 89 e9             	mov    %r13,%rcx
  1038f2:	48 c1 e9 20          	shr    $0x20,%rcx
  1038f6:	42 88 4c e3 04       	mov    %cl,0x4(%rbx,%r12,8)
  1038fb:	42 89 04 e3          	mov    %eax,(%rbx,%r12,8)
  1038ff:	4c 89 e9             	mov    %r13,%rcx
  103902:	48 c1 e9 28          	shr    $0x28,%rcx
  103906:	42 88 4c e3 05       	mov    %cl,0x5(%rbx,%r12,8)
  10390b:	49 c1 ed 0c          	shr    $0xc,%r13
  10390f:	41 81 e5 ff ff ff 0f 	and    $0xfffffff,%r13d
  103916:	c1 e1 1c             	shl    $0x1c,%ecx
  103919:	48 63 c9             	movslq %ecx,%rcx
  10391c:	4c 09 e9             	or     %r13,%rcx
  10391f:	48 89 c2             	mov    %rax,%rdx
  103922:	48 83 ca 03          	or     $0x3,%rdx
  103926:	48 c1 e8 20          	shr    $0x20,%rax
  10392a:	42 88 44 e3 04       	mov    %al,0x4(%rbx,%r12,8)
  10392f:	42 89 14 e3          	mov    %edx,(%rbx,%r12,8)
  103933:	48 c1 e1 0c          	shl    $0xc,%rcx
  103937:	49 c1 ef 12          	shr    $0x12,%r15
  10393b:	41 81 e7 f8 0f 00 00 	and    $0xff8,%r15d
  103942:	42 8b 04 39          	mov    (%rcx,%r15,1),%eax
  103946:	48 ba 00 00 e0 ff ff 	movabs $0xffffe00000,%rdx
  10394d:	00 00 00 
  103950:	4c 21 f2             	and    %r14,%rdx
  103953:	25 7c ef 1f 00       	and    $0x1fef7c,%eax
  103958:	4c 89 f6             	mov    %r14,%rsi
  10395b:	48 c1 ee 28          	shr    $0x28,%rsi
  10395f:	42 88 74 39 05       	mov    %sil,0x5(%rcx,%r15,1)
  103964:	48 01 d0             	add    %rdx,%rax
  103967:	48 05 83 00 00 00    	add    $0x83,%rax
  10396d:	4c 89 f2             	mov    %r14,%rdx
  103970:	48 c1 ea 20          	shr    $0x20,%rdx
  103974:	42 88 54 39 04       	mov    %dl,0x4(%rcx,%r15,1)
  103979:	42 89 04 39          	mov    %eax,(%rcx,%r15,1)
  10397d:	4c 89 f1             	mov    %r14,%rcx
  103980:	48 c1 e9 15          	shr    $0x15,%rcx
  103984:	80 e1 07             	and    $0x7,%cl
  103987:	b0 01                	mov    $0x1,%al
  103989:	d2 e0                	shl    %cl,%al
  10398b:	49 c1 ee 18          	shr    $0x18,%r14
  10398f:	41 08 86 00 e0 10 00 	or     %al,0x10e000(%r14)
  103996:	48 83 c4 08          	add    $0x8,%rsp
  10399a:	5b                   	pop    %rbx
  10399b:	41 5c                	pop    %r12
  10399d:	41 5d                	pop    %r13
  10399f:	41 5e                	pop    %r14
  1039a1:	41 5f                	pop    %r15
  1039a3:	5d                   	pop    %rbp
  1039a4:	c3                   	ret
  1039a5:	66 66 2e 0f 1f 84 00 	data16 cs nopw 0x0(%rax,%rax,1)
  1039ac:	00 00 00 00 

00000000001039b0 <page_alloc_dev>:
  1039b0:	55                   	push   %rbp
  1039b1:	48 89 e5             	mov    %rsp,%rbp
  1039b4:	41 57                	push   %r15
  1039b6:	41 56                	push   %r14
  1039b8:	41 55                	push   %r13
  1039ba:	41 54                	push   %r12
  1039bc:	53                   	push   %rbx
  1039bd:	50                   	push   %rax
  1039be:	49 89 f6             	mov    %rsi,%r14
  1039c1:	49 89 ff             	mov    %rdi,%r15
  1039c4:	48 89 f3             	mov    %rsi,%rbx
  1039c7:	48 c1 eb 27          	shr    $0x27,%rbx
  1039cb:	81 e3 ff 01 00 00    	and    $0x1ff,%ebx
  1039d1:	49 89 f5             	mov    %rsi,%r13
  1039d4:	49 c1 ed 1e          	shr    $0x1e,%r13
  1039d8:	41 81 e5 ff 01 00 00 	and    $0x1ff,%r13d
  1039df:	45 89 f4             	mov    %r14d,%r12d
  1039e2:	41 c1 ec 15          	shr    $0x15,%r12d
  1039e6:	41 81 e4 ff 01 00 00 	and    $0x1ff,%r12d
  1039ed:	8b 04 dd 00 e0 10 01 	mov    0x110e000(,%rbx,8),%eax
  1039f4:	0f b6 0c dd 04 e0 10 	movzbl 0x110e004(,%rbx,8),%ecx
  1039fb:	01 
  1039fc:	48 c1 e1 20          	shl    $0x20,%rcx
  103a00:	48 09 c1             	or     %rax,%rcx
  103a03:	f6 c1 01             	test   $0x1,%cl
  103a06:	75 36                	jne    103a3e <page_alloc_dev+0x8e>
  103a08:	bf 00 f0 10 01       	mov    $0x110f000,%edi
  103a0d:	be 00 10 00 00       	mov    $0x1000,%esi
  103a12:	e8 99 07 00 00       	call   1041b0 <k_pageobj_alloc>
  103a17:	8b 0c dd 00 e0 10 01 	mov    0x110e000(,%rbx,8),%ecx
  103a1e:	48 89 c2             	mov    %rax,%rdx
  103a21:	48 81 e2 00 f0 ff ff 	and    $0xfffffffffffff000,%rdx
  103a28:	81 e1 ff 0f 00 00    	and    $0xfff,%ecx
  103a2e:	48 09 d1             	or     %rdx,%rcx
  103a31:	48 c1 e8 28          	shr    $0x28,%rax
  103a35:	88 04 dd 05 e0 10 01 	mov    %al,0x110e005(,%rbx,8)
  103a3c:	eb 08                	jmp    103a46 <page_alloc_dev+0x96>
  103a3e:	0f b6 04 dd 05 e0 10 	movzbl 0x110e005(,%rbx,8),%eax
  103a45:	01 
  103a46:	48 ba 74 ff ff ff ff 	movabs $0xffffffff74,%rdx
  103a4d:	00 00 00 
  103a50:	48 21 ca             	and    %rcx,%rdx
  103a53:	48 83 ca 0b          	or     $0xb,%rdx
  103a57:	48 89 ce             	mov    %rcx,%rsi
  103a5a:	48 c1 ee 20          	shr    $0x20,%rsi
  103a5e:	40 88 34 dd 04 e0 10 	mov    %sil,0x110e004(,%rbx,8)
  103a65:	01 
  103a66:	89 14 dd 00 e0 10 01 	mov    %edx,0x110e000(,%rbx,8)
  103a6d:	80 24 dd 06 e0 10 01 	andb   $0xf0,0x110e006(,%rbx,8)
  103a74:	f0 
  103a75:	48 c1 e9 0c          	shr    $0xc,%rcx
  103a79:	81 e1 ff ff ff 0f    	and    $0xfffffff,%ecx
  103a7f:	0f b6 c0             	movzbl %al,%eax
  103a82:	c1 e0 1c             	shl    $0x1c,%eax
  103a85:	48 63 d8             	movslq %eax,%rbx
  103a88:	48 09 cb             	or     %rcx,%rbx
  103a8b:	48 c1 e3 0c          	shl    $0xc,%rbx
  103a8f:	42 8b 04 eb          	mov    (%rbx,%r13,8),%eax
  103a93:	42 0f b6 4c eb 04    	movzbl 0x4(%rbx,%r13,8),%ecx
  103a99:	48 c1 e1 20          	shl    $0x20,%rcx
  103a9d:	48 09 c1             	or     %rax,%rcx
  103aa0:	f6 c1 01             	test   $0x1,%cl
  103aa3:	75 41                	jne    103ae6 <page_alloc_dev+0x136>
  103aa5:	bf 00 f0 10 01       	mov    $0x110f000,%edi
  103aaa:	be 00 10 00 00       	mov    $0x1000,%esi
  103aaf:	e8 fc 06 00 00       	call   1041b0 <k_pageobj_alloc>
  103ab4:	42 8b 0c eb          	mov    (%rbx,%r13,8),%ecx
  103ab8:	48 89 c2             	mov    %rax,%rdx
  103abb:	48 81 e2 00 f0 ff ff 	and    $0xfffffffffffff000,%rdx
  103ac2:	81 e1 ff 0f 00 00    	and    $0xfff,%ecx
  103ac8:	48 09 d1             	or     %rdx,%rcx
  103acb:	48 89 c2             	mov    %rax,%rdx
  103ace:	48 c1 ea 20          	shr    $0x20,%rdx
  103ad2:	42 88 54 eb 04       	mov    %dl,0x4(%rbx,%r13,8)
  103ad7:	42 89 0c eb          	mov    %ecx,(%rbx,%r13,8)
  103adb:	48 c1 e8 28          	shr    $0x28,%rax
  103adf:	42 88 44 eb 05       	mov    %al,0x5(%rbx,%r13,8)
  103ae4:	eb 06                	jmp    103aec <page_alloc_dev+0x13c>
  103ae6:	42 0f b6 44 eb 05    	movzbl 0x5(%rbx,%r13,8),%eax
  103aec:	48 89 ca             	mov    %rcx,%rdx
  103aef:	48 83 ca 0b          	or     $0xb,%rdx
  103af3:	48 89 ce             	mov    %rcx,%rsi
  103af6:	48 c1 ee 20          	shr    $0x20,%rsi
  103afa:	42 88 74 eb 04       	mov    %sil,0x4(%rbx,%r13,8)
  103aff:	42 89 14 eb          	mov    %edx,(%rbx,%r13,8)
  103b03:	42 80 64 eb 06 f0    	andb   $0xf0,0x6(%rbx,%r13,8)
  103b09:	48 c1 e9 0c          	shr    $0xc,%rcx
  103b0d:	81 e1 ff ff ff 0f    	and    $0xfffffff,%ecx
  103b13:	0f b6 c0             	movzbl %al,%eax
  103b16:	c1 e0 1c             	shl    $0x1c,%eax
  103b19:	48 98                	cltq
  103b1b:	48 09 c8             	or     %rcx,%rax
  103b1e:	48 c1 e0 0c          	shl    $0xc,%rax
  103b22:	42 8b 0c e0          	mov    (%rax,%r12,8),%ecx
  103b26:	48 ba 00 10 e0 ff ff 	movabs $0xffffe01000,%rdx
  103b2d:	00 00 00 
  103b30:	4c 21 fa             	and    %r15,%rdx
  103b33:	81 e1 74 0f 00 00    	and    $0xf74,%ecx
  103b39:	4c 89 fe             	mov    %r15,%rsi
  103b3c:	48 c1 ee 28          	shr    $0x28,%rsi
  103b40:	42 88 74 e0 05       	mov    %sil,0x5(%rax,%r12,8)
  103b45:	48 01 d1             	add    %rdx,%rcx
  103b48:	48 81 c1 8b 00 00 00 	add    $0x8b,%rcx
  103b4f:	4c 89 fa             	mov    %r15,%rdx
  103b52:	48 c1 ea 20          	shr    $0x20,%rdx
  103b56:	42 88 54 e0 04       	mov    %dl,0x4(%rax,%r12,8)
  103b5b:	42 89 0c e0          	mov    %ecx,(%rax,%r12,8)
  103b5f:	42 80 64 e0 06 f0    	andb   $0xf0,0x6(%rax,%r12,8)
  103b65:	4d 85 f6             	test   %r14,%r14
  103b68:	75 16                	jne    103b80 <page_alloc_dev+0x1d0>
  103b6a:	4e 8d 34 e0          	lea    (%rax,%r12,8),%r14
  103b6e:	bf ed b9 10 00       	mov    $0x10b9ed,%edi
  103b73:	e8 f8 dc ff ff       	call   101870 <dbgconout>
  103b78:	4c 89 f7             	mov    %r14,%rdi
  103b7b:	e8 80 db ff ff       	call   101700 <dbgnumout_hex>
  103b80:	4c 89 f9             	mov    %r15,%rcx
  103b83:	48 c1 e9 15          	shr    $0x15,%rcx
  103b87:	80 e1 07             	and    $0x7,%cl
  103b8a:	b0 01                	mov    $0x1,%al
  103b8c:	d2 e0                	shl    %cl,%al
  103b8e:	49 c1 ef 18          	shr    $0x18,%r15
  103b92:	41 08 87 00 e0 10 00 	or     %al,0x10e000(%r15)
  103b99:	48 83 c4 08          	add    $0x8,%rsp
  103b9d:	5b                   	pop    %rbx
  103b9e:	41 5c                	pop    %r12
  103ba0:	41 5d                	pop    %r13
  103ba2:	41 5e                	pop    %r14
  103ba4:	41 5f                	pop    %r15
  103ba6:	5d                   	pop    %rbp
  103ba7:	c3                   	ret
  103ba8:	0f 1f 84 00 00 00 00 	nopl   0x0(%rax,%rax,1)
  103baf:	00 

0000000000103bb0 <page_virt_find_addr>:
  103bb0:	55                   	push   %rbp
  103bb1:	48 89 e5             	mov    %rsp,%rbp
  103bb4:	41 57                	push   %r15
  103bb6:	41 56                	push   %r14
  103bb8:	53                   	push   %rbx
  103bb9:	49 b9 00 00 e0 ff 7f 	movabs $0x7fffe00000,%r9
  103bc0:	00 00 00 
  103bc3:	49 89 fb             	mov    %rdi,%r11
  103bc6:	49 c1 e3 15          	shl    $0x15,%r11
  103bca:	31 c0                	xor    %eax,%eax
  103bcc:	4d 8d 91 ff ff 1f 00 	lea    0x1fffff(%r9),%r10
  103bd3:	49 b8 fe ff ff ff ff 	movabs $0xfffffffffffe,%r8
  103bda:	ff 00 00 
  103bdd:	4d 85 db             	test   %r11,%r11
  103be0:	0f 84 26 01 00 00    	je     103d0c <page_virt_find_addr+0x15c>
  103be6:	31 c9                	xor    %ecx,%ecx
  103be8:	eb 26                	jmp    103c10 <page_virt_find_addr+0x60>
  103bea:	48 05 00 00 00 40    	add    $0x40000000,%rax
  103bf0:	48 25 00 00 00 c0    	and    $0xffffffffc0000000,%rax
  103bf6:	66 2e 0f 1f 84 00 00 	cs nopw 0x0(%rax,%rax,1)
  103bfd:	00 00 00 
  103c00:	48 81 c1 00 00 20 00 	add    $0x200000,%rcx
  103c07:	4c 39 d9             	cmp    %r11,%rcx
  103c0a:	0f 83 fc 00 00 00    	jae    103d0c <page_virt_find_addr+0x15c>
  103c10:	4c 8d 34 08          	lea    (%rax,%rcx,1),%r14
  103c14:	4c 89 f2             	mov    %r14,%rdx
  103c17:	48 c1 ea 27          	shr    $0x27,%rdx
  103c1b:	81 e2 ff 01 00 00    	and    $0x1ff,%edx
  103c21:	8b 34 d5 00 e0 10 01 	mov    0x110e000(,%rdx,8),%esi
  103c28:	40 f6 c6 01          	test   $0x1,%sil
  103c2c:	75 22                	jne    103c50 <page_virt_find_addr+0xa0>
  103c2e:	48 81 ff 00 00 04 00 	cmp    $0x40000,%rdi
  103c35:	0f 82 d1 00 00 00    	jb     103d0c <page_virt_find_addr+0x15c>
  103c3b:	48 89 ca             	mov    %rcx,%rdx
  103c3e:	4c 21 d2             	and    %r10,%rdx
  103c41:	4c 01 c9             	add    %r9,%rcx
  103c44:	48 29 d1             	sub    %rdx,%rcx
  103c47:	eb b7                	jmp    103c00 <page_virt_find_addr+0x50>
  103c49:	0f 1f 80 00 00 00 00 	nopl   0x0(%rax)
  103c50:	8b 1c d5 04 e0 10 01 	mov    0x110e004(,%rdx,8),%ebx
  103c57:	48 c1 e3 20          	shl    $0x20,%rbx
  103c5b:	48 09 de             	or     %rbx,%rsi
  103c5e:	4d 89 f7             	mov    %r14,%r15
  103c61:	49 c1 ef 1e          	shr    $0x1e,%r15
  103c65:	41 81 e7 ff 01 00 00 	and    $0x1ff,%r15d
  103c6c:	48 c1 ee 0c          	shr    $0xc,%rsi
  103c70:	81 e6 ff ff ff 0f    	and    $0xfffffff,%esi
  103c76:	0f b6 14 d5 05 e0 10 	movzbl 0x110e005(,%rdx,8),%edx
  103c7d:	01 
  103c7e:	c1 e2 1c             	shl    $0x1c,%edx
  103c81:	48 63 da             	movslq %edx,%rbx
  103c84:	48 09 f3             	or     %rsi,%rbx
  103c87:	48 c1 e3 0c          	shl    $0xc,%rbx
  103c8b:	42 8b 14 fb          	mov    (%rbx,%r15,8),%edx
  103c8f:	f6 c2 01             	test   $0x1,%dl
  103c92:	75 1c                	jne    103cb0 <page_virt_find_addr+0x100>
  103c94:	48 81 ff 00 02 00 00 	cmp    $0x200,%rdi
  103c9b:	72 6f                	jb     103d0c <page_virt_find_addr+0x15c>
  103c9d:	48 81 e1 00 00 00 c0 	and    $0xffffffffc0000000,%rcx
  103ca4:	48 81 c9 00 00 e0 3f 	or     $0x3fe00000,%rcx
  103cab:	e9 50 ff ff ff       	jmp    103c00 <page_virt_find_addr+0x50>
  103cb0:	42 8b 74 fb 04       	mov    0x4(%rbx,%r15,8),%esi
  103cb5:	48 c1 e6 20          	shl    $0x20,%rsi
  103cb9:	48 09 f2             	or     %rsi,%rdx
  103cbc:	f6 c2 80             	test   $0x80,%dl
  103cbf:	0f 85 25 ff ff ff    	jne    103bea <page_virt_find_addr+0x3a>
  103cc5:	41 c1 ee 15          	shr    $0x15,%r14d
  103cc9:	41 81 e6 ff 01 00 00 	and    $0x1ff,%r14d
  103cd0:	48 c1 ea 0c          	shr    $0xc,%rdx
  103cd4:	81 e2 ff ff ff 0f    	and    $0xfffffff,%edx
  103cda:	42 0f b6 74 fb 05    	movzbl 0x5(%rbx,%r15,8),%esi
  103ce0:	c1 e6 1c             	shl    $0x1c,%esi
  103ce3:	48 63 f6             	movslq %esi,%rsi
  103ce6:	48 09 d6             	or     %rdx,%rsi
  103ce9:	48 c1 e6 0c          	shl    $0xc,%rsi
  103ced:	42 f6 04 f6 01       	testb  $0x1,(%rsi,%r14,8)
  103cf2:	0f 84 08 ff ff ff    	je     103c00 <page_virt_find_addr+0x50>
  103cf8:	48 05 00 00 20 00    	add    $0x200000,%rax
  103cfe:	4c 39 c0             	cmp    %r8,%rax
  103d01:	0f 86 d6 fe ff ff    	jbe    103bdd <page_virt_find_addr+0x2d>
  103d07:	b8 ad de 00 00       	mov    $0xdead,%eax
  103d0c:	5b                   	pop    %rbx
  103d0d:	41 5e                	pop    %r14
  103d0f:	41 5f                	pop    %r15
  103d11:	5d                   	pop    %rbp
  103d12:	c3                   	ret
  103d13:	66 66 66 66 2e 0f 1f 	data16 data16 data16 cs nopw 0x0(%rax,%rax,1)
  103d1a:	84 00 00 00 00 00 

0000000000103d20 <page_map_paddr>:
  103d20:	55                   	push   %rbp
  103d21:	48 89 e5             	mov    %rsp,%rbp
  103d24:	41 57                	push   %r15
  103d26:	41 56                	push   %r14
  103d28:	41 55                	push   %r13
  103d2a:	41 54                	push   %r12
  103d2c:	53                   	push   %rbx
  103d2d:	50                   	push   %rax
  103d2e:	49 89 f4             	mov    %rsi,%r12
  103d31:	49 89 fe             	mov    %rdi,%r14
  103d34:	48 89 f7             	mov    %rsi,%rdi
  103d37:	e8 74 fe ff ff       	call   103bb0 <page_virt_find_addr>
  103d3c:	49 89 c7             	mov    %rax,%r15
  103d3f:	49 c1 e4 15          	shl    $0x15,%r12
  103d43:	74 34                	je     103d79 <page_map_paddr+0x59>
  103d45:	4d 89 f5             	mov    %r14,%r13
  103d48:	49 81 e5 00 00 e0 ff 	and    $0xffffffffffe00000,%r13
  103d4f:	31 db                	xor    %ebx,%ebx
  103d51:	66 66 66 66 66 66 2e 	data16 data16 data16 data16 data16 cs nopw 0x0(%rax,%rax,1)
  103d58:	0f 1f 84 00 00 00 00 
  103d5f:	00 
  103d60:	4a 8d 3c 2b          	lea    (%rbx,%r13,1),%rdi
  103d64:	49 8d 34 1f          	lea    (%r15,%rbx,1),%rsi
  103d68:	e8 b3 f9 ff ff       	call   103720 <page_alloc>
  103d6d:	48 81 c3 00 00 20 00 	add    $0x200000,%rbx
  103d74:	4c 39 e3             	cmp    %r12,%rbx
  103d77:	72 e7                	jb     103d60 <page_map_paddr+0x40>
  103d79:	41 81 e6 ff ff 1f 00 	and    $0x1fffff,%r14d
  103d80:	4d 01 f7             	add    %r14,%r15
  103d83:	4c 89 f8             	mov    %r15,%rax
  103d86:	48 83 c4 08          	add    $0x8,%rsp
  103d8a:	5b                   	pop    %rbx
  103d8b:	41 5c                	pop    %r12
  103d8d:	41 5d                	pop    %r13
  103d8f:	41 5e                	pop    %r14
  103d91:	41 5f                	pop    %r15
  103d93:	5d                   	pop    %rbp
  103d94:	c3                   	ret
  103d95:	66 66 2e 0f 1f 84 00 	data16 cs nopw 0x0(%rax,%rax,1)
  103d9c:	00 00 00 00 

0000000000103da0 <page_find_and_alloc>:
  103da0:	55                   	push   %rbp
  103da1:	48 89 e5             	mov    %rsp,%rbp
  103da4:	41 57                	push   %r15
  103da6:	41 56                	push   %r14
  103da8:	41 54                	push   %r12
  103daa:	53                   	push   %rbx
  103dab:	41 be ad de 00 00    	mov    $0xdead,%r14d
  103db1:	48 81 ff 00 00 00 08 	cmp    $0x8000000,%rdi
  103db8:	0f 84 1b 01 00 00    	je     103ed9 <page_find_and_alloc+0x139>
  103dbe:	49 89 ff             	mov    %rdi,%r15
  103dc1:	48 8d 87 00 00 00 f8 	lea    -0x8000000(%rdi),%rax
  103dc8:	31 c9                	xor    %ecx,%ecx
  103dca:	31 db                	xor    %ebx,%ebx
  103dcc:	0f 1f 40 00          	nopl   0x0(%rax)
  103dd0:	48 89 ca             	mov    %rcx,%rdx
  103dd3:	48 c1 ea 18          	shr    $0x18,%rdx
  103dd7:	89 ce                	mov    %ecx,%esi
  103dd9:	c1 ee 15             	shr    $0x15,%esi
  103ddc:	0f b6 92 00 e0 10 00 	movzbl 0x10e000(%rdx),%edx
  103de3:	83 e6 07             	and    $0x7,%esi
  103de6:	0f a3 f2             	bt     %esi,%edx
  103de9:	73 14                	jae    103dff <page_find_and_alloc+0x5f>
  103deb:	48 ff cb             	dec    %rbx
  103dee:	48 81 c1 00 00 20 00 	add    $0x200000,%rcx
  103df5:	48 39 d8             	cmp    %rbx,%rax
  103df8:	75 d6                	jne    103dd0 <page_find_and_alloc+0x30>
  103dfa:	e9 da 00 00 00       	jmp    103ed9 <page_find_and_alloc+0x139>
  103dff:	4c 89 ff             	mov    %r15,%rdi
  103e02:	e8 a9 fd ff ff       	call   103bb0 <page_virt_find_addr>
  103e07:	49 89 c6             	mov    %rax,%r14
  103e0a:	4d 85 ff             	test   %r15,%r15
  103e0d:	0f 84 c6 00 00 00    	je     103ed9 <page_find_and_alloc+0x139>
  103e13:	48 f7 db             	neg    %rbx
  103e16:	45 31 e4             	xor    %r12d,%r12d
  103e19:	0f 1f 80 00 00 00 00 	nopl   0x0(%rax)
  103e20:	48 8d 43 ff          	lea    -0x1(%rbx),%rax
  103e24:	4c 01 e3             	add    %r12,%rbx
  103e27:	48 c1 e3 15          	shl    $0x15,%rbx
  103e2b:	48 89 df             	mov    %rbx,%rdi
  103e2e:	48 89 c3             	mov    %rax,%rbx
  103e31:	66 66 66 66 66 66 2e 	data16 data16 data16 data16 data16 cs nopw 0x0(%rax,%rax,1)
  103e38:	0f 1f 84 00 00 00 00 
  103e3f:	00 
  103e40:	48 89 f8             	mov    %rdi,%rax
  103e43:	48 c1 e8 18          	shr    $0x18,%rax
  103e47:	89 f9                	mov    %edi,%ecx
  103e49:	c1 e9 15             	shr    $0x15,%ecx
  103e4c:	0f b6 80 00 e0 10 00 	movzbl 0x10e000(%rax),%eax
  103e53:	83 e1 07             	and    $0x7,%ecx
  103e56:	48 ff c3             	inc    %rbx
  103e59:	48 81 c7 00 00 20 00 	add    $0x200000,%rdi
  103e60:	0f a3 c8             	bt     %ecx,%eax
  103e63:	72 db                	jb     103e40 <page_find_and_alloc+0xa0>
  103e65:	4c 89 e6             	mov    %r12,%rsi
  103e68:	48 c1 e6 15          	shl    $0x15,%rsi
  103e6c:	48 81 c7 00 00 e0 ff 	add    $0xffffffffffe00000,%rdi
  103e73:	4c 01 f6             	add    %r14,%rsi
  103e76:	e8 a5 f8 ff ff       	call   103720 <page_alloc>
  103e7b:	49 ff c4             	inc    %r12
  103e7e:	4d 39 fc             	cmp    %r15,%r12
  103e81:	75 9d                	jne    103e20 <page_find_and_alloc+0x80>
  103e83:	49 c1 e7 12          	shl    $0x12,%r15
  103e87:	48 b8 00 00 fc ff ff 	movabs $0x1ffffffffffc0000,%rax
  103e8e:	ff ff 1f 
  103e91:	4c 21 f8             	and    %r15,%rax
  103e94:	74 43                	je     103ed9 <page_find_and_alloc+0x139>
  103e96:	48 83 c0 fc          	add    $0xfffffffffffffffc,%rax
  103e9a:	48 c1 e8 02          	shr    $0x2,%rax
  103e9e:	4c 89 f1             	mov    %r14,%rcx
  103ea1:	48 83 c1 70          	add    $0x70,%rcx
  103ea5:	48 ff c0             	inc    %rax
  103ea8:	0f 57 c0             	xorps  %xmm0,%xmm0
  103eab:	0f 1f 44 00 00       	nopl   0x0(%rax,%rax,1)
  103eb0:	0f 11 41 90          	movups %xmm0,-0x70(%rcx)
  103eb4:	0f 11 41 a0          	movups %xmm0,-0x60(%rcx)
  103eb8:	0f 11 41 b0          	movups %xmm0,-0x50(%rcx)
  103ebc:	0f 11 41 c0          	movups %xmm0,-0x40(%rcx)
  103ec0:	0f 11 41 d0          	movups %xmm0,-0x30(%rcx)
  103ec4:	0f 11 41 e0          	movups %xmm0,-0x20(%rcx)
  103ec8:	0f 11 41 f0          	movups %xmm0,-0x10(%rcx)
  103ecc:	0f 11 01             	movups %xmm0,(%rcx)
  103ecf:	48 83 e9 80          	sub    $0xffffffffffffff80,%rcx
  103ed3:	48 83 c0 fc          	add    $0xfffffffffffffffc,%rax
  103ed7:	75 d7                	jne    103eb0 <page_find_and_alloc+0x110>
  103ed9:	4c 89 f0             	mov    %r14,%rax
  103edc:	5b                   	pop    %rbx
  103edd:	41 5c                	pop    %r12
  103edf:	41 5e                	pop    %r14
  103ee1:	41 5f                	pop    %r15
  103ee3:	5d                   	pop    %rbp
  103ee4:	c3                   	ret
  103ee5:	66 66 2e 0f 1f 84 00 	data16 cs nopw 0x0(%rax,%rax,1)
  103eec:	00 00 00 00 

0000000000103ef0 <page_free_found>:
  103ef0:	55                   	push   %rbp
  103ef1:	48 89 e5             	mov    %rsp,%rbp
  103ef4:	48 85 f6             	test   %rsi,%rsi
  103ef7:	0f 84 cc 00 00 00    	je     103fc9 <page_free_found+0xd9>
  103efd:	0f 1f 00             	nopl   (%rax)
  103f00:	48 89 f8             	mov    %rdi,%rax
  103f03:	48 c1 e8 24          	shr    $0x24,%rax
  103f07:	25 f8 0f 00 00       	and    $0xff8,%eax
  103f0c:	8b 88 00 e0 10 01    	mov    0x110e000(%rax),%ecx
  103f12:	0f b6 90 04 e0 10 01 	movzbl 0x110e004(%rax),%edx
  103f19:	48 c1 e2 20          	shl    $0x20,%rdx
  103f1d:	48 09 ca             	or     %rcx,%rdx
  103f20:	48 c1 ea 0c          	shr    $0xc,%rdx
  103f24:	0f b6 80 05 e0 10 01 	movzbl 0x110e005(%rax),%eax
  103f2b:	c1 e0 1c             	shl    $0x1c,%eax
  103f2e:	48 98                	cltq
  103f30:	48 09 d0             	or     %rdx,%rax
  103f33:	48 c1 e0 0c          	shl    $0xc,%rax
  103f37:	48 89 f9             	mov    %rdi,%rcx
  103f3a:	48 c1 e9 1b          	shr    $0x1b,%rcx
  103f3e:	81 e1 f8 0f 00 00    	and    $0xff8,%ecx
  103f44:	44 8b 04 08          	mov    (%rax,%rcx,1),%r8d
  103f48:	0f b6 54 08 04       	movzbl 0x4(%rax,%rcx,1),%edx
  103f4d:	48 c1 e2 20          	shl    $0x20,%rdx
  103f51:	4c 09 c2             	or     %r8,%rdx
  103f54:	48 c1 ea 0c          	shr    $0xc,%rdx
  103f58:	0f b6 44 08 05       	movzbl 0x5(%rax,%rcx,1),%eax
  103f5d:	c1 e0 1c             	shl    $0x1c,%eax
  103f60:	4c 63 c0             	movslq %eax,%r8
  103f63:	49 09 d0             	or     %rdx,%r8
  103f66:	49 c1 e0 0c          	shl    $0xc,%r8
  103f6a:	49 89 f9             	mov    %rdi,%r9
  103f6d:	49 c1 e9 12          	shr    $0x12,%r9
  103f71:	41 81 e1 f8 0f 00 00 	and    $0xff8,%r9d
  103f78:	43 8b 0c 08          	mov    (%r8,%r9,1),%ecx
  103f7c:	43 0f b6 44 08 04    	movzbl 0x4(%r8,%r9,1),%eax
  103f82:	48 c1 e0 20          	shl    $0x20,%rax
  103f86:	48 09 c8             	or     %rcx,%rax
  103f89:	48 c1 e8 0c          	shr    $0xc,%rax
  103f8d:	43 0f b6 54 08 05    	movzbl 0x5(%r8,%r9,1),%edx
  103f93:	c1 e2 1c             	shl    $0x1c,%edx
  103f96:	48 63 d2             	movslq %edx,%rdx
  103f99:	48 09 c2             	or     %rax,%rdx
  103f9c:	48 c1 e9 15          	shr    $0x15,%rcx
  103fa0:	b0 fe                	mov    $0xfe,%al
  103fa2:	d2 c0                	rol    %cl,%al
  103fa4:	48 c1 ea 0c          	shr    $0xc,%rdx
  103fa8:	81 e2 ff ff ff 00    	and    $0xffffff,%edx
  103fae:	20 82 00 e0 10 00    	and    %al,0x10e000(%rdx)
  103fb4:	43 80 24 08 fe       	andb   $0xfe,(%r8,%r9,1)
  103fb9:	48 81 c7 00 00 20 00 	add    $0x200000,%rdi
  103fc0:	48 ff ce             	dec    %rsi
  103fc3:	0f 85 37 ff ff ff    	jne    103f00 <page_free_found+0x10>
  103fc9:	b8 00 e0 10 01       	mov    $0x110e000,%eax
  103fce:	48 89 c2             	mov    %rax,%rdx
  103fd1:	0f 22 da             	mov    %rdx,%cr3
  103fd4:	5d                   	pop    %rbp
  103fd5:	c3                   	ret
  103fd6:	66 2e 0f 1f 84 00 00 	cs nopw 0x0(%rax,%rax,1)
  103fdd:	00 00 00 

0000000000103fe0 <page_flush>:
  103fe0:	55                   	push   %rbp
  103fe1:	48 89 e5             	mov    %rsp,%rbp
  103fe4:	b8 00 e0 10 01       	mov    $0x110e000,%eax
  103fe9:	48 89 c2             	mov    %rax,%rdx
  103fec:	0f 22 da             	mov    %rdx,%cr3
  103fef:	5d                   	pop    %rbp
  103ff0:	c3                   	ret
  103ff1:	66 2e 0f 1f 84 00 00 	cs nopw 0x0(%rax,%rax,1)
  103ff8:	00 00 00 
  103ffb:	0f 1f 44 00 00       	nopl   0x0(%rax,%rax,1)

0000000000104000 <k_pageobj_init_heap>:
  104000:	55                   	push   %rbp
  104001:	48 89 e5             	mov    %rsp,%rbp
  104004:	48 c7 07 00 00 00 00 	movq   $0x0,(%rdi)
  10400b:	89 77 08             	mov    %esi,0x8(%rdi)
  10400e:	5d                   	pop    %rbp
  10400f:	c3                   	ret

0000000000104010 <k_pageobj_heap_setup>:
  104010:	55                   	push   %rbp
  104011:	48 89 e5             	mov    %rsp,%rbp
  104014:	c7 05 ea af 00 01 00 	movl   $0x1000,0x100afea(%rip)        # 110f008 <page_heap+0x8>
  10401b:	10 00 00 
  10401e:	b8 20 f4 11 01       	mov    $0x111f420,%eax
  104023:	48 25 00 f0 ff ff    	and    $0xfffffffffffff000,%rax
  104029:	48 c7 80 00 20 00 00 	movq   $0x0,0x2000(%rax)
  104030:	00 00 00 00 
  104034:	48 8d 88 00 20 00 00 	lea    0x2000(%rax),%rcx
  10403b:	48 89 0d be af 00 01 	mov    %rcx,0x100afbe(%rip)        # 110f000 <page_heap>
  104042:	48 c7 80 10 20 00 00 	movq   $0x1800000,0x2010(%rax)
  104049:	00 00 80 01 
  10404d:	48 b9 0c 00 00 00 ff 	movabs $0x17ff0000000c,%rcx
  104054:	17 00 00 
  104057:	48 89 88 08 20 00 00 	mov    %rcx,0x2008(%rax)
  10405e:	c7 80 18 20 00 00 00 	movl   $0x0,0x2018(%rax)
  104065:	00 00 00 
  104068:	66 0f 6f 05 30 7a 00 	movdqa 0x7a30(%rip),%xmm0        # 10baa0 <font_bits+0xaa0>
  10406f:	00 
  104070:	b9 16 00 00 00       	mov    $0x16,%ecx
  104075:	66 0f 6f 0d 33 7a 00 	movdqa 0x7a33(%rip),%xmm1        # 10bab0 <font_bits+0xab0>
  10407c:	00 
  10407d:	66 0f 6f 15 3b 7a 00 	movdqa 0x7a3b(%rip),%xmm2        # 10bac0 <font_bits+0xac0>
  104084:	00 
  104085:	66 0f 6f 1d 43 7a 00 	movdqa 0x7a43(%rip),%xmm3        # 10bad0 <font_bits+0xad0>
  10408c:	00 
  10408d:	66 0f 6f 25 4b 7a 00 	movdqa 0x7a4b(%rip),%xmm4        # 10bae0 <font_bits+0xae0>
  104094:	00 
  104095:	66 66 2e 0f 1f 84 00 	data16 cs nopw 0x0(%rax,%rax,1)
  10409c:	00 00 00 00 
  1040a0:	66 0f 6f e8          	movdqa %xmm0,%xmm5
  1040a4:	66 0f 73 f5 0c       	psllq  $0xc,%xmm5
  1040a9:	66 0f 6f f5          	movdqa %xmm5,%xmm6
  1040ad:	66 0f d4 f1          	paddq  %xmm1,%xmm6
  1040b1:	66 0f 7f ac c8 d0 1f 	movdqa %xmm5,0x1fd0(%rax,%rcx,8)
  1040b8:	00 00 
  1040ba:	66 0f 7f b4 c8 e0 1f 	movdqa %xmm6,0x1fe0(%rax,%rcx,8)
  1040c1:	00 00 
  1040c3:	66 0f 6f f5          	movdqa %xmm5,%xmm6
  1040c7:	66 0f d4 f2          	paddq  %xmm2,%xmm6
  1040cb:	66 0f d4 eb          	paddq  %xmm3,%xmm5
  1040cf:	66 0f 7f b4 c8 f0 1f 	movdqa %xmm6,0x1ff0(%rax,%rcx,8)
  1040d6:	00 00 
  1040d8:	66 0f 7f ac c8 00 20 	movdqa %xmm5,0x2000(%rax,%rcx,8)
  1040df:	00 00 
  1040e1:	66 0f d4 c4          	paddq  %xmm4,%xmm0
  1040e5:	48 83 c1 08          	add    $0x8,%rcx
  1040e9:	48 81 f9 06 18 00 00 	cmp    $0x1806,%rcx
  1040f0:	75 ae                	jne    1040a0 <k_pageobj_heap_setup+0x90>
  1040f2:	b8 20 f4 11 01       	mov    $0x111f420,%eax
  1040f7:	48 25 00 f0 ff ff    	and    $0xfffffffffffff000,%rax
  1040fd:	48 c7 80 00 e0 00 00 	movq   $0x17fc000,0xe000(%rax)
  104104:	00 c0 7f 01 
  104108:	48 c7 80 08 e0 00 00 	movq   $0x17fd000,0xe008(%rax)
  10410f:	00 d0 7f 01 
  104113:	48 c7 80 10 e0 00 00 	movq   $0x17fe000,0xe010(%rax)
  10411a:	00 e0 7f 01 
  10411e:	5d                   	pop    %rbp
  10411f:	c3                   	ret

0000000000104120 <k_pageobj_add_heapblk>:
  104120:	55                   	push   %rbp
  104121:	48 89 e5             	mov    %rsp,%rbp
  104124:	48 89 d0             	mov    %rdx,%rax
  104127:	48 8b 0f             	mov    (%rdi),%rcx
  10412a:	48 89 0e             	mov    %rcx,(%rsi)
  10412d:	48 89 37             	mov    %rsi,(%rdi)
  104130:	48 89 56 10          	mov    %rdx,0x10(%rsi)
  104134:	8b 7f 08             	mov    0x8(%rdi),%edi
  104137:	48 29 f8             	sub    %rdi,%rax
  10413a:	48 89 c1             	mov    %rax,%rcx
  10413d:	48 c1 e9 20          	shr    $0x20,%rcx
  104141:	74 0a                	je     10414d <k_pageobj_add_heapblk+0x2d>
  104143:	31 d2                	xor    %edx,%edx
  104145:	48 f7 f7             	div    %rdi
  104148:	48 89 c1             	mov    %rax,%rcx
  10414b:	eb 06                	jmp    104153 <k_pageobj_add_heapblk+0x33>
  10414d:	31 d2                	xor    %edx,%edx
  10414f:	f7 f7                	div    %edi
  104151:	89 c1                	mov    %eax,%ecx
  104153:	89 4e 0c             	mov    %ecx,0xc(%rsi)
  104156:	48 89 c8             	mov    %rcx,%rax
  104159:	48 c1 e0 03          	shl    $0x3,%rax
  10415d:	41 89 c0             	mov    %eax,%r8d
  104160:	31 d2                	xor    %edx,%edx
  104162:	f7 f7                	div    %edi
  104164:	48 89 c2             	mov    %rax,%rdx
  104167:	48 0f af d7          	imul   %rdi,%rdx
  10416b:	4c 39 c2             	cmp    %r8,%rdx
  10416e:	48 83 d0 00          	adc    $0x0,%rax
  104172:	89 46 08             	mov    %eax,0x8(%rsi)
  104175:	c7 46 18 00 00 00 00 	movl   $0x0,0x18(%rsi)
  10417c:	89 c9                	mov    %ecx,%ecx
  10417e:	48 39 c8             	cmp    %rcx,%rax
  104181:	73 21                	jae    1041a4 <k_pageobj_add_heapblk+0x84>
  104183:	66 66 66 66 2e 0f 1f 	data16 data16 data16 cs nopw 0x0(%rax,%rax,1)
  10418a:	84 00 00 00 00 00 
  104190:	48 89 c2             	mov    %rax,%rdx
  104193:	48 0f af d7          	imul   %rdi,%rdx
  104197:	48 89 54 c6 20       	mov    %rdx,0x20(%rsi,%rax,8)
  10419c:	48 ff c0             	inc    %rax
  10419f:	48 39 c8             	cmp    %rcx,%rax
  1041a2:	72 ec                	jb     104190 <k_pageobj_add_heapblk+0x70>
  1041a4:	b8 01 00 00 00       	mov    $0x1,%eax
  1041a9:	5d                   	pop    %rbp
  1041aa:	c3                   	ret
  1041ab:	0f 1f 44 00 00       	nopl   0x0(%rax,%rax,1)

00000000001041b0 <k_pageobj_alloc>:
  1041b0:	55                   	push   %rbp
  1041b1:	48 89 e5             	mov    %rsp,%rbp
  1041b4:	41 57                	push   %r15
  1041b6:	41 56                	push   %r14
  1041b8:	41 54                	push   %r12
  1041ba:	53                   	push   %rbx
  1041bb:	8b 5f 08             	mov    0x8(%rdi),%ebx
  1041be:	48 39 f3             	cmp    %rsi,%rbx
  1041c1:	73 07                	jae    1041ca <k_pageobj_alloc+0x1a>
  1041c3:	31 db                	xor    %ebx,%ebx
  1041c5:	e9 42 02 00 00       	jmp    10440c <k_pageobj_alloc+0x25c>
  1041ca:	49 89 f6             	mov    %rsi,%r14
  1041cd:	49 89 fc             	mov    %rdi,%r12
  1041d0:	48 89 f8             	mov    %rdi,%rax
  1041d3:	66 66 66 66 2e 0f 1f 	data16 data16 data16 cs nopw 0x0(%rax,%rax,1)
  1041da:	84 00 00 00 00 00 
  1041e0:	48 8b 00             	mov    (%rax),%rax
  1041e3:	48 85 c0             	test   %rax,%rax
  1041e6:	74 3b                	je     104223 <k_pageobj_alloc+0x73>
  1041e8:	8b 50 08             	mov    0x8(%rax),%edx
  1041eb:	8b 48 0c             	mov    0xc(%rax),%ecx
  1041ee:	39 ca                	cmp    %ecx,%edx
  1041f0:	74 ee                	je     1041e0 <k_pageobj_alloc+0x30>
  1041f2:	8d 72 01             	lea    0x1(%rdx),%esi
  1041f5:	89 70 08             	mov    %esi,0x8(%rax)
  1041f8:	48 01 c3             	add    %rax,%rbx
  1041fb:	48 03 5c d0 20       	add    0x20(%rax,%rdx,8),%rbx
  104200:	29 f1                	sub    %esi,%ecx
  104202:	83 f9 02             	cmp    $0x2,%ecx
  104205:	77 06                	ja     10420d <k_pageobj_alloc+0x5d>
  104207:	83 78 18 00          	cmpl   $0x0,0x18(%rax)
  10420b:	74 72                	je     10427f <k_pageobj_alloc+0xcf>
  10420d:	4d 85 f6             	test   %r14,%r14
  104210:	0f 84 f6 01 00 00    	je     10440c <k_pageobj_alloc+0x25c>
  104216:	49 83 fe 08          	cmp    $0x8,%r14
  10421a:	73 56                	jae    104272 <k_pageobj_alloc+0xc2>
  10421c:	31 c0                	xor    %eax,%eax
  10421e:	e9 dd 01 00 00       	jmp    104400 <k_pageobj_alloc+0x250>
  104223:	49 8b 04 24          	mov    (%r12),%rax
  104227:	48 83 78 10 00       	cmpq   $0x0,0x10(%rax)
  10422c:	74 2a                	je     104258 <k_pageobj_alloc+0xa8>
  10422e:	bf 25 ba 10 00       	mov    $0x10ba25,%edi
  104233:	e8 38 d6 ff ff       	call   101870 <dbgconout>
  104238:	49 8b 3c 24          	mov    (%r12),%rdi
  10423c:	e8 bf d4 ff ff       	call   101700 <dbgnumout_hex>
  104241:	49 8b 04 24          	mov    (%r12),%rax
  104245:	48 8b 78 10          	mov    0x10(%rax),%rdi
  104249:	e8 b2 d4 ff ff       	call   101700 <dbgnumout_hex>
  10424e:	bb ef be ad de       	mov    $0xdeadbeef,%ebx
  104253:	e9 b4 01 00 00       	jmp    10440c <k_pageobj_alloc+0x25c>
  104258:	bf ff b9 10 00       	mov    $0x10b9ff,%edi
  10425d:	e8 0e d6 ff ff       	call   101870 <dbgconout>
  104262:	49 8b 04 24          	mov    (%r12),%rax
  104266:	48 8b 78 10          	mov    0x10(%rax),%rdi
  10426a:	e8 91 d4 ff ff       	call   101700 <dbgnumout_hex>
  10426f:	90                   	nop
  104270:	eb fe                	jmp    104270 <k_pageobj_alloc+0xc0>
  104272:	49 83 fe 20          	cmp    $0x20,%r14
  104276:	73 55                	jae    1042cd <k_pageobj_alloc+0x11d>
  104278:	31 c0                	xor    %eax,%eax
  10427a:	e9 4e 01 00 00       	jmp    1043cd <k_pageobj_alloc+0x21d>
  10427f:	c7 40 18 01 00 00 00 	movl   $0x1,0x18(%rax)
  104286:	bf 10 00 00 00       	mov    $0x10,%edi
  10428b:	e8 10 fb ff ff       	call   103da0 <page_find_and_alloc>
  104290:	49 89 c7             	mov    %rax,%r15
  104293:	31 c0                	xor    %eax,%eax
  104295:	e8 46 fd ff ff       	call   103fe0 <page_flush>
  10429a:	49 8b 04 24          	mov    (%r12),%rax
  10429e:	49 89 07             	mov    %rax,(%r15)
  1042a1:	4d 89 3c 24          	mov    %r15,(%r12)
  1042a5:	49 c7 47 10 00 00 00 	movq   $0x2000000,0x10(%r15)
  1042ac:	02 
  1042ad:	41 8b 74 24 08       	mov    0x8(%r12),%esi
  1042b2:	b8 00 00 00 02       	mov    $0x2000000,%eax
  1042b7:	48 29 f0             	sub    %rsi,%rax
  1042ba:	48 89 c1             	mov    %rax,%rcx
  1042bd:	48 c1 e9 20          	shr    $0x20,%rcx
  1042c1:	74 31                	je     1042f4 <k_pageobj_alloc+0x144>
  1042c3:	31 d2                	xor    %edx,%edx
  1042c5:	48 f7 f6             	div    %rsi
  1042c8:	48 89 c1             	mov    %rax,%rcx
  1042cb:	eb 2d                	jmp    1042fa <k_pageobj_alloc+0x14a>
  1042cd:	4c 89 f0             	mov    %r14,%rax
  1042d0:	48 83 e0 e0          	and    $0xffffffffffffffe0,%rax
  1042d4:	48 8d 70 e0          	lea    -0x20(%rax),%rsi
  1042d8:	48 89 f2             	mov    %rsi,%rdx
  1042db:	48 c1 ea 05          	shr    $0x5,%rdx
  1042df:	48 ff c2             	inc    %rdx
  1042e2:	89 d1                	mov    %edx,%ecx
  1042e4:	83 e1 03             	and    $0x3,%ecx
  1042e7:	48 83 fe 60          	cmp    $0x60,%rsi
  1042eb:	73 5c                	jae    104349 <k_pageobj_alloc+0x199>
  1042ed:	31 f6                	xor    %esi,%esi
  1042ef:	e9 9d 00 00 00       	jmp    104391 <k_pageobj_alloc+0x1e1>
  1042f4:	31 d2                	xor    %edx,%edx
  1042f6:	f7 f6                	div    %esi
  1042f8:	89 c1                	mov    %eax,%ecx
  1042fa:	41 89 4f 0c          	mov    %ecx,0xc(%r15)
  1042fe:	48 89 c8             	mov    %rcx,%rax
  104301:	48 c1 e0 03          	shl    $0x3,%rax
  104305:	89 c7                	mov    %eax,%edi
  104307:	31 d2                	xor    %edx,%edx
  104309:	f7 f6                	div    %esi
  10430b:	48 89 c2             	mov    %rax,%rdx
  10430e:	48 0f af d6          	imul   %rsi,%rdx
  104312:	48 39 fa             	cmp    %rdi,%rdx
  104315:	48 83 d0 00          	adc    $0x0,%rax
  104319:	41 89 47 08          	mov    %eax,0x8(%r15)
  10431d:	41 c7 47 18 00 00 00 	movl   $0x0,0x18(%r15)
  104324:	00 
  104325:	89 c9                	mov    %ecx,%ecx
  104327:	48 39 c8             	cmp    %rcx,%rax
  10432a:	0f 83 dd fe ff ff    	jae    10420d <k_pageobj_alloc+0x5d>
  104330:	48 89 c2             	mov    %rax,%rdx
  104333:	48 0f af d6          	imul   %rsi,%rdx
  104337:	49 89 54 c7 20       	mov    %rdx,0x20(%r15,%rax,8)
  10433c:	48 ff c0             	inc    %rax
  10433f:	48 39 c8             	cmp    %rcx,%rax
  104342:	72 ec                	jb     104330 <k_pageobj_alloc+0x180>
  104344:	e9 c4 fe ff ff       	jmp    10420d <k_pageobj_alloc+0x5d>
  104349:	48 83 e2 fc          	and    $0xfffffffffffffffc,%rdx
  10434d:	48 8d 7b 70          	lea    0x70(%rbx),%rdi
  104351:	31 f6                	xor    %esi,%esi
  104353:	0f 57 c0             	xorps  %xmm0,%xmm0
  104356:	66 2e 0f 1f 84 00 00 	cs nopw 0x0(%rax,%rax,1)
  10435d:	00 00 00 
  104360:	0f 11 44 37 90       	movups %xmm0,-0x70(%rdi,%rsi,1)
  104365:	0f 11 44 37 a0       	movups %xmm0,-0x60(%rdi,%rsi,1)
  10436a:	0f 11 44 37 b0       	movups %xmm0,-0x50(%rdi,%rsi,1)
  10436f:	0f 11 44 37 c0       	movups %xmm0,-0x40(%rdi,%rsi,1)
  104374:	0f 11 44 37 d0       	movups %xmm0,-0x30(%rdi,%rsi,1)
  104379:	0f 11 44 37 e0       	movups %xmm0,-0x20(%rdi,%rsi,1)
  10437e:	0f 11 44 37 f0       	movups %xmm0,-0x10(%rdi,%rsi,1)
  104383:	0f 11 04 37          	movups %xmm0,(%rdi,%rsi,1)
  104387:	48 83 ee 80          	sub    $0xffffffffffffff80,%rsi
  10438b:	48 83 c2 fc          	add    $0xfffffffffffffffc,%rdx
  10438f:	75 cf                	jne    104360 <k_pageobj_alloc+0x1b0>
  104391:	48 85 c9             	test   %rcx,%rcx
  104394:	74 2c                	je     1043c2 <k_pageobj_alloc+0x212>
  104396:	48 8d 14 1e          	lea    (%rsi,%rbx,1),%rdx
  10439a:	48 83 c2 10          	add    $0x10,%rdx
  10439e:	48 c1 e1 05          	shl    $0x5,%rcx
  1043a2:	31 f6                	xor    %esi,%esi
  1043a4:	0f 57 c0             	xorps  %xmm0,%xmm0
  1043a7:	66 0f 1f 84 00 00 00 	nopw   0x0(%rax,%rax,1)
  1043ae:	00 00 
  1043b0:	0f 11 44 32 f0       	movups %xmm0,-0x10(%rdx,%rsi,1)
  1043b5:	0f 11 04 32          	movups %xmm0,(%rdx,%rsi,1)
  1043b9:	48 83 c6 20          	add    $0x20,%rsi
  1043bd:	48 39 f1             	cmp    %rsi,%rcx
  1043c0:	75 ee                	jne    1043b0 <k_pageobj_alloc+0x200>
  1043c2:	4c 39 f0             	cmp    %r14,%rax
  1043c5:	74 45                	je     10440c <k_pageobj_alloc+0x25c>
  1043c7:	41 f6 c6 18          	test   $0x18,%r14b
  1043cb:	74 33                	je     104400 <k_pageobj_alloc+0x250>
  1043cd:	48 89 c1             	mov    %rax,%rcx
  1043d0:	4c 89 f0             	mov    %r14,%rax
  1043d3:	48 83 e0 f8          	and    $0xfffffffffffffff8,%rax
  1043d7:	66 0f 1f 84 00 00 00 	nopw   0x0(%rax,%rax,1)
  1043de:	00 00 
  1043e0:	48 c7 04 0b 00 00 00 	movq   $0x0,(%rbx,%rcx,1)
  1043e7:	00 
  1043e8:	48 83 c1 08          	add    $0x8,%rcx
  1043ec:	48 39 c8             	cmp    %rcx,%rax
  1043ef:	75 ef                	jne    1043e0 <k_pageobj_alloc+0x230>
  1043f1:	4c 39 f0             	cmp    %r14,%rax
  1043f4:	74 16                	je     10440c <k_pageobj_alloc+0x25c>
  1043f6:	66 2e 0f 1f 84 00 00 	cs nopw 0x0(%rax,%rax,1)
  1043fd:	00 00 00 
  104400:	c6 04 03 00          	movb   $0x0,(%rbx,%rax,1)
  104404:	48 ff c0             	inc    %rax
  104407:	49 39 c6             	cmp    %rax,%r14
  10440a:	75 f4                	jne    104400 <k_pageobj_alloc+0x250>
  10440c:	48 89 d8             	mov    %rbx,%rax
  10440f:	5b                   	pop    %rbx
  104410:	41 5c                	pop    %r12
  104412:	41 5e                	pop    %r14
  104414:	41 5f                	pop    %r15
  104416:	5d                   	pop    %rbp
  104417:	c3                   	ret
  104418:	0f 1f 84 00 00 00 00 	nopl   0x0(%rax,%rax,1)
  10441f:	00 

0000000000104420 <k_pageobj_free>:
  104420:	55                   	push   %rbp
  104421:	48 89 e5             	mov    %rsp,%rbp
  104424:	41 57                	push   %r15
  104426:	41 56                	push   %r14
  104428:	53                   	push   %rbx
  104429:	50                   	push   %rax
  10442a:	4c 8b 3f             	mov    (%rdi),%r15
  10442d:	4d 85 ff             	test   %r15,%r15
  104430:	74 70                	je     1044a2 <k_pageobj_free+0x82>
  104432:	49 89 fe             	mov    %rdi,%r14
  104435:	4c 89 fb             	mov    %r15,%rbx
  104438:	eb 0e                	jmp    104448 <k_pageobj_free+0x28>
  10443a:	66 0f 1f 44 00 00    	nopw   0x0(%rax,%rax,1)
  104440:	48 8b 1b             	mov    (%rbx),%rbx
  104443:	48 85 db             	test   %rbx,%rbx
  104446:	74 5a                	je     1044a2 <k_pageobj_free+0x82>
  104448:	48 39 f3             	cmp    %rsi,%rbx
  10444b:	73 f3                	jae    104440 <k_pageobj_free+0x20>
  10444d:	48 8b 43 10          	mov    0x10(%rbx),%rax
  104451:	48 8d 0c 18          	lea    (%rax,%rbx,1),%rcx
  104455:	48 39 f1             	cmp    %rsi,%rcx
  104458:	76 e6                	jbe    104440 <k_pageobj_free+0x20>
  10445a:	41 8b 4e 08          	mov    0x8(%r14),%ecx
  10445e:	48 01 d9             	add    %rbx,%rcx
  104461:	48 29 ce             	sub    %rcx,%rsi
  104464:	8b 4b 08             	mov    0x8(%rbx),%ecx
  104467:	ff c9                	dec    %ecx
  104469:	89 4b 08             	mov    %ecx,0x8(%rbx)
  10446c:	48 89 74 cb 20       	mov    %rsi,0x20(%rbx,%rcx,8)
  104471:	48 3d 00 00 00 02    	cmp    $0x2000000,%rax
  104477:	75 53                	jne    1044cc <k_pageobj_free+0xac>
  104479:	83 f9 10             	cmp    $0x10,%ecx
  10447c:	75 4e                	jne    1044cc <k_pageobj_free+0xac>
  10447e:	49 39 df             	cmp    %rbx,%r15
  104481:	74 33                	je     1044b6 <k_pageobj_free+0x96>
  104483:	bf 56 ba 10 00       	mov    $0x10ba56,%edi
  104488:	e8 e3 d3 ff ff       	call   101870 <dbgconout>
  10448d:	0f 1f 00             	nopl   (%rax)
  104490:	4d 8b 3f             	mov    (%r15),%r15
  104493:	49 39 df             	cmp    %rbx,%r15
  104496:	75 f8                	jne    104490 <k_pageobj_free+0x70>
  104498:	48 8b 73 10          	mov    0x10(%rbx),%rsi
  10449c:	48 c1 ee 15          	shr    $0x15,%rsi
  1044a0:	eb 1f                	jmp    1044c1 <k_pageobj_free+0xa1>
  1044a2:	bf 4a ba 10 00       	mov    $0x10ba4a,%edi
  1044a7:	48 83 c4 08          	add    $0x8,%rsp
  1044ab:	5b                   	pop    %rbx
  1044ac:	41 5e                	pop    %r14
  1044ae:	41 5f                	pop    %r15
  1044b0:	5d                   	pop    %rbp
  1044b1:	e9 ba d3 ff ff       	jmp    101870 <dbgconout>
  1044b6:	49 8b 07             	mov    (%r15),%rax
  1044b9:	49 89 06             	mov    %rax,(%r14)
  1044bc:	be 10 00 00 00       	mov    $0x10,%esi
  1044c1:	48 89 df             	mov    %rbx,%rdi
  1044c4:	e8 27 fa ff ff       	call   103ef0 <page_free_found>
  1044c9:	4d 8b 3e             	mov    (%r14),%r15
  1044cc:	41 8b 47 0c          	mov    0xc(%r15),%eax
  1044d0:	41 2b 47 08          	sub    0x8(%r15),%eax
  1044d4:	83 f8 03             	cmp    $0x3,%eax
  1044d7:	72 08                	jb     1044e1 <k_pageobj_free+0xc1>
  1044d9:	41 c7 47 18 00 00 00 	movl   $0x0,0x18(%r15)
  1044e0:	00 
  1044e1:	48 83 c4 08          	add    $0x8,%rsp
  1044e5:	5b                   	pop    %rbx
  1044e6:	41 5e                	pop    %r14
  1044e8:	41 5f                	pop    %r15
  1044ea:	5d                   	pop    %rbp
  1044eb:	c3                   	ret
  1044ec:	0f 1f 40 00          	nopl   0x0(%rax)

00000000001044f0 <pci_get_next_dev_ent>:
  1044f0:	55                   	push   %rbp
  1044f1:	48 89 e5             	mov    %rsp,%rbp
  1044f4:	48 85 ff             	test   %rdi,%rdi
  1044f7:	b8 10 f0 10 01       	mov    $0x110f010,%eax
  1044fc:	48 0f 45 c7          	cmovne %rdi,%rax
  104500:	48 8b 00             	mov    (%rax),%rax
  104503:	5d                   	pop    %rbp
  104504:	c3                   	ret
  104505:	66 66 2e 0f 1f 84 00 	data16 cs nopw 0x0(%rax,%rax,1)
  10450c:	00 00 00 00 

0000000000104510 <pci_new_dev_ent>:
  104510:	55                   	push   %rbp
  104511:	48 89 e5             	mov    %rsp,%rbp
  104514:	53                   	push   %rbx
  104515:	50                   	push   %rax
  104516:	48 8b 05 f3 aa 00 01 	mov    0x100aaf3(%rip),%rax        # 110f010 <pci_root>
  10451d:	48 85 c0             	test   %rax,%rax
  104520:	74 28                	je     10454a <pci_new_dev_ent+0x3a>
  104522:	66 66 66 66 66 2e 0f 	data16 data16 data16 data16 cs nopw 0x0(%rax,%rax,1)
  104529:	1f 84 00 00 00 00 00 
  104530:	48 89 c3             	mov    %rax,%rbx
  104533:	48 8b 00             	mov    (%rax),%rax
  104536:	48 85 c0             	test   %rax,%rax
  104539:	75 f5                	jne    104530 <pci_new_dev_ent+0x20>
  10453b:	bf 18 00 00 00       	mov    $0x18,%edi
  104540:	e8 cb e6 ff ff       	call   102c10 <k_obj_alloc>
  104545:	48 89 03             	mov    %rax,(%rbx)
  104548:	eb 2c                	jmp    104576 <pci_new_dev_ent+0x66>
  10454a:	bf 5d ba 10 00       	mov    $0x10ba5d,%edi
  10454f:	e8 1c d3 ff ff       	call   101870 <dbgconout>
  104554:	bf 18 00 00 00       	mov    $0x18,%edi
  104559:	e8 b2 e6 ff ff       	call   102c10 <k_obj_alloc>
  10455e:	48 89 05 ab aa 00 01 	mov    %rax,0x100aaab(%rip)        # 110f010 <pci_root>
  104565:	bf 69 ba 10 00       	mov    $0x10ba69,%edi
  10456a:	e8 01 d3 ff ff       	call   101870 <dbgconout>
  10456f:	48 8b 05 9a aa 00 01 	mov    0x100aa9a(%rip),%rax        # 110f010 <pci_root>
  104576:	48 83 c4 08          	add    $0x8,%rsp
  10457a:	5b                   	pop    %rbx
  10457b:	5d                   	pop    %rbp
  10457c:	c3                   	ret
  10457d:	0f 1f 00             	nopl   (%rax)

0000000000104580 <pci_write_conw>:
  104580:	55                   	push   %rbp
  104581:	48 89 e5             	mov    %rsp,%rbp
  104584:	c1 e7 10             	shl    $0x10,%edi
  104587:	c1 e6 0b             	shl    $0xb,%esi
  10458a:	09 fe                	or     %edi,%esi
  10458c:	c1 e2 08             	shl    $0x8,%edx
  10458f:	09 f2                	or     %esi,%edx
  104591:	83 e1 fc             	and    $0xfffffffc,%ecx
  104594:	8d 04 0a             	lea    (%rdx,%rcx,1),%eax
  104597:	05 00 00 00 80       	add    $0x80000000,%eax
  10459c:	66 ba f8 0c          	mov    $0xcf8,%dx
  1045a0:	ef                   	out    %eax,(%dx)
  1045a1:	44 89 c0             	mov    %r8d,%eax
  1045a4:	66 ba fc 0c          	mov    $0xcfc,%dx
  1045a8:	ef                   	out    %eax,(%dx)
  1045a9:	5d                   	pop    %rbp
  1045aa:	c3                   	ret
  1045ab:	0f 1f 44 00 00       	nopl   0x0(%rax,%rax,1)

00000000001045b0 <pci_read_conw>:
  1045b0:	55                   	push   %rbp
  1045b1:	48 89 e5             	mov    %rsp,%rbp
  1045b4:	c1 e7 10             	shl    $0x10,%edi
  1045b7:	c1 e6 0b             	shl    $0xb,%esi
  1045ba:	09 fe                	or     %edi,%esi
  1045bc:	c1 e2 08             	shl    $0x8,%edx
  1045bf:	09 f2                	or     %esi,%edx
  1045c1:	89 c8                	mov    %ecx,%eax
  1045c3:	83 e0 fc             	and    $0xfffffffc,%eax
  1045c6:	01 d0                	add    %edx,%eax
  1045c8:	05 00 00 00 80       	add    $0x80000000,%eax
  1045cd:	66 ba f8 0c          	mov    $0xcf8,%dx
  1045d1:	ef                   	out    %eax,(%dx)
  1045d2:	66 ba fc 0c          	mov    $0xcfc,%dx
  1045d6:	ed                   	in     (%dx),%eax
  1045d7:	c1 e1 03             	shl    $0x3,%ecx
  1045da:	80 e1 10             	and    $0x10,%cl
  1045dd:	d3 e8                	shr    %cl,%eax
  1045df:	5d                   	pop    %rbp
  1045e0:	c3                   	ret
  1045e1:	66 66 66 66 66 66 2e 	data16 data16 data16 data16 data16 cs nopw 0x0(%rax,%rax,1)
  1045e8:	0f 1f 84 00 00 00 00 
  1045ef:	00 

00000000001045f0 <pci_get_sub>:
  1045f0:	55                   	push   %rbp
  1045f1:	48 89 e5             	mov    %rsp,%rbp
  1045f4:	c1 e7 10             	shl    $0x10,%edi
  1045f7:	c1 e6 0b             	shl    $0xb,%esi
  1045fa:	09 fe                	or     %edi,%esi
  1045fc:	c1 e2 08             	shl    $0x8,%edx
  1045ff:	09 f2                	or     %esi,%edx
  104601:	8d 82 08 00 00 80    	lea    -0x7ffffff8(%rdx),%eax
  104607:	66 ba f8 0c          	mov    $0xcf8,%dx
  10460b:	ef                   	out    %eax,(%dx)
  10460c:	66 ba fc 0c          	mov    $0xcfc,%dx
  104610:	ed                   	in     (%dx),%eax
  104611:	c1 e8 10             	shr    $0x10,%eax
  104614:	5d                   	pop    %rbp
  104615:	c3                   	ret
  104616:	66 2e 0f 1f 84 00 00 	cs nopw 0x0(%rax,%rax,1)
  10461d:	00 00 00 

0000000000104620 <pci_get_sec>:
  104620:	55                   	push   %rbp
  104621:	48 89 e5             	mov    %rsp,%rbp
  104624:	c1 e7 10             	shl    $0x10,%edi
  104627:	c1 e6 0b             	shl    $0xb,%esi
  10462a:	09 fe                	or     %edi,%esi
  10462c:	c1 e2 08             	shl    $0x8,%edx
  10462f:	09 f2                	or     %esi,%edx
  104631:	8d 82 18 00 00 80    	lea    -0x7fffffe8(%rdx),%eax
  104637:	66 ba f8 0c          	mov    $0xcf8,%dx
  10463b:	ef                   	out    %eax,(%dx)
  10463c:	66 ba fc 0c          	mov    $0xcfc,%dx
  104640:	ed                   	in     (%dx),%eax
  104641:	c1 e8 08             	shr    $0x8,%eax
  104644:	5d                   	pop    %rbp
  104645:	c3                   	ret
  104646:	66 2e 0f 1f 84 00 00 	cs nopw 0x0(%rax,%rax,1)
  10464d:	00 00 00 

0000000000104650 <pci_get_cl>:
  104650:	55                   	push   %rbp
  104651:	48 89 e5             	mov    %rsp,%rbp
  104654:	c1 e7 10             	shl    $0x10,%edi
  104657:	c1 e6 0b             	shl    $0xb,%esi
  10465a:	09 fe                	or     %edi,%esi
  10465c:	c1 e2 08             	shl    $0x8,%edx
  10465f:	09 f2                	or     %esi,%edx
  104661:	8d 82 08 00 00 80    	lea    -0x7ffffff8(%rdx),%eax
  104667:	66 ba f8 0c          	mov    $0xcf8,%dx
  10466b:	ef                   	out    %eax,(%dx)
  10466c:	66 ba fc 0c          	mov    $0xcfc,%dx
  104670:	ed                   	in     (%dx),%eax
  104671:	c1 e8 18             	shr    $0x18,%eax
  104674:	5d                   	pop    %rbp
  104675:	c3                   	ret
  104676:	66 2e 0f 1f 84 00 00 	cs nopw 0x0(%rax,%rax,1)
  10467d:	00 00 00 

0000000000104680 <pci_get_type>:
  104680:	55                   	push   %rbp
  104681:	48 89 e5             	mov    %rsp,%rbp
  104684:	c1 e7 10             	shl    $0x10,%edi
  104687:	c1 e6 0b             	shl    $0xb,%esi
  10468a:	09 fe                	or     %edi,%esi
  10468c:	c1 e2 08             	shl    $0x8,%edx
  10468f:	09 f2                	or     %esi,%edx
  104691:	8d 82 0c 00 00 80    	lea    -0x7ffffff4(%rdx),%eax
  104697:	66 ba f8 0c          	mov    $0xcf8,%dx
  10469b:	ef                   	out    %eax,(%dx)
  10469c:	66 ba fc 0c          	mov    $0xcfc,%dx
  1046a0:	ed                   	in     (%dx),%eax
  1046a1:	c1 e8 10             	shr    $0x10,%eax
  1046a4:	5d                   	pop    %rbp
  1046a5:	c3                   	ret
  1046a6:	66 2e 0f 1f 84 00 00 	cs nopw 0x0(%rax,%rax,1)
  1046ad:	00 00 00 

00000000001046b0 <pci_get_vendor>:
  1046b0:	55                   	push   %rbp
  1046b1:	48 89 e5             	mov    %rsp,%rbp
  1046b4:	c1 e7 10             	shl    $0x10,%edi
  1046b7:	c1 e6 0b             	shl    $0xb,%esi
  1046ba:	09 fe                	or     %edi,%esi
  1046bc:	c1 e2 08             	shl    $0x8,%edx
  1046bf:	09 f2                	or     %esi,%edx
  1046c1:	8d 82 00 00 00 80    	lea    -0x80000000(%rdx),%eax
  1046c7:	66 ba f8 0c          	mov    $0xcf8,%dx
  1046cb:	ef                   	out    %eax,(%dx)
  1046cc:	66 ba fc 0c          	mov    $0xcfc,%dx
  1046d0:	ed                   	in     (%dx),%eax
  1046d1:	5d                   	pop    %rbp
  1046d2:	c3                   	ret
  1046d3:	66 66 66 66 2e 0f 1f 	data16 data16 data16 cs nopw 0x0(%rax,%rax,1)
  1046da:	84 00 00 00 00 00 

00000000001046e0 <pci_enum_func>:
  1046e0:	55                   	push   %rbp
  1046e1:	48 89 e5             	mov    %rsp,%rbp
  1046e4:	41 57                	push   %r15
  1046e6:	41 56                	push   %r14
  1046e8:	41 55                	push   %r13
  1046ea:	41 54                	push   %r12
  1046ec:	53                   	push   %rbx
  1046ed:	48 83 ec 18          	sub    $0x18,%rsp
  1046f1:	41 89 d4             	mov    %edx,%r12d
  1046f4:	89 7d cc             	mov    %edi,-0x34(%rbp)
  1046f7:	89 f8                	mov    %edi,%eax
  1046f9:	c1 e0 10             	shl    $0x10,%eax
  1046fc:	89 75 c8             	mov    %esi,-0x38(%rbp)
  1046ff:	89 f1                	mov    %esi,%ecx
  104701:	c1 e1 0b             	shl    $0xb,%ecx
  104704:	09 c1                	or     %eax,%ecx
  104706:	89 d3                	mov    %edx,%ebx
  104708:	c1 e3 08             	shl    $0x8,%ebx
  10470b:	09 cb                	or     %ecx,%ebx
  10470d:	8d 8b 08 00 00 80    	lea    -0x7ffffff8(%rbx),%ecx
  104713:	89 c8                	mov    %ecx,%eax
  104715:	66 ba f8 0c          	mov    $0xcf8,%dx
  104719:	ef                   	out    %eax,(%dx)
  10471a:	66 ba fc 0c          	mov    $0xcfc,%dx
  10471e:	ed                   	in     (%dx),%eax
  10471f:	41 89 c5             	mov    %eax,%r13d
  104722:	41 c1 ed 18          	shr    $0x18,%r13d
  104726:	89 c8                	mov    %ecx,%eax
  104728:	66 ba f8 0c          	mov    $0xcf8,%dx
  10472c:	ef                   	out    %eax,(%dx)
  10472d:	66 ba fc 0c          	mov    $0xcfc,%dx
  104731:	ed                   	in     (%dx),%eax
  104732:	41 89 c6             	mov    %eax,%r14d
  104735:	41 c1 ee 10          	shr    $0x10,%r14d
  104739:	8d 8b 00 00 00 80    	lea    -0x80000000(%rbx),%ecx
  10473f:	89 c8                	mov    %ecx,%eax
  104741:	66 ba f8 0c          	mov    $0xcf8,%dx
  104745:	ef                   	out    %eax,(%dx)
  104746:	66 ba fc 0c          	mov    $0xcfc,%dx
  10474a:	ed                   	in     (%dx),%eax
  10474b:	41 89 c7             	mov    %eax,%r15d
  10474e:	41 c1 ef 10          	shr    $0x10,%r15d
  104752:	89 c8                	mov    %ecx,%eax
  104754:	66 ba f8 0c          	mov    $0xcf8,%dx
  104758:	ef                   	out    %eax,(%dx)
  104759:	66 ba fc 0c          	mov    $0xcfc,%dx
  10475d:	ed                   	in     (%dx),%eax
  10475e:	89 45 d0             	mov    %eax,-0x30(%rbp)
  104761:	48 8b 05 a8 a8 00 01 	mov    0x100a8a8(%rip),%rax        # 110f010 <pci_root>
  104768:	48 85 c0             	test   %rax,%rax
  10476b:	74 32                	je     10479f <pci_enum_func+0xbf>
  10476d:	44 89 65 d4          	mov    %r12d,-0x2c(%rbp)
  104771:	66 66 66 66 66 66 2e 	data16 data16 data16 data16 data16 cs nopw 0x0(%rax,%rax,1)
  104778:	0f 1f 84 00 00 00 00 
  10477f:	00 
  104780:	49 89 c4             	mov    %rax,%r12
  104783:	48 8b 00             	mov    (%rax),%rax
  104786:	48 85 c0             	test   %rax,%rax
  104789:	75 f5                	jne    104780 <pci_enum_func+0xa0>
  10478b:	bf 18 00 00 00       	mov    $0x18,%edi
  104790:	e8 7b e4 ff ff       	call   102c10 <k_obj_alloc>
  104795:	49 89 04 24          	mov    %rax,(%r12)
  104799:	44 8b 65 d4          	mov    -0x2c(%rbp),%r12d
  10479d:	eb 2c                	jmp    1047cb <pci_enum_func+0xeb>
  10479f:	bf 5d ba 10 00       	mov    $0x10ba5d,%edi
  1047a4:	e8 c7 d0 ff ff       	call   101870 <dbgconout>
  1047a9:	bf 18 00 00 00       	mov    $0x18,%edi
  1047ae:	e8 5d e4 ff ff       	call   102c10 <k_obj_alloc>
  1047b3:	48 89 05 56 a8 00 01 	mov    %rax,0x100a856(%rip)        # 110f010 <pci_root>
  1047ba:	bf 69 ba 10 00       	mov    $0x10ba69,%edi
  1047bf:	e8 ac d0 ff ff       	call   101870 <dbgconout>
  1047c4:	48 8b 05 45 a8 00 01 	mov    0x100a845(%rip),%rax        # 110f010 <pci_root>
  1047cb:	8b 4d cc             	mov    -0x34(%rbp),%ecx
  1047ce:	88 48 08             	mov    %cl,0x8(%rax)
  1047d1:	8b 4d c8             	mov    -0x38(%rbp),%ecx
  1047d4:	88 48 09             	mov    %cl,0x9(%rax)
  1047d7:	44 88 60 0a          	mov    %r12b,0xa(%rax)
  1047db:	44 88 68 0b          	mov    %r13b,0xb(%rax)
  1047df:	44 88 70 0c          	mov    %r14b,0xc(%rax)
  1047e3:	8b 4d d0             	mov    -0x30(%rbp),%ecx
  1047e6:	66 89 48 0e          	mov    %cx,0xe(%rax)
  1047ea:	66 44 89 78 10       	mov    %r15w,0x10(%rax)
  1047ef:	41 80 fd 06          	cmp    $0x6,%r13b
  1047f3:	0f 85 aa 01 00 00    	jne    1049a3 <pci_enum_func+0x2c3>
  1047f9:	41 80 fe 04          	cmp    $0x4,%r14b
  1047fd:	0f 85 a0 01 00 00    	jne    1049a3 <pci_enum_func+0x2c3>
  104803:	81 cb 18 00 00 80    	or     $0x80000018,%ebx
  104809:	89 d8                	mov    %ebx,%eax
  10480b:	66 ba f8 0c          	mov    $0xcf8,%dx
  10480f:	ef                   	out    %eax,(%dx)
  104810:	66 ba fc 0c          	mov    $0xcfc,%dx
  104814:	ed                   	in     (%dx),%eax
  104815:	0f b6 dc             	movzbl %ah,%ebx
  104818:	89 df                	mov    %ebx,%edi
  10481a:	31 f6                	xor    %esi,%esi
  10481c:	e8 2f 03 00 00       	call   104b50 <pci_enum_dev>
  104821:	89 df                	mov    %ebx,%edi
  104823:	be 01 00 00 00       	mov    $0x1,%esi
  104828:	e8 23 03 00 00       	call   104b50 <pci_enum_dev>
  10482d:	89 df                	mov    %ebx,%edi
  10482f:	be 02 00 00 00       	mov    $0x2,%esi
  104834:	e8 17 03 00 00       	call   104b50 <pci_enum_dev>
  104839:	89 df                	mov    %ebx,%edi
  10483b:	be 03 00 00 00       	mov    $0x3,%esi
  104840:	e8 0b 03 00 00       	call   104b50 <pci_enum_dev>
  104845:	89 df                	mov    %ebx,%edi
  104847:	be 04 00 00 00       	mov    $0x4,%esi
  10484c:	e8 ff 02 00 00       	call   104b50 <pci_enum_dev>
  104851:	89 df                	mov    %ebx,%edi
  104853:	be 05 00 00 00       	mov    $0x5,%esi
  104858:	e8 f3 02 00 00       	call   104b50 <pci_enum_dev>
  10485d:	89 df                	mov    %ebx,%edi
  10485f:	be 06 00 00 00       	mov    $0x6,%esi
  104864:	e8 e7 02 00 00       	call   104b50 <pci_enum_dev>
  104869:	89 df                	mov    %ebx,%edi
  10486b:	be 07 00 00 00       	mov    $0x7,%esi
  104870:	e8 db 02 00 00       	call   104b50 <pci_enum_dev>
  104875:	89 df                	mov    %ebx,%edi
  104877:	be 08 00 00 00       	mov    $0x8,%esi
  10487c:	e8 cf 02 00 00       	call   104b50 <pci_enum_dev>
  104881:	89 df                	mov    %ebx,%edi
  104883:	be 09 00 00 00       	mov    $0x9,%esi
  104888:	e8 c3 02 00 00       	call   104b50 <pci_enum_dev>
  10488d:	89 df                	mov    %ebx,%edi
  10488f:	be 0a 00 00 00       	mov    $0xa,%esi
  104894:	e8 b7 02 00 00       	call   104b50 <pci_enum_dev>
  104899:	89 df                	mov    %ebx,%edi
  10489b:	be 0b 00 00 00       	mov    $0xb,%esi
  1048a0:	e8 ab 02 00 00       	call   104b50 <pci_enum_dev>
  1048a5:	89 df                	mov    %ebx,%edi
  1048a7:	be 0c 00 00 00       	mov    $0xc,%esi
  1048ac:	e8 9f 02 00 00       	call   104b50 <pci_enum_dev>
  1048b1:	89 df                	mov    %ebx,%edi
  1048b3:	be 0d 00 00 00       	mov    $0xd,%esi
  1048b8:	e8 93 02 00 00       	call   104b50 <pci_enum_dev>
  1048bd:	89 df                	mov    %ebx,%edi
  1048bf:	be 0e 00 00 00       	mov    $0xe,%esi
  1048c4:	e8 87 02 00 00       	call   104b50 <pci_enum_dev>
  1048c9:	89 df                	mov    %ebx,%edi
  1048cb:	be 0f 00 00 00       	mov    $0xf,%esi
  1048d0:	e8 7b 02 00 00       	call   104b50 <pci_enum_dev>
  1048d5:	89 df                	mov    %ebx,%edi
  1048d7:	be 10 00 00 00       	mov    $0x10,%esi
  1048dc:	e8 6f 02 00 00       	call   104b50 <pci_enum_dev>
  1048e1:	89 df                	mov    %ebx,%edi
  1048e3:	be 11 00 00 00       	mov    $0x11,%esi
  1048e8:	e8 63 02 00 00       	call   104b50 <pci_enum_dev>
  1048ed:	89 df                	mov    %ebx,%edi
  1048ef:	be 12 00 00 00       	mov    $0x12,%esi
  1048f4:	e8 57 02 00 00       	call   104b50 <pci_enum_dev>
  1048f9:	89 df                	mov    %ebx,%edi
  1048fb:	be 13 00 00 00       	mov    $0x13,%esi
  104900:	e8 4b 02 00 00       	call   104b50 <pci_enum_dev>
  104905:	89 df                	mov    %ebx,%edi
  104907:	be 14 00 00 00       	mov    $0x14,%esi
  10490c:	e8 3f 02 00 00       	call   104b50 <pci_enum_dev>
  104911:	89 df                	mov    %ebx,%edi
  104913:	be 15 00 00 00       	mov    $0x15,%esi
  104918:	e8 33 02 00 00       	call   104b50 <pci_enum_dev>
  10491d:	89 df                	mov    %ebx,%edi
  10491f:	be 16 00 00 00       	mov    $0x16,%esi
  104924:	e8 27 02 00 00       	call   104b50 <pci_enum_dev>
  104929:	89 df                	mov    %ebx,%edi
  10492b:	be 17 00 00 00       	mov    $0x17,%esi
  104930:	e8 1b 02 00 00       	call   104b50 <pci_enum_dev>
  104935:	89 df                	mov    %ebx,%edi
  104937:	be 18 00 00 00       	mov    $0x18,%esi
  10493c:	e8 0f 02 00 00       	call   104b50 <pci_enum_dev>
  104941:	89 df                	mov    %ebx,%edi
  104943:	be 19 00 00 00       	mov    $0x19,%esi
  104948:	e8 03 02 00 00       	call   104b50 <pci_enum_dev>
  10494d:	89 df                	mov    %ebx,%edi
  10494f:	be 1a 00 00 00       	mov    $0x1a,%esi
  104954:	e8 f7 01 00 00       	call   104b50 <pci_enum_dev>
  104959:	89 df                	mov    %ebx,%edi
  10495b:	be 1b 00 00 00       	mov    $0x1b,%esi
  104960:	e8 eb 01 00 00       	call   104b50 <pci_enum_dev>
  104965:	89 df                	mov    %ebx,%edi
  104967:	be 1c 00 00 00       	mov    $0x1c,%esi
  10496c:	e8 df 01 00 00       	call   104b50 <pci_enum_dev>
  104971:	89 df                	mov    %ebx,%edi
  104973:	be 1d 00 00 00       	mov    $0x1d,%esi
  104978:	e8 d3 01 00 00       	call   104b50 <pci_enum_dev>
  10497d:	89 df                	mov    %ebx,%edi
  10497f:	be 1e 00 00 00       	mov    $0x1e,%esi
  104984:	e8 c7 01 00 00       	call   104b50 <pci_enum_dev>
  104989:	89 df                	mov    %ebx,%edi
  10498b:	be 1f 00 00 00       	mov    $0x1f,%esi
  104990:	48 83 c4 18          	add    $0x18,%rsp
  104994:	5b                   	pop    %rbx
  104995:	41 5c                	pop    %r12
  104997:	41 5d                	pop    %r13
  104999:	41 5e                	pop    %r14
  10499b:	41 5f                	pop    %r15
  10499d:	5d                   	pop    %rbp
  10499e:	e9 ad 01 00 00       	jmp    104b50 <pci_enum_dev>
  1049a3:	48 83 c4 18          	add    $0x18,%rsp
  1049a7:	5b                   	pop    %rbx
  1049a8:	41 5c                	pop    %r12
  1049aa:	41 5d                	pop    %r13
  1049ac:	41 5e                	pop    %r14
  1049ae:	41 5f                	pop    %r15
  1049b0:	5d                   	pop    %rbp
  1049b1:	c3                   	ret
  1049b2:	66 66 66 66 66 2e 0f 	data16 data16 data16 data16 cs nopw 0x0(%rax,%rax,1)
  1049b9:	1f 84 00 00 00 00 00 

00000000001049c0 <pci_enum_bus>:
  1049c0:	55                   	push   %rbp
  1049c1:	48 89 e5             	mov    %rsp,%rbp
  1049c4:	53                   	push   %rbx
  1049c5:	50                   	push   %rax
  1049c6:	89 fb                	mov    %edi,%ebx
  1049c8:	31 f6                	xor    %esi,%esi
  1049ca:	e8 81 01 00 00       	call   104b50 <pci_enum_dev>
  1049cf:	89 df                	mov    %ebx,%edi
  1049d1:	be 01 00 00 00       	mov    $0x1,%esi
  1049d6:	e8 75 01 00 00       	call   104b50 <pci_enum_dev>
  1049db:	89 df                	mov    %ebx,%edi
  1049dd:	be 02 00 00 00       	mov    $0x2,%esi
  1049e2:	e8 69 01 00 00       	call   104b50 <pci_enum_dev>
  1049e7:	89 df                	mov    %ebx,%edi
  1049e9:	be 03 00 00 00       	mov    $0x3,%esi
  1049ee:	e8 5d 01 00 00       	call   104b50 <pci_enum_dev>
  1049f3:	89 df                	mov    %ebx,%edi
  1049f5:	be 04 00 00 00       	mov    $0x4,%esi
  1049fa:	e8 51 01 00 00       	call   104b50 <pci_enum_dev>
  1049ff:	89 df                	mov    %ebx,%edi
  104a01:	be 05 00 00 00       	mov    $0x5,%esi
  104a06:	e8 45 01 00 00       	call   104b50 <pci_enum_dev>
  104a0b:	89 df                	mov    %ebx,%edi
  104a0d:	be 06 00 00 00       	mov    $0x6,%esi
  104a12:	e8 39 01 00 00       	call   104b50 <pci_enum_dev>
  104a17:	89 df                	mov    %ebx,%edi
  104a19:	be 07 00 00 00       	mov    $0x7,%esi
  104a1e:	e8 2d 01 00 00       	call   104b50 <pci_enum_dev>
  104a23:	89 df                	mov    %ebx,%edi
  104a25:	be 08 00 00 00       	mov    $0x8,%esi
  104a2a:	e8 21 01 00 00       	call   104b50 <pci_enum_dev>
  104a2f:	89 df                	mov    %ebx,%edi
  104a31:	be 09 00 00 00       	mov    $0x9,%esi
  104a36:	e8 15 01 00 00       	call   104b50 <pci_enum_dev>
  104a3b:	89 df                	mov    %ebx,%edi
  104a3d:	be 0a 00 00 00       	mov    $0xa,%esi
  104a42:	e8 09 01 00 00       	call   104b50 <pci_enum_dev>
  104a47:	89 df                	mov    %ebx,%edi
  104a49:	be 0b 00 00 00       	mov    $0xb,%esi
  104a4e:	e8 fd 00 00 00       	call   104b50 <pci_enum_dev>
  104a53:	89 df                	mov    %ebx,%edi
  104a55:	be 0c 00 00 00       	mov    $0xc,%esi
  104a5a:	e8 f1 00 00 00       	call   104b50 <pci_enum_dev>
  104a5f:	89 df                	mov    %ebx,%edi
  104a61:	be 0d 00 00 00       	mov    $0xd,%esi
  104a66:	e8 e5 00 00 00       	call   104b50 <pci_enum_dev>
  104a6b:	89 df                	mov    %ebx,%edi
  104a6d:	be 0e 00 00 00       	mov    $0xe,%esi
  104a72:	e8 d9 00 00 00       	call   104b50 <pci_enum_dev>
  104a77:	89 df                	mov    %ebx,%edi
  104a79:	be 0f 00 00 00       	mov    $0xf,%esi
  104a7e:	e8 cd 00 00 00       	call   104b50 <pci_enum_dev>
  104a83:	89 df                	mov    %ebx,%edi
  104a85:	be 10 00 00 00       	mov    $0x10,%esi
  104a8a:	e8 c1 00 00 00       	call   104b50 <pci_enum_dev>
  104a8f:	89 df                	mov    %ebx,%edi
  104a91:	be 11 00 00 00       	mov    $0x11,%esi
  104a96:	e8 b5 00 00 00       	call   104b50 <pci_enum_dev>
  104a9b:	89 df                	mov    %ebx,%edi
  104a9d:	be 12 00 00 00       	mov    $0x12,%esi
  104aa2:	e8 a9 00 00 00       	call   104b50 <pci_enum_dev>
  104aa7:	89 df                	mov    %ebx,%edi
  104aa9:	be 13 00 00 00       	mov    $0x13,%esi
  104aae:	e8 9d 00 00 00       	call   104b50 <pci_enum_dev>
  104ab3:	89 df                	mov    %ebx,%edi
  104ab5:	be 14 00 00 00       	mov    $0x14,%esi
  104aba:	e8 91 00 00 00       	call   104b50 <pci_enum_dev>
  104abf:	89 df                	mov    %ebx,%edi
  104ac1:	be 15 00 00 00       	mov    $0x15,%esi
  104ac6:	e8 85 00 00 00       	call   104b50 <pci_enum_dev>
  104acb:	89 df                	mov    %ebx,%edi
  104acd:	be 16 00 00 00       	mov    $0x16,%esi
  104ad2:	e8 79 00 00 00       	call   104b50 <pci_enum_dev>
  104ad7:	89 df                	mov    %ebx,%edi
  104ad9:	be 17 00 00 00       	mov    $0x17,%esi
  104ade:	e8 6d 00 00 00       	call   104b50 <pci_enum_dev>
  104ae3:	89 df                	mov    %ebx,%edi
  104ae5:	be 18 00 00 00       	mov    $0x18,%esi
  104aea:	e8 61 00 00 00       	call   104b50 <pci_enum_dev>
  104aef:	89 df                	mov    %ebx,%edi
  104af1:	be 19 00 00 00       	mov    $0x19,%esi
  104af6:	e8 55 00 00 00       	call   104b50 <pci_enum_dev>
  104afb:	89 df                	mov    %ebx,%edi
  104afd:	be 1a 00 00 00       	mov    $0x1a,%esi
  104b02:	e8 49 00 00 00       	call   104b50 <pci_enum_dev>
  104b07:	89 df                	mov    %ebx,%edi
  104b09:	be 1b 00 00 00       	mov    $0x1b,%esi
  104b0e:	e8 3d 00 00 00       	call   104b50 <pci_enum_dev>
  104b13:	89 df                	mov    %ebx,%edi
  104b15:	be 1c 00 00 00       	mov    $0x1c,%esi
  104b1a:	e8 31 00 00 00       	call   104b50 <pci_enum_dev>
  104b1f:	89 df                	mov    %ebx,%edi
  104b21:	be 1d 00 00 00       	mov    $0x1d,%esi
  104b26:	e8 25 00 00 00       	call   104b50 <pci_enum_dev>
  104b2b:	89 df                	mov    %ebx,%edi
  104b2d:	be 1e 00 00 00       	mov    $0x1e,%esi
  104b32:	e8 19 00 00 00       	call   104b50 <pci_enum_dev>
  104b37:	89 df                	mov    %ebx,%edi
  104b39:	be 1f 00 00 00       	mov    $0x1f,%esi
  104b3e:	48 83 c4 08          	add    $0x8,%rsp
  104b42:	5b                   	pop    %rbx
  104b43:	5d                   	pop    %rbp
  104b44:	e9 07 00 00 00       	jmp    104b50 <pci_enum_dev>
  104b49:	0f 1f 80 00 00 00 00 	nopl   0x0(%rax)

0000000000104b50 <pci_enum_dev>:
  104b50:	55                   	push   %rbp
  104b51:	48 89 e5             	mov    %rsp,%rbp
  104b54:	41 57                	push   %r15
  104b56:	41 56                	push   %r14
  104b58:	53                   	push   %rbx
  104b59:	50                   	push   %rax
  104b5a:	89 f8                	mov    %edi,%eax
  104b5c:	c1 e0 10             	shl    $0x10,%eax
  104b5f:	89 f3                	mov    %esi,%ebx
  104b61:	c1 e3 0b             	shl    $0xb,%ebx
  104b64:	09 c3                	or     %eax,%ebx
  104b66:	8d 83 00 00 00 80    	lea    -0x80000000(%rbx),%eax
  104b6c:	66 ba f8 0c          	mov    $0xcf8,%dx
  104b70:	ef                   	out    %eax,(%dx)
  104b71:	66 ba fc 0c          	mov    $0xcfc,%dx
  104b75:	ed                   	in     (%dx),%eax
  104b76:	66 83 f8 ff          	cmp    $0xffff,%ax
  104b7a:	0f 84 33 01 00 00    	je     104cb3 <pci_enum_dev+0x163>
  104b80:	44 0f b6 f7          	movzbl %dil,%r14d
  104b84:	44 0f b6 fe          	movzbl %sil,%r15d
  104b88:	44 89 f7             	mov    %r14d,%edi
  104b8b:	44 89 fe             	mov    %r15d,%esi
  104b8e:	31 d2                	xor    %edx,%edx
  104b90:	e8 4b fb ff ff       	call   1046e0 <pci_enum_func>
  104b95:	89 d8                	mov    %ebx,%eax
  104b97:	0d 0c 00 00 80       	or     $0x8000000c,%eax
  104b9c:	66 ba f8 0c          	mov    $0xcf8,%dx
  104ba0:	ef                   	out    %eax,(%dx)
  104ba1:	66 ba fc 0c          	mov    $0xcfc,%dx
  104ba5:	ed                   	in     (%dx),%eax
  104ba6:	a9 00 00 80 00       	test   $0x800000,%eax
  104bab:	0f 84 02 01 00 00    	je     104cb3 <pci_enum_dev+0x163>
  104bb1:	89 d8                	mov    %ebx,%eax
  104bb3:	0d 00 01 00 80       	or     $0x80000100,%eax
  104bb8:	66 ba f8 0c          	mov    $0xcf8,%dx
  104bbc:	ef                   	out    %eax,(%dx)
  104bbd:	66 ba fc 0c          	mov    $0xcfc,%dx
  104bc1:	ed                   	in     (%dx),%eax
  104bc2:	66 83 f8 ff          	cmp    $0xffff,%ax
  104bc6:	74 10                	je     104bd8 <pci_enum_dev+0x88>
  104bc8:	44 89 f7             	mov    %r14d,%edi
  104bcb:	44 89 fe             	mov    %r15d,%esi
  104bce:	ba 01 00 00 00       	mov    $0x1,%edx
  104bd3:	e8 08 fb ff ff       	call   1046e0 <pci_enum_func>
  104bd8:	89 d8                	mov    %ebx,%eax
  104bda:	0d 00 02 00 80       	or     $0x80000200,%eax
  104bdf:	66 ba f8 0c          	mov    $0xcf8,%dx
  104be3:	ef                   	out    %eax,(%dx)
  104be4:	66 ba fc 0c          	mov    $0xcfc,%dx
  104be8:	ed                   	in     (%dx),%eax
  104be9:	66 83 f8 ff          	cmp    $0xffff,%ax
  104bed:	74 10                	je     104bff <pci_enum_dev+0xaf>
  104bef:	44 89 f7             	mov    %r14d,%edi
  104bf2:	44 89 fe             	mov    %r15d,%esi
  104bf5:	ba 02 00 00 00       	mov    $0x2,%edx
  104bfa:	e8 e1 fa ff ff       	call   1046e0 <pci_enum_func>
  104bff:	89 d8                	mov    %ebx,%eax
  104c01:	0d 00 03 00 80       	or     $0x80000300,%eax
  104c06:	66 ba f8 0c          	mov    $0xcf8,%dx
  104c0a:	ef                   	out    %eax,(%dx)
  104c0b:	66 ba fc 0c          	mov    $0xcfc,%dx
  104c0f:	ed                   	in     (%dx),%eax
  104c10:	66 83 f8 ff          	cmp    $0xffff,%ax
  104c14:	74 10                	je     104c26 <pci_enum_dev+0xd6>
  104c16:	44 89 f7             	mov    %r14d,%edi
  104c19:	44 89 fe             	mov    %r15d,%esi
  104c1c:	ba 03 00 00 00       	mov    $0x3,%edx
  104c21:	e8 ba fa ff ff       	call   1046e0 <pci_enum_func>
  104c26:	89 d8                	mov    %ebx,%eax
  104c28:	0d 00 04 00 80       	or     $0x80000400,%eax
  104c2d:	66 ba f8 0c          	mov    $0xcf8,%dx
  104c31:	ef                   	out    %eax,(%dx)
  104c32:	66 ba fc 0c          	mov    $0xcfc,%dx
  104c36:	ed                   	in     (%dx),%eax
  104c37:	66 83 f8 ff          	cmp    $0xffff,%ax
  104c3b:	74 10                	je     104c4d <pci_enum_dev+0xfd>
  104c3d:	44 89 f7             	mov    %r14d,%edi
  104c40:	44 89 fe             	mov    %r15d,%esi
  104c43:	ba 04 00 00 00       	mov    $0x4,%edx
  104c48:	e8 93 fa ff ff       	call   1046e0 <pci_enum_func>
  104c4d:	89 d8                	mov    %ebx,%eax
  104c4f:	0d 00 05 00 80       	or     $0x80000500,%eax
  104c54:	66 ba f8 0c          	mov    $0xcf8,%dx
  104c58:	ef                   	out    %eax,(%dx)
  104c59:	66 ba fc 0c          	mov    $0xcfc,%dx
  104c5d:	ed                   	in     (%dx),%eax
  104c5e:	66 83 f8 ff          	cmp    $0xffff,%ax
  104c62:	74 10                	je     104c74 <pci_enum_dev+0x124>
  104c64:	44 89 f7             	mov    %r14d,%edi
  104c67:	44 89 fe             	mov    %r15d,%esi
  104c6a:	ba 05 00 00 00       	mov    $0x5,%edx
  104c6f:	e8 6c fa ff ff       	call   1046e0 <pci_enum_func>
  104c74:	89 d8                	mov    %ebx,%eax
  104c76:	0d 00 06 00 80       	or     $0x80000600,%eax
  104c7b:	66 ba f8 0c          	mov    $0xcf8,%dx
  104c7f:	ef                   	out    %eax,(%dx)
  104c80:	66 ba fc 0c          	mov    $0xcfc,%dx
  104c84:	ed                   	in     (%dx),%eax
  104c85:	66 83 f8 ff          	cmp    $0xffff,%ax
  104c89:	74 10                	je     104c9b <pci_enum_dev+0x14b>
  104c8b:	44 89 f7             	mov    %r14d,%edi
  104c8e:	44 89 fe             	mov    %r15d,%esi
  104c91:	ba 06 00 00 00       	mov    $0x6,%edx
  104c96:	e8 45 fa ff ff       	call   1046e0 <pci_enum_func>
  104c9b:	81 cb 00 07 00 80    	or     $0x80000700,%ebx
  104ca1:	89 d8                	mov    %ebx,%eax
  104ca3:	66 ba f8 0c          	mov    $0xcf8,%dx
  104ca7:	ef                   	out    %eax,(%dx)
  104ca8:	66 ba fc 0c          	mov    $0xcfc,%dx
  104cac:	ed                   	in     (%dx),%eax
  104cad:	66 83 f8 ff          	cmp    $0xffff,%ax
  104cb1:	75 0b                	jne    104cbe <pci_enum_dev+0x16e>
  104cb3:	48 83 c4 08          	add    $0x8,%rsp
  104cb7:	5b                   	pop    %rbx
  104cb8:	41 5e                	pop    %r14
  104cba:	41 5f                	pop    %r15
  104cbc:	5d                   	pop    %rbp
  104cbd:	c3                   	ret
  104cbe:	44 89 f7             	mov    %r14d,%edi
  104cc1:	44 89 fe             	mov    %r15d,%esi
  104cc4:	ba 07 00 00 00       	mov    $0x7,%edx
  104cc9:	48 83 c4 08          	add    $0x8,%rsp
  104ccd:	5b                   	pop    %rbx
  104cce:	41 5e                	pop    %r14
  104cd0:	41 5f                	pop    %r15
  104cd2:	5d                   	pop    %rbp
  104cd3:	e9 08 fa ff ff       	jmp    1046e0 <pci_enum_func>
  104cd8:	0f 1f 84 00 00 00 00 	nopl   0x0(%rax,%rax,1)
  104cdf:	00 

0000000000104ce0 <pci_enum>:
  104ce0:	55                   	push   %rbp
  104ce1:	48 89 e5             	mov    %rsp,%rbp
  104ce4:	b8 0c 00 00 80       	mov    $0x8000000c,%eax
  104ce9:	66 ba f8 0c          	mov    $0xcf8,%dx
  104ced:	ef                   	out    %eax,(%dx)
  104cee:	66 ba fc 0c          	mov    $0xcfc,%dx
  104cf2:	ed                   	in     (%dx),%eax
  104cf3:	a9 00 00 80 00       	test   $0x800000,%eax
  104cf8:	75 0b                	jne    104d05 <pci_enum+0x25>
  104cfa:	31 c9                	xor    %ecx,%ecx
  104cfc:	0f b6 f9             	movzbl %cl,%edi
  104cff:	5d                   	pop    %rbp
  104d00:	e9 bb fc ff ff       	jmp    1049c0 <pci_enum_bus>
  104d05:	b8 00 00 00 80       	mov    $0x80000000,%eax
  104d0a:	66 ba f8 0c          	mov    $0xcf8,%dx
  104d0e:	ef                   	out    %eax,(%dx)
  104d0f:	66 ba fc 0c          	mov    $0xcfc,%dx
  104d13:	ed                   	in     (%dx),%eax
  104d14:	66 83 f8 ff          	cmp    $0xffff,%ax
  104d18:	0f 85 e8 00 00 00    	jne    104e06 <pci_enum+0x126>
  104d1e:	31 ff                	xor    %edi,%edi
  104d20:	e8 9b fc ff ff       	call   1049c0 <pci_enum_bus>
  104d25:	b8 00 01 00 80       	mov    $0x80000100,%eax
  104d2a:	66 ba f8 0c          	mov    $0xcf8,%dx
  104d2e:	ef                   	out    %eax,(%dx)
  104d2f:	66 ba fc 0c          	mov    $0xcfc,%dx
  104d33:	ed                   	in     (%dx),%eax
  104d34:	66 83 f8 ff          	cmp    $0xffff,%ax
  104d38:	0f 85 c8 00 00 00    	jne    104e06 <pci_enum+0x126>
  104d3e:	bf 01 00 00 00       	mov    $0x1,%edi
  104d43:	e8 78 fc ff ff       	call   1049c0 <pci_enum_bus>
  104d48:	b8 00 02 00 80       	mov    $0x80000200,%eax
  104d4d:	66 ba f8 0c          	mov    $0xcf8,%dx
  104d51:	ef                   	out    %eax,(%dx)
  104d52:	66 ba fc 0c          	mov    $0xcfc,%dx
  104d56:	ed                   	in     (%dx),%eax
  104d57:	66 83 f8 ff          	cmp    $0xffff,%ax
  104d5b:	0f 85 a5 00 00 00    	jne    104e06 <pci_enum+0x126>
  104d61:	bf 02 00 00 00       	mov    $0x2,%edi
  104d66:	e8 55 fc ff ff       	call   1049c0 <pci_enum_bus>
  104d6b:	b8 00 03 00 80       	mov    $0x80000300,%eax
  104d70:	66 ba f8 0c          	mov    $0xcf8,%dx
  104d74:	ef                   	out    %eax,(%dx)
  104d75:	66 ba fc 0c          	mov    $0xcfc,%dx
  104d79:	ed                   	in     (%dx),%eax
  104d7a:	66 83 f8 ff          	cmp    $0xffff,%ax
  104d7e:	0f 85 82 00 00 00    	jne    104e06 <pci_enum+0x126>
  104d84:	bf 03 00 00 00       	mov    $0x3,%edi
  104d89:	e8 32 fc ff ff       	call   1049c0 <pci_enum_bus>
  104d8e:	b8 00 04 00 80       	mov    $0x80000400,%eax
  104d93:	66 ba f8 0c          	mov    $0xcf8,%dx
  104d97:	ef                   	out    %eax,(%dx)
  104d98:	66 ba fc 0c          	mov    $0xcfc,%dx
  104d9c:	ed                   	in     (%dx),%eax
  104d9d:	66 83 f8 ff          	cmp    $0xffff,%ax
  104da1:	75 63                	jne    104e06 <pci_enum+0x126>
  104da3:	bf 04 00 00 00       	mov    $0x4,%edi
  104da8:	e8 13 fc ff ff       	call   1049c0 <pci_enum_bus>
  104dad:	b8 00 05 00 80       	mov    $0x80000500,%eax
  104db2:	66 ba f8 0c          	mov    $0xcf8,%dx
  104db6:	ef                   	out    %eax,(%dx)
  104db7:	66 ba fc 0c          	mov    $0xcfc,%dx
  104dbb:	ed                   	in     (%dx),%eax
  104dbc:	66 83 f8 ff          	cmp    $0xffff,%ax
  104dc0:	75 44                	jne    104e06 <pci_enum+0x126>
  104dc2:	bf 05 00 00 00       	mov    $0x5,%edi
  104dc7:	e8 f4 fb ff ff       	call   1049c0 <pci_enum_bus>
  104dcc:	b8 00 06 00 80       	mov    $0x80000600,%eax
  104dd1:	66 ba f8 0c          	mov    $0xcf8,%dx
  104dd5:	ef                   	out    %eax,(%dx)
  104dd6:	66 ba fc 0c          	mov    $0xcfc,%dx
  104dda:	ed                   	in     (%dx),%eax
  104ddb:	66 83 f8 ff          	cmp    $0xffff,%ax
  104ddf:	75 25                	jne    104e06 <pci_enum+0x126>
  104de1:	bf 06 00 00 00       	mov    $0x6,%edi
  104de6:	e8 d5 fb ff ff       	call   1049c0 <pci_enum_bus>
  104deb:	b8 00 07 00 80       	mov    $0x80000700,%eax
  104df0:	66 ba f8 0c          	mov    $0xcf8,%dx
  104df4:	ef                   	out    %eax,(%dx)
  104df5:	66 ba fc 0c          	mov    $0xcfc,%dx
  104df9:	ed                   	in     (%dx),%eax
  104dfa:	b1 07                	mov    $0x7,%cl
  104dfc:	66 83 f8 ff          	cmp    $0xffff,%ax
  104e00:	0f 84 f6 fe ff ff    	je     104cfc <pci_enum+0x1c>
  104e06:	5d                   	pop    %rbp
  104e07:	c3                   	ret
  104e08:	0f 1f 84 00 00 00 00 	nopl   0x0(%rax,%rax,1)
  104e0f:	00 

0000000000104e10 <timer_setup>:
  104e10:	55                   	push   %rbp
  104e11:	48 89 e5             	mov    %rsp,%rbp
  104e14:	bf 20 00 00 00       	mov    $0x20,%edi
  104e19:	be 22 a1 10 00       	mov    $0x10a122,%esi
  104e1e:	e8 0d d6 ff ff       	call   102430 <idt_set_irq_ent>
  104e23:	31 c0                	xor    %eax,%eax
  104e25:	5d                   	pop    %rbp
  104e26:	e9 45 d6 ff ff       	jmp    102470 <idt_flush>
  104e2b:	0f 1f 44 00 00       	nopl   0x0(%rax,%rax,1)

0000000000104e30 <timer_wait>:
  104e30:	55                   	push   %rbp
  104e31:	48 89 e5             	mov    %rsp,%rbp
  104e34:	5d                   	pop    %rbp
  104e35:	c3                   	ret
  104e36:	66 2e 0f 1f 84 00 00 	cs nopw 0x0(%rax,%rax,1)
  104e3d:	00 00 00 
  104e40:	66 2e 0f 1f 84 00 00 	cs nopw 0x0(%rax,%rax,1)
  104e47:	00 00 00 
  104e4a:	66 2e 0f 1f 84 00 00 	cs nopw 0x0(%rax,%rax,1)
  104e51:	00 00 00 
  104e54:	66 2e 0f 1f 84 00 00 	cs nopw 0x0(%rax,%rax,1)
  104e5b:	00 00 00 
  104e5e:	66 2e 0f 1f 84 00 00 	cs nopw 0x0(%rax,%rax,1)
  104e65:	00 00 00 
  104e68:	66 2e 0f 1f 84 00 00 	cs nopw 0x0(%rax,%rax,1)
  104e6f:	00 00 00 
  104e72:	66 2e 0f 1f 84 00 00 	cs nopw 0x0(%rax,%rax,1)
  104e79:	00 00 00 
  104e7c:	66 2e 0f 1f 84 00 00 	cs nopw 0x0(%rax,%rax,1)
  104e83:	00 00 00 
  104e86:	66 2e 0f 1f 84 00 00 	cs nopw 0x0(%rax,%rax,1)
  104e8d:	00 00 00 
  104e90:	66 2e 0f 1f 84 00 00 	cs nopw 0x0(%rax,%rax,1)
  104e97:	00 00 00 
  104e9a:	66 2e 0f 1f 84 00 00 	cs nopw 0x0(%rax,%rax,1)
  104ea1:	00 00 00 
  104ea4:	66 2e 0f 1f 84 00 00 	cs nopw 0x0(%rax,%rax,1)
  104eab:	00 00 00 
  104eae:	66 2e 0f 1f 84 00 00 	cs nopw 0x0(%rax,%rax,1)
  104eb5:	00 00 00 
  104eb8:	66 2e 0f 1f 84 00 00 	cs nopw 0x0(%rax,%rax,1)
  104ebf:	00 00 00 
  104ec2:	66 2e 0f 1f 84 00 00 	cs nopw 0x0(%rax,%rax,1)
  104ec9:	00 00 00 
  104ecc:	66 2e 0f 1f 84 00 00 	cs nopw 0x0(%rax,%rax,1)
  104ed3:	00 00 00 
  104ed6:	66 2e 0f 1f 84 00 00 	cs nopw 0x0(%rax,%rax,1)
  104edd:	00 00 00 
  104ee0:	66 2e 0f 1f 84 00 00 	cs nopw 0x0(%rax,%rax,1)
  104ee7:	00 00 00 
  104eea:	66 2e 0f 1f 84 00 00 	cs nopw 0x0(%rax,%rax,1)
  104ef1:	00 00 00 
  104ef4:	66 2e 0f 1f 84 00 00 	cs nopw 0x0(%rax,%rax,1)
  104efb:	00 00 00 
  104efe:	66 2e 0f 1f 84 00 00 	cs nopw 0x0(%rax,%rax,1)
  104f05:	00 00 00 
  104f08:	66 2e 0f 1f 84 00 00 	cs nopw 0x0(%rax,%rax,1)
  104f0f:	00 00 00 
  104f12:	66 2e 0f 1f 84 00 00 	cs nopw 0x0(%rax,%rax,1)
  104f19:	00 00 00 
  104f1c:	66 2e 0f 1f 84 00 00 	cs nopw 0x0(%rax,%rax,1)
  104f23:	00 00 00 
  104f26:	66 2e 0f 1f 84 00 00 	cs nopw 0x0(%rax,%rax,1)
  104f2d:	00 00 00 
  104f30:	66 2e 0f 1f 84 00 00 	cs nopw 0x0(%rax,%rax,1)
  104f37:	00 00 00 
  104f3a:	66 2e 0f 1f 84 00 00 	cs nopw 0x0(%rax,%rax,1)
  104f41:	00 00 00 
  104f44:	66 2e 0f 1f 84 00 00 	cs nopw 0x0(%rax,%rax,1)
  104f4b:	00 00 00 
  104f4e:	66 2e 0f 1f 84 00 00 	cs nopw 0x0(%rax,%rax,1)
  104f55:	00 00 00 
  104f58:	66 2e 0f 1f 84 00 00 	cs nopw 0x0(%rax,%rax,1)
  104f5f:	00 00 00 
  104f62:	66 2e 0f 1f 84 00 00 	cs nopw 0x0(%rax,%rax,1)
  104f69:	00 00 00 
  104f6c:	66 2e 0f 1f 84 00 00 	cs nopw 0x0(%rax,%rax,1)
  104f73:	00 00 00 
  104f76:	66 2e 0f 1f 84 00 00 	cs nopw 0x0(%rax,%rax,1)
  104f7d:	00 00 00 
  104f80:	66 2e 0f 1f 84 00 00 	cs nopw 0x0(%rax,%rax,1)
  104f87:	00 00 00 
  104f8a:	66 2e 0f 1f 84 00 00 	cs nopw 0x0(%rax,%rax,1)
  104f91:	00 00 00 
  104f94:	66 2e 0f 1f 84 00 00 	cs nopw 0x0(%rax,%rax,1)
  104f9b:	00 00 00 
  104f9e:	66 2e 0f 1f 84 00 00 	cs nopw 0x0(%rax,%rax,1)
  104fa5:	00 00 00 
  104fa8:	66 2e 0f 1f 84 00 00 	cs nopw 0x0(%rax,%rax,1)
  104faf:	00 00 00 
  104fb2:	66 2e 0f 1f 84 00 00 	cs nopw 0x0(%rax,%rax,1)
  104fb9:	00 00 00 
  104fbc:	66 2e 0f 1f 84 00 00 	cs nopw 0x0(%rax,%rax,1)
  104fc3:	00 00 00 
  104fc6:	66 2e 0f 1f 84 00 00 	cs nopw 0x0(%rax,%rax,1)
  104fcd:	00 00 00 
  104fd0:	66 2e 0f 1f 84 00 00 	cs nopw 0x0(%rax,%rax,1)
  104fd7:	00 00 00 
  104fda:	66 2e 0f 1f 84 00 00 	cs nopw 0x0(%rax,%rax,1)
  104fe1:	00 00 00 
  104fe4:	66 2e 0f 1f 84 00 00 	cs nopw 0x0(%rax,%rax,1)
  104feb:	00 00 00 
  104fee:	66 2e 0f 1f 84 00 00 	cs nopw 0x0(%rax,%rax,1)
  104ff5:	00 00 00 
  104ff8:	0f 1f 84 00 00 00 00 	nopl   0x0(%rax,%rax,1)
  104fff:	00 

0000000000105000 <tss>:
	...

0000000000105064 <gdtr>:
  105064:	35 00 6e 50 10       	xor    $0x10506e00,%eax
  105069:	00 00                	add    %al,(%rax)
  10506b:	00 00                	add    %al,(%rax)
	...

000000000010506e <gdt_start>:
	...

0000000000105076 <.krnlT_sd>:
  105076:	ff                   	(bad)
  105077:	ff 00                	incl   (%rax)
  105079:	00 00                	add    %al,(%rax)
  10507b:	9a                   	(bad)
  10507c:	af                   	scas   %es:(%rdi),%eax
	...

000000000010507e <.krnlD_sd>:
  10507e:	ff                   	(bad)
  10507f:	ff 00                	incl   (%rax)
  105081:	00 00                	add    %al,(%rax)
  105083:	92                   	xchg   %eax,%edx
  105084:	cf                   	iret
	...

0000000000105086 <.userT_sd>:
  105086:	ff                   	(bad)
  105087:	ff 00                	incl   (%rax)
  105089:	00 00                	add    %al,(%rax)
  10508b:	00 fa                	add    %bh,%dl
  10508d:	af                   	scas   %es:(%rdi),%eax
	...

000000000010508f <.userD_sd>:
  10508f:	ff                   	(bad)
  105090:	ff 00                	incl   (%rax)
  105092:	00 00                	add    %al,(%rax)
  105094:	00 f2                	add    %dh,%dl
  105096:	cf                   	iret
	...

0000000000105098 <.tss_sd>:
  105098:	64 00              	add    %al,%fs:(%rax)

000000000010509a <.tss_addr_w16>:
	...

000000000010509c <.tss_addr_b24>:
  10509c:	00 89 00       	add    %cl,0x0(%rcx)

000000000010509f <.tss_addr_b32>:
	...

00000000001050a0 <.tss_addr_i64>:
  1050a0:	00 00                	add    %al,(%rax)
	...

00000000001050a4 <eax_keep>:
	...

00000000001050ac <ebx_keep>:
	...
  1050b4:	66 2e 0f 1f 84 00 00 	cs nopw 0x0(%rax,%rax,1)
  1050bb:	00 00 00 
  1050be:	66 2e 0f 1f 84 00 00 	cs nopw 0x0(%rax,%rax,1)
  1050c5:	00 00 00 
  1050c8:	66 2e 0f 1f 84 00 00 	cs nopw 0x0(%rax,%rax,1)
  1050cf:	00 00 00 
  1050d2:	66 2e 0f 1f 84 00 00 	cs nopw 0x0(%rax,%rax,1)
  1050d9:	00 00 00 
  1050dc:	66 2e 0f 1f 84 00 00 	cs nopw 0x0(%rax,%rax,1)
  1050e3:	00 00 00 
  1050e6:	66 2e 0f 1f 84 00 00 	cs nopw 0x0(%rax,%rax,1)
  1050ed:	00 00 00 
  1050f0:	66 2e 0f 1f 84 00 00 	cs nopw 0x0(%rax,%rax,1)
  1050f7:	00 00 00 
  1050fa:	66 2e 0f 1f 84 00 00 	cs nopw 0x0(%rax,%rax,1)
  105101:	00 00 00 
  105104:	66 2e 0f 1f 84 00 00 	cs nopw 0x0(%rax,%rax,1)
  10510b:	00 00 00 
  10510e:	66 2e 0f 1f 84 00 00 	cs nopw 0x0(%rax,%rax,1)
  105115:	00 00 00 
  105118:	66 2e 0f 1f 84 00 00 	cs nopw 0x0(%rax,%rax,1)
  10511f:	00 00 00 
  105122:	66 2e 0f 1f 84 00 00 	cs nopw 0x0(%rax,%rax,1)
  105129:	00 00 00 
  10512c:	66 2e 0f 1f 84 00 00 	cs nopw 0x0(%rax,%rax,1)
  105133:	00 00 00 
  105136:	66 2e 0f 1f 84 00 00 	cs nopw 0x0(%rax,%rax,1)
  10513d:	00 00 00 
  105140:	66 2e 0f 1f 84 00 00 	cs nopw 0x0(%rax,%rax,1)
  105147:	00 00 00 
  10514a:	66 2e 0f 1f 84 00 00 	cs nopw 0x0(%rax,%rax,1)
  105151:	00 00 00 
  105154:	66 2e 0f 1f 84 00 00 	cs nopw 0x0(%rax,%rax,1)
  10515b:	00 00 00 
  10515e:	66 2e 0f 1f 84 00 00 	cs nopw 0x0(%rax,%rax,1)
  105165:	00 00 00 
  105168:	66 2e 0f 1f 84 00 00 	cs nopw 0x0(%rax,%rax,1)
  10516f:	00 00 00 
  105172:	66 2e 0f 1f 84 00 00 	cs nopw 0x0(%rax,%rax,1)
  105179:	00 00 00 
  10517c:	66 2e 0f 1f 84 00 00 	cs nopw 0x0(%rax,%rax,1)
  105183:	00 00 00 
  105186:	66 2e 0f 1f 84 00 00 	cs nopw 0x0(%rax,%rax,1)
  10518d:	00 00 00 
  105190:	66 2e 0f 1f 84 00 00 	cs nopw 0x0(%rax,%rax,1)
  105197:	00 00 00 
  10519a:	66 2e 0f 1f 84 00 00 	cs nopw 0x0(%rax,%rax,1)
  1051a1:	00 00 00 
  1051a4:	66 2e 0f 1f 84 00 00 	cs nopw 0x0(%rax,%rax,1)
  1051ab:	00 00 00 
  1051ae:	66 2e 0f 1f 84 00 00 	cs nopw 0x0(%rax,%rax,1)
  1051b5:	00 00 00 
  1051b8:	66 2e 0f 1f 84 00 00 	cs nopw 0x0(%rax,%rax,1)
  1051bf:	00 00 00 
  1051c2:	66 2e 0f 1f 84 00 00 	cs nopw 0x0(%rax,%rax,1)
  1051c9:	00 00 00 
  1051cc:	66 2e 0f 1f 84 00 00 	cs nopw 0x0(%rax,%rax,1)
  1051d3:	00 00 00 
  1051d6:	66 2e 0f 1f 84 00 00 	cs nopw 0x0(%rax,%rax,1)
  1051dd:	00 00 00 
  1051e0:	66 2e 0f 1f 84 00 00 	cs nopw 0x0(%rax,%rax,1)
  1051e7:	00 00 00 
  1051ea:	66 2e 0f 1f 84 00 00 	cs nopw 0x0(%rax,%rax,1)
  1051f1:	00 00 00 
  1051f4:	66 2e 0f 1f 84 00 00 	cs nopw 0x0(%rax,%rax,1)
  1051fb:	00 00 00 
  1051fe:	66 2e 0f 1f 84 00 00 	cs nopw 0x0(%rax,%rax,1)
  105205:	00 00 00 
  105208:	66 2e 0f 1f 84 00 00 	cs nopw 0x0(%rax,%rax,1)
  10520f:	00 00 00 
  105212:	66 2e 0f 1f 84 00 00 	cs nopw 0x0(%rax,%rax,1)
  105219:	00 00 00 
  10521c:	66 2e 0f 1f 84 00 00 	cs nopw 0x0(%rax,%rax,1)
  105223:	00 00 00 
  105226:	66 2e 0f 1f 84 00 00 	cs nopw 0x0(%rax,%rax,1)
  10522d:	00 00 00 
  105230:	66 2e 0f 1f 84 00 00 	cs nopw 0x0(%rax,%rax,1)
  105237:	00 00 00 
  10523a:	66 2e 0f 1f 84 00 00 	cs nopw 0x0(%rax,%rax,1)
  105241:	00 00 00 
  105244:	66 2e 0f 1f 84 00 00 	cs nopw 0x0(%rax,%rax,1)
  10524b:	00 00 00 
  10524e:	66 2e 0f 1f 84 00 00 	cs nopw 0x0(%rax,%rax,1)
  105255:	00 00 00 
  105258:	66 2e 0f 1f 84 00 00 	cs nopw 0x0(%rax,%rax,1)
  10525f:	00 00 00 
  105262:	66 2e 0f 1f 84 00 00 	cs nopw 0x0(%rax,%rax,1)
  105269:	00 00 00 
  10526c:	66 2e 0f 1f 84 00 00 	cs nopw 0x0(%rax,%rax,1)
  105273:	00 00 00 
  105276:	66 2e 0f 1f 84 00 00 	cs nopw 0x0(%rax,%rax,1)
  10527d:	00 00 00 
  105280:	66 2e 0f 1f 84 00 00 	cs nopw 0x0(%rax,%rax,1)
  105287:	00 00 00 
  10528a:	66 2e 0f 1f 84 00 00 	cs nopw 0x0(%rax,%rax,1)
  105291:	00 00 00 
  105294:	66 2e 0f 1f 84 00 00 	cs nopw 0x0(%rax,%rax,1)
  10529b:	00 00 00 
  10529e:	66 2e 0f 1f 84 00 00 	cs nopw 0x0(%rax,%rax,1)
  1052a5:	00 00 00 
  1052a8:	66 2e 0f 1f 84 00 00 	cs nopw 0x0(%rax,%rax,1)
  1052af:	00 00 00 
  1052b2:	66 2e 0f 1f 84 00 00 	cs nopw 0x0(%rax,%rax,1)
  1052b9:	00 00 00 
  1052bc:	66 2e 0f 1f 84 00 00 	cs nopw 0x0(%rax,%rax,1)
  1052c3:	00 00 00 
  1052c6:	66 2e 0f 1f 84 00 00 	cs nopw 0x0(%rax,%rax,1)
  1052cd:	00 00 00 
  1052d0:	66 2e 0f 1f 84 00 00 	cs nopw 0x0(%rax,%rax,1)
  1052d7:	00 00 00 
  1052da:	66 2e 0f 1f 84 00 00 	cs nopw 0x0(%rax,%rax,1)
  1052e1:	00 00 00 
  1052e4:	66 2e 0f 1f 84 00 00 	cs nopw 0x0(%rax,%rax,1)
  1052eb:	00 00 00 
  1052ee:	66 2e 0f 1f 84 00 00 	cs nopw 0x0(%rax,%rax,1)
  1052f5:	00 00 00 
  1052f8:	66 2e 0f 1f 84 00 00 	cs nopw 0x0(%rax,%rax,1)
  1052ff:	00 00 00 
  105302:	66 2e 0f 1f 84 00 00 	cs nopw 0x0(%rax,%rax,1)
  105309:	00 00 00 
  10530c:	66 2e 0f 1f 84 00 00 	cs nopw 0x0(%rax,%rax,1)
  105313:	00 00 00 
  105316:	66 2e 0f 1f 84 00 00 	cs nopw 0x0(%rax,%rax,1)
  10531d:	00 00 00 
  105320:	66 2e 0f 1f 84 00 00 	cs nopw 0x0(%rax,%rax,1)
  105327:	00 00 00 
  10532a:	66 2e 0f 1f 84 00 00 	cs nopw 0x0(%rax,%rax,1)
  105331:	00 00 00 
  105334:	66 2e 0f 1f 84 00 00 	cs nopw 0x0(%rax,%rax,1)
  10533b:	00 00 00 
  10533e:	66 2e 0f 1f 84 00 00 	cs nopw 0x0(%rax,%rax,1)
  105345:	00 00 00 
  105348:	66 2e 0f 1f 84 00 00 	cs nopw 0x0(%rax,%rax,1)
  10534f:	00 00 00 
  105352:	66 2e 0f 1f 84 00 00 	cs nopw 0x0(%rax,%rax,1)
  105359:	00 00 00 
  10535c:	66 2e 0f 1f 84 00 00 	cs nopw 0x0(%rax,%rax,1)
  105363:	00 00 00 
  105366:	66 2e 0f 1f 84 00 00 	cs nopw 0x0(%rax,%rax,1)
  10536d:	00 00 00 
  105370:	66 2e 0f 1f 84 00 00 	cs nopw 0x0(%rax,%rax,1)
  105377:	00 00 00 
  10537a:	66 2e 0f 1f 84 00 00 	cs nopw 0x0(%rax,%rax,1)
  105381:	00 00 00 
  105384:	66 2e 0f 1f 84 00 00 	cs nopw 0x0(%rax,%rax,1)
  10538b:	00 00 00 
  10538e:	66 2e 0f 1f 84 00 00 	cs nopw 0x0(%rax,%rax,1)
  105395:	00 00 00 
  105398:	66 2e 0f 1f 84 00 00 	cs nopw 0x0(%rax,%rax,1)
  10539f:	00 00 00 
  1053a2:	66 2e 0f 1f 84 00 00 	cs nopw 0x0(%rax,%rax,1)
  1053a9:	00 00 00 
  1053ac:	66 2e 0f 1f 84 00 00 	cs nopw 0x0(%rax,%rax,1)
  1053b3:	00 00 00 
  1053b6:	66 2e 0f 1f 84 00 00 	cs nopw 0x0(%rax,%rax,1)
  1053bd:	00 00 00 
  1053c0:	66 2e 0f 1f 84 00 00 	cs nopw 0x0(%rax,%rax,1)
  1053c7:	00 00 00 
  1053ca:	66 2e 0f 1f 84 00 00 	cs nopw 0x0(%rax,%rax,1)
  1053d1:	00 00 00 
  1053d4:	66 2e 0f 1f 84 00 00 	cs nopw 0x0(%rax,%rax,1)
  1053db:	00 00 00 
  1053de:	66 2e 0f 1f 84 00 00 	cs nopw 0x0(%rax,%rax,1)
  1053e5:	00 00 00 
  1053e8:	66 2e 0f 1f 84 00 00 	cs nopw 0x0(%rax,%rax,1)
  1053ef:	00 00 00 
  1053f2:	66 2e 0f 1f 84 00 00 	cs nopw 0x0(%rax,%rax,1)
  1053f9:	00 00 00 
  1053fc:	66 2e 0f 1f 84 00 00 	cs nopw 0x0(%rax,%rax,1)
  105403:	00 00 00 
  105406:	66 2e 0f 1f 84 00 00 	cs nopw 0x0(%rax,%rax,1)
  10540d:	00 00 00 
  105410:	66 2e 0f 1f 84 00 00 	cs nopw 0x0(%rax,%rax,1)
  105417:	00 00 00 
  10541a:	66 2e 0f 1f 84 00 00 	cs nopw 0x0(%rax,%rax,1)
  105421:	00 00 00 
  105424:	66 2e 0f 1f 84 00 00 	cs nopw 0x0(%rax,%rax,1)
  10542b:	00 00 00 
  10542e:	66 2e 0f 1f 84 00 00 	cs nopw 0x0(%rax,%rax,1)
  105435:	00 00 00 
  105438:	66 2e 0f 1f 84 00 00 	cs nopw 0x0(%rax,%rax,1)
  10543f:	00 00 00 
  105442:	66 2e 0f 1f 84 00 00 	cs nopw 0x0(%rax,%rax,1)
  105449:	00 00 00 
  10544c:	66 2e 0f 1f 84 00 00 	cs nopw 0x0(%rax,%rax,1)
  105453:	00 00 00 
  105456:	66 2e 0f 1f 84 00 00 	cs nopw 0x0(%rax,%rax,1)
  10545d:	00 00 00 
  105460:	66 2e 0f 1f 84 00 00 	cs nopw 0x0(%rax,%rax,1)
  105467:	00 00 00 
  10546a:	66 2e 0f 1f 84 00 00 	cs nopw 0x0(%rax,%rax,1)
  105471:	00 00 00 
  105474:	66 2e 0f 1f 84 00 00 	cs nopw 0x0(%rax,%rax,1)
  10547b:	00 00 00 
  10547e:	66 2e 0f 1f 84 00 00 	cs nopw 0x0(%rax,%rax,1)
  105485:	00 00 00 
  105488:	66 2e 0f 1f 84 00 00 	cs nopw 0x0(%rax,%rax,1)
  10548f:	00 00 00 
  105492:	66 2e 0f 1f 84 00 00 	cs nopw 0x0(%rax,%rax,1)
  105499:	00 00 00 
  10549c:	66 2e 0f 1f 84 00 00 	cs nopw 0x0(%rax,%rax,1)
  1054a3:	00 00 00 
  1054a6:	66 2e 0f 1f 84 00 00 	cs nopw 0x0(%rax,%rax,1)
  1054ad:	00 00 00 
  1054b0:	66 2e 0f 1f 84 00 00 	cs nopw 0x0(%rax,%rax,1)
  1054b7:	00 00 00 
  1054ba:	66 2e 0f 1f 84 00 00 	cs nopw 0x0(%rax,%rax,1)
  1054c1:	00 00 00 
  1054c4:	66 2e 0f 1f 84 00 00 	cs nopw 0x0(%rax,%rax,1)
  1054cb:	00 00 00 
  1054ce:	66 2e 0f 1f 84 00 00 	cs nopw 0x0(%rax,%rax,1)
  1054d5:	00 00 00 
  1054d8:	66 2e 0f 1f 84 00 00 	cs nopw 0x0(%rax,%rax,1)
  1054df:	00 00 00 
  1054e2:	66 2e 0f 1f 84 00 00 	cs nopw 0x0(%rax,%rax,1)
  1054e9:	00 00 00 
  1054ec:	66 2e 0f 1f 84 00 00 	cs nopw 0x0(%rax,%rax,1)
  1054f3:	00 00 00 
  1054f6:	66 2e 0f 1f 84 00 00 	cs nopw 0x0(%rax,%rax,1)
  1054fd:	00 00 00 
  105500:	66 2e 0f 1f 84 00 00 	cs nopw 0x0(%rax,%rax,1)
  105507:	00 00 00 
  10550a:	66 2e 0f 1f 84 00 00 	cs nopw 0x0(%rax,%rax,1)
  105511:	00 00 00 
  105514:	66 2e 0f 1f 84 00 00 	cs nopw 0x0(%rax,%rax,1)
  10551b:	00 00 00 
  10551e:	66 2e 0f 1f 84 00 00 	cs nopw 0x0(%rax,%rax,1)
  105525:	00 00 00 
  105528:	66 2e 0f 1f 84 00 00 	cs nopw 0x0(%rax,%rax,1)
  10552f:	00 00 00 
  105532:	66 2e 0f 1f 84 00 00 	cs nopw 0x0(%rax,%rax,1)
  105539:	00 00 00 
  10553c:	66 2e 0f 1f 84 00 00 	cs nopw 0x0(%rax,%rax,1)
  105543:	00 00 00 
  105546:	66 2e 0f 1f 84 00 00 	cs nopw 0x0(%rax,%rax,1)
  10554d:	00 00 00 
  105550:	66 2e 0f 1f 84 00 00 	cs nopw 0x0(%rax,%rax,1)
  105557:	00 00 00 
  10555a:	66 2e 0f 1f 84 00 00 	cs nopw 0x0(%rax,%rax,1)
  105561:	00 00 00 
  105564:	66 2e 0f 1f 84 00 00 	cs nopw 0x0(%rax,%rax,1)
  10556b:	00 00 00 
  10556e:	66 2e 0f 1f 84 00 00 	cs nopw 0x0(%rax,%rax,1)
  105575:	00 00 00 
  105578:	66 2e 0f 1f 84 00 00 	cs nopw 0x0(%rax,%rax,1)
  10557f:	00 00 00 
  105582:	66 2e 0f 1f 84 00 00 	cs nopw 0x0(%rax,%rax,1)
  105589:	00 00 00 
  10558c:	66 2e 0f 1f 84 00 00 	cs nopw 0x0(%rax,%rax,1)
  105593:	00 00 00 
  105596:	66 2e 0f 1f 84 00 00 	cs nopw 0x0(%rax,%rax,1)
  10559d:	00 00 00 
  1055a0:	66 2e 0f 1f 84 00 00 	cs nopw 0x0(%rax,%rax,1)
  1055a7:	00 00 00 
  1055aa:	66 2e 0f 1f 84 00 00 	cs nopw 0x0(%rax,%rax,1)
  1055b1:	00 00 00 
  1055b4:	66 2e 0f 1f 84 00 00 	cs nopw 0x0(%rax,%rax,1)
  1055bb:	00 00 00 
  1055be:	66 2e 0f 1f 84 00 00 	cs nopw 0x0(%rax,%rax,1)
  1055c5:	00 00 00 
  1055c8:	66 2e 0f 1f 84 00 00 	cs nopw 0x0(%rax,%rax,1)
  1055cf:	00 00 00 
  1055d2:	66 2e 0f 1f 84 00 00 	cs nopw 0x0(%rax,%rax,1)
  1055d9:	00 00 00 
  1055dc:	66 2e 0f 1f 84 00 00 	cs nopw 0x0(%rax,%rax,1)
  1055e3:	00 00 00 
  1055e6:	66 2e 0f 1f 84 00 00 	cs nopw 0x0(%rax,%rax,1)
  1055ed:	00 00 00 
  1055f0:	66 2e 0f 1f 84 00 00 	cs nopw 0x0(%rax,%rax,1)
  1055f7:	00 00 00 
  1055fa:	66 2e 0f 1f 84 00 00 	cs nopw 0x0(%rax,%rax,1)
  105601:	00 00 00 
  105604:	66 2e 0f 1f 84 00 00 	cs nopw 0x0(%rax,%rax,1)
  10560b:	00 00 00 
  10560e:	66 2e 0f 1f 84 00 00 	cs nopw 0x0(%rax,%rax,1)
  105615:	00 00 00 
  105618:	66 2e 0f 1f 84 00 00 	cs nopw 0x0(%rax,%rax,1)
  10561f:	00 00 00 
  105622:	66 2e 0f 1f 84 00 00 	cs nopw 0x0(%rax,%rax,1)
  105629:	00 00 00 
