
sfkrnl.elf:     file format elf64-x86-64


Disassembly of section .note.gnu.build-id:

0000000000100000 <_krnl_start>:
  100000:	04 00                	add    $0x0,%al
  100002:	00 00                	add    %al,(%rax)
  100004:	14 00                	adc    $0x0,%al
  100006:	00 00                	add    %al,(%rax)
  100008:	03 00                	add    (%rax),%eax
  10000a:	00 00                	add    %al,(%rax)
  10000c:	47                   	rex.RXB
  10000d:	4e 55                	rex.WRX push %rbp
  10000f:	00 f2                	add    %dh,%dl
  100011:	33 df                	xor    %edi,%ebx
  100013:	4e e5 90             	rex.WRX in $0x90,%eax
  100016:	63 aa 7d 83 b1 5e    	movsxd 0x5eb1837d(%rdx),%ebp
  10001c:	2b fc                	sub    %esp,%edi
  10001e:	a6                   	cmpsb  %es:(%rdi),%ds:(%rsi)
  10001f:	31 2f                	xor    %ebp,(%rdi)
  100021:	ba                   	.byte 0xba
  100022:	47                   	rex.RXB
  100023:	35                   	.byte 0x35

Disassembly of section .text:

0000000000101000 <header>:
  101000:	d6                   	(bad)
  101001:	50                   	push   %rax
  101002:	52                   	push   %rdx
  101003:	e8 00 00 00 00       	call   101008 <header+0x8>
  101008:	50                   	push   %rax
  101009:	00 00                	add    %al,(%rax)
  10100b:	00 da                	add    %bl,%dl
  10100d:	ae                   	scas   %es:(%rdi),%al
  10100e:	ad                   	lods   %ds:(%rsi),%eax
  10100f:	17                   	(bad)

0000000000101010 <info_tag_start>:
  101010:	01 00                	add    %eax,(%rax)
  101012:	00 00                	add    %al,(%rax)
  101014:	1c 00                	sbb    $0x0,%al
  101016:	00 00                	add    %al,(%rax)
  101018:	02 00                	add    (%rax),%al
  10101a:	00 00                	add    %al,(%rax)
  10101c:	01 00                	add    %eax,(%rax)
  10101e:	00 00                	add    %al,(%rax)
  101020:	05 00 00 00 0f       	add    $0xf000000,%eax
  101025:	00 00                	add    %al,(%rax)
  101027:	00 08                	add    %cl,(%rax)
  101029:	00 00                	add    %al,(%rax)
	...

000000000010102c <info_tag_end>:
  10102c:	00 00                	add    %al,(%rax)
	...

0000000000101030 <fb_tag_start>:
  101030:	05 00 00 00 18       	add    $0x18000000,%eax
  101035:	00 00                	add    %al,(%rax)
  101037:	00 20                	add    %ah,(%rax)
  101039:	03 00                	add    (%rax),%eax
  10103b:	00 58 02             	add    %bl,0x2(%rax)
  10103e:	00 00                	add    %al,(%rax)
  101040:	20 00                	and    %al,(%rax)
  101042:	00 00                	add    %al,(%rax)
  101044:	00 00                	add    %al,(%rax)
	...

0000000000101048 <fb_tag_end>:
  101048:	00 00                	add    %al,(%rax)
  10104a:	00 00                	add    %al,(%rax)
  10104c:	08 00                	or     %al,(%rax)
	...

0000000000101050 <dbgconchar>:
  101050:	55                   	push   %rbp
  101051:	48 89 e5             	mov    %rsp,%rbp
  101054:	66 ba 79 03          	mov    $0x379,%dx
  101058:	ec                   	in     (%dx),%al
  101059:	89 f8                	mov    %edi,%eax
  10105b:	66 ba 78 03          	mov    $0x378,%dx
  10105f:	ee                   	out    %al,(%dx)
  101060:	66 ba 7a 03          	mov    $0x37a,%dx
  101064:	ec                   	in     (%dx),%al
  101065:	89 c1                	mov    %eax,%ecx
  101067:	0c 01                	or     $0x1,%al
  101069:	66 ba 7a 03          	mov    $0x37a,%dx
  10106d:	ee                   	out    %al,(%dx)
  10106e:	31 c0                	xor    %eax,%eax
  101070:	e6 80                	out    %al,$0x80
  101072:	89 c8                	mov    %ecx,%eax
  101074:	66 ba 7a 03          	mov    $0x37a,%dx
  101078:	ee                   	out    %al,(%dx)
  101079:	66 ba 79 03          	mov    $0x379,%dx
  10107d:	ec                   	in     (%dx),%al
  10107e:	5d                   	pop    %rbp
  10107f:	c3                   	ret

0000000000101080 <dbg_crash>:
  101080:	55                   	push   %rbp
  101081:	48 89 e5             	mov    %rsp,%rbp
  101084:	48 c7 c0 00 00 00 00 	mov    $0x0,%rax
  10108b:	0f 22 d8             	mov    %rax,%cr3
  10108e:	5d                   	pop    %rbp
  10108f:	c3                   	ret

0000000000101090 <dbgnumout_hex>:
  101090:	55                   	push   %rbp
  101091:	48 89 e5             	mov    %rsp,%rbp
  101094:	b9 3c 00 00 00       	mov    $0x3c,%ecx
  101099:	0f 1f 80 00 00 00 00 	nopl   0x0(%rax)
  1010a0:	48 89 f8             	mov    %rdi,%rax
  1010a3:	48 d3 e8             	shr    %cl,%rax
  1010a6:	83 e0 0f             	and    $0xf,%eax
  1010a9:	0f b6 b0 10 91 10 00 	movzbl 0x109110(%rax),%esi
  1010b0:	66 ba 79 03          	mov    $0x379,%dx
  1010b4:	ec                   	in     (%dx),%al
  1010b5:	89 f0                	mov    %esi,%eax
  1010b7:	66 ba 78 03          	mov    $0x378,%dx
  1010bb:	ee                   	out    %al,(%dx)
  1010bc:	66 ba 7a 03          	mov    $0x37a,%dx
  1010c0:	ec                   	in     (%dx),%al
  1010c1:	89 c6                	mov    %eax,%esi
  1010c3:	0c 01                	or     $0x1,%al
  1010c5:	66 ba 7a 03          	mov    $0x37a,%dx
  1010c9:	ee                   	out    %al,(%dx)
  1010ca:	31 c0                	xor    %eax,%eax
  1010cc:	e6 80                	out    %al,$0x80
  1010ce:	89 f0                	mov    %esi,%eax
  1010d0:	66 ba 7a 03          	mov    $0x37a,%dx
  1010d4:	ee                   	out    %al,(%dx)
  1010d5:	66 ba 79 03          	mov    $0x379,%dx
  1010d9:	ec                   	in     (%dx),%al
  1010da:	48 83 c1 fc          	add    $0xfffffffffffffffc,%rcx
  1010de:	48 83 f9 fc          	cmp    $0xfffffffffffffffc,%rcx
  1010e2:	75 bc                	jne    1010a0 <dbgnumout_hex+0x10>
  1010e4:	66 ba 79 03          	mov    $0x379,%dx
  1010e8:	ec                   	in     (%dx),%al
  1010e9:	b0 0d                	mov    $0xd,%al
  1010eb:	66 ba 78 03          	mov    $0x378,%dx
  1010ef:	ee                   	out    %al,(%dx)
  1010f0:	66 ba 7a 03          	mov    $0x37a,%dx
  1010f4:	ec                   	in     (%dx),%al
  1010f5:	89 c1                	mov    %eax,%ecx
  1010f7:	0c 01                	or     $0x1,%al
  1010f9:	66 ba 7a 03          	mov    $0x37a,%dx
  1010fd:	ee                   	out    %al,(%dx)
  1010fe:	31 c0                	xor    %eax,%eax
  101100:	e6 80                	out    %al,$0x80
  101102:	89 c8                	mov    %ecx,%eax
  101104:	66 ba 7a 03          	mov    $0x37a,%dx
  101108:	ee                   	out    %al,(%dx)
  101109:	66 ba 79 03          	mov    $0x379,%dx
  10110d:	ec                   	in     (%dx),%al
  10110e:	66 ba 79 03          	mov    $0x379,%dx
  101112:	ec                   	in     (%dx),%al
  101113:	b0 0a                	mov    $0xa,%al
  101115:	66 ba 78 03          	mov    $0x378,%dx
  101119:	ee                   	out    %al,(%dx)
  10111a:	66 ba 7a 03          	mov    $0x37a,%dx
  10111e:	ec                   	in     (%dx),%al
  10111f:	89 c1                	mov    %eax,%ecx
  101121:	0c 01                	or     $0x1,%al
  101123:	66 ba 7a 03          	mov    $0x37a,%dx
  101127:	ee                   	out    %al,(%dx)
  101128:	31 c0                	xor    %eax,%eax
  10112a:	e6 80                	out    %al,$0x80
  10112c:	89 c8                	mov    %ecx,%eax
  10112e:	66 ba 7a 03          	mov    $0x37a,%dx
  101132:	ee                   	out    %al,(%dx)
  101133:	66 ba 79 03          	mov    $0x379,%dx
  101137:	ec                   	in     (%dx),%al
  101138:	5d                   	pop    %rbp
  101139:	c3                   	ret
  10113a:	66 0f 1f 44 00 00    	nopw   0x0(%rax,%rax,1)

0000000000101140 <dbgnumout_bin>:
  101140:	55                   	push   %rbp
  101141:	48 89 e5             	mov    %rsp,%rbp
  101144:	be 3f 00 00 00       	mov    $0x3f,%esi
  101149:	0f 1f 80 00 00 00 00 	nopl   0x0(%rax)
  101150:	48 0f a3 f7          	bt     %rsi,%rdi
  101154:	0f 92 c1             	setb   %cl
  101157:	80 c9 30             	or     $0x30,%cl
  10115a:	66 ba 79 03          	mov    $0x379,%dx
  10115e:	ec                   	in     (%dx),%al
  10115f:	89 c8                	mov    %ecx,%eax
  101161:	66 ba 78 03          	mov    $0x378,%dx
  101165:	ee                   	out    %al,(%dx)
  101166:	66 ba 7a 03          	mov    $0x37a,%dx
  10116a:	ec                   	in     (%dx),%al
  10116b:	89 c1                	mov    %eax,%ecx
  10116d:	0c 01                	or     $0x1,%al
  10116f:	66 ba 7a 03          	mov    $0x37a,%dx
  101173:	ee                   	out    %al,(%dx)
  101174:	31 c0                	xor    %eax,%eax
  101176:	e6 80                	out    %al,$0x80
  101178:	89 c8                	mov    %ecx,%eax
  10117a:	66 ba 7a 03          	mov    $0x37a,%dx
  10117e:	ee                   	out    %al,(%dx)
  10117f:	66 ba 79 03          	mov    $0x379,%dx
  101183:	ec                   	in     (%dx),%al
  101184:	48 83 c6 ff          	add    $0xffffffffffffffff,%rsi
  101188:	72 c6                	jb     101150 <dbgnumout_bin+0x10>
  10118a:	66 ba 79 03          	mov    $0x379,%dx
  10118e:	ec                   	in     (%dx),%al
  10118f:	b0 0d                	mov    $0xd,%al
  101191:	66 ba 78 03          	mov    $0x378,%dx
  101195:	ee                   	out    %al,(%dx)
  101196:	66 ba 7a 03          	mov    $0x37a,%dx
  10119a:	ec                   	in     (%dx),%al
  10119b:	89 c1                	mov    %eax,%ecx
  10119d:	0c 01                	or     $0x1,%al
  10119f:	66 ba 7a 03          	mov    $0x37a,%dx
  1011a3:	ee                   	out    %al,(%dx)
  1011a4:	31 c0                	xor    %eax,%eax
  1011a6:	e6 80                	out    %al,$0x80
  1011a8:	89 c8                	mov    %ecx,%eax
  1011aa:	66 ba 7a 03          	mov    $0x37a,%dx
  1011ae:	ee                   	out    %al,(%dx)
  1011af:	66 ba 79 03          	mov    $0x379,%dx
  1011b3:	ec                   	in     (%dx),%al
  1011b4:	66 ba 79 03          	mov    $0x379,%dx
  1011b8:	ec                   	in     (%dx),%al
  1011b9:	b0 0a                	mov    $0xa,%al
  1011bb:	66 ba 78 03          	mov    $0x378,%dx
  1011bf:	ee                   	out    %al,(%dx)
  1011c0:	66 ba 7a 03          	mov    $0x37a,%dx
  1011c4:	ec                   	in     (%dx),%al
  1011c5:	89 c1                	mov    %eax,%ecx
  1011c7:	0c 01                	or     $0x1,%al
  1011c9:	66 ba 7a 03          	mov    $0x37a,%dx
  1011cd:	ee                   	out    %al,(%dx)
  1011ce:	31 c0                	xor    %eax,%eax
  1011d0:	e6 80                	out    %al,$0x80
  1011d2:	89 c8                	mov    %ecx,%eax
  1011d4:	66 ba 7a 03          	mov    $0x37a,%dx
  1011d8:	ee                   	out    %al,(%dx)
  1011d9:	66 ba 79 03          	mov    $0x379,%dx
  1011dd:	ec                   	in     (%dx),%al
  1011de:	5d                   	pop    %rbp
  1011df:	c3                   	ret

00000000001011e0 <dbgconout>:
  1011e0:	55                   	push   %rbp
  1011e1:	48 89 e5             	mov    %rsp,%rbp
  1011e4:	0f b6 0f             	movzbl (%rdi),%ecx
  1011e7:	84 c9                	test   %cl,%cl
  1011e9:	74 39                	je     101224 <dbgconout+0x44>
  1011eb:	48 ff c7             	inc    %rdi
  1011ee:	66 90                	xchg   %ax,%ax
  1011f0:	66 ba 79 03          	mov    $0x379,%dx
  1011f4:	ec                   	in     (%dx),%al
  1011f5:	89 c8                	mov    %ecx,%eax
  1011f7:	66 ba 78 03          	mov    $0x378,%dx
  1011fb:	ee                   	out    %al,(%dx)
  1011fc:	66 ba 7a 03          	mov    $0x37a,%dx
  101200:	ec                   	in     (%dx),%al
  101201:	89 c1                	mov    %eax,%ecx
  101203:	0c 01                	or     $0x1,%al
  101205:	66 ba 7a 03          	mov    $0x37a,%dx
  101209:	ee                   	out    %al,(%dx)
  10120a:	31 c0                	xor    %eax,%eax
  10120c:	e6 80                	out    %al,$0x80
  10120e:	89 c8                	mov    %ecx,%eax
  101210:	66 ba 7a 03          	mov    $0x37a,%dx
  101214:	ee                   	out    %al,(%dx)
  101215:	66 ba 79 03          	mov    $0x379,%dx
  101219:	ec                   	in     (%dx),%al
  10121a:	0f b6 0f             	movzbl (%rdi),%ecx
  10121d:	48 ff c7             	inc    %rdi
  101220:	84 c9                	test   %cl,%cl
  101222:	75 cc                	jne    1011f0 <dbgconout+0x10>
  101224:	5d                   	pop    %rbp
  101225:	c3                   	ret
  101226:	66 2e 0f 1f 84 00 00 	cs nopw 0x0(%rax,%rax,1)
  10122d:	00 00 00 

0000000000101230 <k_heapSSInit>:
  101230:	55                   	push   %rbp
  101231:	48 89 e5             	mov    %rsp,%rbp
  101234:	48 c7 07 00 00 00 00 	movq   $0x0,(%rdi)
  10123b:	89 77 08             	mov    %esi,0x8(%rdi)
  10123e:	5d                   	pop    %rbp
  10123f:	c3                   	ret

0000000000101240 <k_heapSSAddBlock>:
  101240:	55                   	push   %rbp
  101241:	48 89 e5             	mov    %rsp,%rbp
  101244:	48 89 d0             	mov    %rdx,%rax
  101247:	48 8b 0f             	mov    (%rdi),%rcx
  10124a:	48 89 0e             	mov    %rcx,(%rsi)
  10124d:	48 89 37             	mov    %rsi,(%rdi)
  101250:	48 89 56 10          	mov    %rdx,0x10(%rsi)
  101254:	8b 7f 08             	mov    0x8(%rdi),%edi
  101257:	48 29 f8             	sub    %rdi,%rax
  10125a:	48 89 c1             	mov    %rax,%rcx
  10125d:	48 c1 e9 20          	shr    $0x20,%rcx
  101261:	74 0a                	je     10126d <k_heapSSAddBlock+0x2d>
  101263:	31 d2                	xor    %edx,%edx
  101265:	48 f7 f7             	div    %rdi
  101268:	48 89 c1             	mov    %rax,%rcx
  10126b:	eb 06                	jmp    101273 <k_heapSSAddBlock+0x33>
  10126d:	31 d2                	xor    %edx,%edx
  10126f:	f7 f7                	div    %edi
  101271:	89 c1                	mov    %eax,%ecx
  101273:	89 4e 0c             	mov    %ecx,0xc(%rsi)
  101276:	48 89 c8             	mov    %rcx,%rax
  101279:	48 c1 e0 03          	shl    $0x3,%rax
  10127d:	41 89 c0             	mov    %eax,%r8d
  101280:	31 d2                	xor    %edx,%edx
  101282:	f7 f7                	div    %edi
  101284:	48 89 c2             	mov    %rax,%rdx
  101287:	48 0f af d7          	imul   %rdi,%rdx
  10128b:	4c 39 c2             	cmp    %r8,%rdx
  10128e:	48 83 d0 00          	adc    $0x0,%rax
  101292:	89 46 08             	mov    %eax,0x8(%rsi)
  101295:	c7 46 18 00 00 00 00 	movl   $0x0,0x18(%rsi)
  10129c:	89 c9                	mov    %ecx,%ecx
  10129e:	48 39 c8             	cmp    %rcx,%rax
  1012a1:	73 21                	jae    1012c4 <k_heapSSAddBlock+0x84>
  1012a3:	66 66 66 66 2e 0f 1f 	data16 data16 data16 cs nopw 0x0(%rax,%rax,1)
  1012aa:	84 00 00 00 00 00 
  1012b0:	48 89 c2             	mov    %rax,%rdx
  1012b3:	48 0f af d7          	imul   %rdi,%rdx
  1012b7:	48 89 54 c6 20       	mov    %rdx,0x20(%rsi,%rax,8)
  1012bc:	48 ff c0             	inc    %rax
  1012bf:	48 39 c8             	cmp    %rcx,%rax
  1012c2:	72 ec                	jb     1012b0 <k_heapSSAddBlock+0x70>
  1012c4:	b8 01 00 00 00       	mov    $0x1,%eax
  1012c9:	5d                   	pop    %rbp
  1012ca:	c3                   	ret
  1012cb:	0f 1f 44 00 00       	nopl   0x0(%rax,%rax,1)

00000000001012d0 <k_heapSSAlloc>:
  1012d0:	55                   	push   %rbp
  1012d1:	48 89 e5             	mov    %rsp,%rbp
  1012d4:	41 57                	push   %r15
  1012d6:	41 56                	push   %r14
  1012d8:	41 54                	push   %r12
  1012da:	53                   	push   %rbx
  1012db:	44 8b 77 08          	mov    0x8(%rdi),%r14d
  1012df:	49 39 f6             	cmp    %rsi,%r14
  1012e2:	73 08                	jae    1012ec <k_heapSSAlloc+0x1c>
  1012e4:	45 31 f6             	xor    %r14d,%r14d
  1012e7:	e9 f0 00 00 00       	jmp    1013dc <k_heapSSAlloc+0x10c>
  1012ec:	49 89 f4             	mov    %rsi,%r12
  1012ef:	48 89 fb             	mov    %rdi,%rbx
  1012f2:	48 89 f8             	mov    %rdi,%rax
  1012f5:	66 66 2e 0f 1f 84 00 	data16 cs nopw 0x0(%rax,%rax,1)
  1012fc:	00 00 00 00 
  101300:	48 8b 00             	mov    (%rax),%rax
  101303:	48 85 c0             	test   %rax,%rax
  101306:	74 47                	je     10134f <k_heapSSAlloc+0x7f>
  101308:	8b 50 08             	mov    0x8(%rax),%edx
  10130b:	8b 48 0c             	mov    0xc(%rax),%ecx
  10130e:	39 ca                	cmp    %ecx,%edx
  101310:	74 ee                	je     101300 <k_heapSSAlloc+0x30>
  101312:	8d 72 01             	lea    0x1(%rdx),%esi
  101315:	89 70 08             	mov    %esi,0x8(%rax)
  101318:	49 01 c6             	add    %rax,%r14
  10131b:	4c 03 74 d0 20       	add    0x20(%rax,%rdx,8),%r14
  101320:	29 f1                	sub    %esi,%ecx
  101322:	83 f9 02             	cmp    $0x2,%ecx
  101325:	77 0a                	ja     101331 <k_heapSSAlloc+0x61>
  101327:	83 78 18 00          	cmpl   $0x0,0x18(%rax)
  10132b:	0f 84 b7 00 00 00    	je     1013e8 <k_heapSSAlloc+0x118>
  101331:	4d 85 e4             	test   %r12,%r12
  101334:	0f 84 a2 00 00 00    	je     1013dc <k_heapSSAlloc+0x10c>
  10133a:	49 8d 4c 24 ff       	lea    -0x1(%r12),%rcx
  10133f:	44 89 e0             	mov    %r12d,%eax
  101342:	83 e0 07             	and    $0x7,%eax
  101345:	48 83 f9 07          	cmp    $0x7,%rcx
  101349:	73 57                	jae    1013a2 <k_heapSSAlloc+0xd2>
  10134b:	31 c9                	xor    %ecx,%ecx
  10134d:	eb 73                	jmp    1013c2 <k_heapSSAlloc+0xf2>
  10134f:	48 8b 03             	mov    (%rbx),%rax
  101352:	48 83 78 10 00       	cmpq   $0x0,0x10(%rax)
  101357:	74 26                	je     10137f <k_heapSSAlloc+0xaf>
  101359:	bf 47 91 10 00       	mov    $0x109147,%edi
  10135e:	e8 7d fe ff ff       	call   1011e0 <dbgconout>
  101363:	48 8b 3b             	mov    (%rbx),%rdi
  101366:	e8 25 fd ff ff       	call   101090 <dbgnumout_hex>
  10136b:	48 8b 03             	mov    (%rbx),%rax
  10136e:	48 8b 78 10          	mov    0x10(%rax),%rdi
  101372:	e8 19 fd ff ff       	call   101090 <dbgnumout_hex>
  101377:	41 be ef be ad de    	mov    $0xdeadbeef,%r14d
  10137d:	eb 5d                	jmp    1013dc <k_heapSSAlloc+0x10c>
  10137f:	bf 21 91 10 00       	mov    $0x109121,%edi
  101384:	e8 57 fe ff ff       	call   1011e0 <dbgconout>
  101389:	48 8b 03             	mov    (%rbx),%rax
  10138c:	48 8b 78 10          	mov    0x10(%rax),%rdi
  101390:	e8 fb fc ff ff       	call   101090 <dbgnumout_hex>
  101395:	66 66 2e 0f 1f 84 00 	data16 cs nopw 0x0(%rax,%rax,1)
  10139c:	00 00 00 00 
  1013a0:	eb fe                	jmp    1013a0 <k_heapSSAlloc+0xd0>
  1013a2:	49 83 e4 f8          	and    $0xfffffffffffffff8,%r12
  1013a6:	49 8d 56 07          	lea    0x7(%r14),%rdx
  1013aa:	31 c9                	xor    %ecx,%ecx
  1013ac:	0f 1f 40 00          	nopl   0x0(%rax)
  1013b0:	48 c7 44 0a f9 00 00 	movq   $0x0,-0x7(%rdx,%rcx,1)
  1013b7:	00 00 
  1013b9:	48 83 c1 08          	add    $0x8,%rcx
  1013bd:	49 39 cc             	cmp    %rcx,%r12
  1013c0:	75 ee                	jne    1013b0 <k_heapSSAlloc+0xe0>
  1013c2:	48 85 c0             	test   %rax,%rax
  1013c5:	74 15                	je     1013dc <k_heapSSAlloc+0x10c>
  1013c7:	4c 01 f1             	add    %r14,%rcx
  1013ca:	31 d2                	xor    %edx,%edx
  1013cc:	0f 1f 40 00          	nopl   0x0(%rax)
  1013d0:	c6 04 11 00          	movb   $0x0,(%rcx,%rdx,1)
  1013d4:	48 ff c2             	inc    %rdx
  1013d7:	48 39 d0             	cmp    %rdx,%rax
  1013da:	75 f4                	jne    1013d0 <k_heapSSAlloc+0x100>
  1013dc:	4c 89 f0             	mov    %r14,%rax
  1013df:	5b                   	pop    %rbx
  1013e0:	41 5c                	pop    %r12
  1013e2:	41 5e                	pop    %r14
  1013e4:	41 5f                	pop    %r15
  1013e6:	5d                   	pop    %rbp
  1013e7:	c3                   	ret
  1013e8:	c7 40 18 01 00 00 00 	movl   $0x1,0x18(%rax)
  1013ef:	bf 10 00 00 00       	mov    $0x10,%edi
  1013f4:	e8 57 15 00 00       	call   102950 <page_find_and_alloc>
  1013f9:	49 89 c7             	mov    %rax,%r15
  1013fc:	31 c0                	xor    %eax,%eax
  1013fe:	e8 2d 17 00 00       	call   102b30 <page_flush>
  101403:	48 8b 03             	mov    (%rbx),%rax
  101406:	49 89 07             	mov    %rax,(%r15)
  101409:	4c 89 3b             	mov    %r15,(%rbx)
  10140c:	49 c7 47 10 00 00 00 	movq   $0x2000000,0x10(%r15)
  101413:	02 
  101414:	8b 73 08             	mov    0x8(%rbx),%esi
  101417:	b8 00 00 00 02       	mov    $0x2000000,%eax
  10141c:	48 29 f0             	sub    %rsi,%rax
  10141f:	48 89 c1             	mov    %rax,%rcx
  101422:	48 c1 e9 20          	shr    $0x20,%rcx
  101426:	74 0a                	je     101432 <k_heapSSAlloc+0x162>
  101428:	31 d2                	xor    %edx,%edx
  10142a:	48 f7 f6             	div    %rsi
  10142d:	48 89 c1             	mov    %rax,%rcx
  101430:	eb 06                	jmp    101438 <k_heapSSAlloc+0x168>
  101432:	31 d2                	xor    %edx,%edx
  101434:	f7 f6                	div    %esi
  101436:	89 c1                	mov    %eax,%ecx
  101438:	41 89 4f 0c          	mov    %ecx,0xc(%r15)
  10143c:	48 89 c8             	mov    %rcx,%rax
  10143f:	48 c1 e0 03          	shl    $0x3,%rax
  101443:	89 c7                	mov    %eax,%edi
  101445:	31 d2                	xor    %edx,%edx
  101447:	f7 f6                	div    %esi
  101449:	48 89 c2             	mov    %rax,%rdx
  10144c:	48 0f af d6          	imul   %rsi,%rdx
  101450:	48 39 fa             	cmp    %rdi,%rdx
  101453:	48 83 d0 00          	adc    $0x0,%rax
  101457:	41 89 47 08          	mov    %eax,0x8(%r15)
  10145b:	41 c7 47 18 00 00 00 	movl   $0x0,0x18(%r15)
  101462:	00 
  101463:	89 c9                	mov    %ecx,%ecx
  101465:	48 39 c8             	cmp    %rcx,%rax
  101468:	0f 83 c3 fe ff ff    	jae    101331 <k_heapSSAlloc+0x61>
  10146e:	66 90                	xchg   %ax,%ax
  101470:	48 89 c2             	mov    %rax,%rdx
  101473:	48 0f af d6          	imul   %rsi,%rdx
  101477:	49 89 54 c7 20       	mov    %rdx,0x20(%r15,%rax,8)
  10147c:	48 ff c0             	inc    %rax
  10147f:	48 39 c8             	cmp    %rcx,%rax
  101482:	72 ec                	jb     101470 <k_heapSSAlloc+0x1a0>
  101484:	e9 a8 fe ff ff       	jmp    101331 <k_heapSSAlloc+0x61>
  101489:	0f 1f 80 00 00 00 00 	nopl   0x0(%rax)

0000000000101490 <k_heapSSFree>:
  101490:	55                   	push   %rbp
  101491:	48 89 e5             	mov    %rsp,%rbp
  101494:	41 56                	push   %r14
  101496:	53                   	push   %rbx
  101497:	4c 8b 37             	mov    (%rdi),%r14
  10149a:	4d 85 f6             	test   %r14,%r14
  10149d:	74 73                	je     101512 <k_heapSSFree+0x82>
  10149f:	4c 89 f3             	mov    %r14,%rbx
  1014a2:	eb 14                	jmp    1014b8 <k_heapSSFree+0x28>
  1014a4:	66 66 66 2e 0f 1f 84 	data16 data16 cs nopw 0x0(%rax,%rax,1)
  1014ab:	00 00 00 00 00 
  1014b0:	48 8b 1b             	mov    (%rbx),%rbx
  1014b3:	48 85 db             	test   %rbx,%rbx
  1014b6:	74 5a                	je     101512 <k_heapSSFree+0x82>
  1014b8:	48 39 f3             	cmp    %rsi,%rbx
  1014bb:	73 f3                	jae    1014b0 <k_heapSSFree+0x20>
  1014bd:	48 8b 4b 10          	mov    0x10(%rbx),%rcx
  1014c1:	48 8d 04 19          	lea    (%rcx,%rbx,1),%rax
  1014c5:	48 39 f0             	cmp    %rsi,%rax
  1014c8:	76 e6                	jbe    1014b0 <k_heapSSFree+0x20>
  1014ca:	8b 47 08             	mov    0x8(%rdi),%eax
  1014cd:	48 01 d8             	add    %rbx,%rax
  1014d0:	48 29 c6             	sub    %rax,%rsi
  1014d3:	8b 43 08             	mov    0x8(%rbx),%eax
  1014d6:	ff c8                	dec    %eax
  1014d8:	89 43 08             	mov    %eax,0x8(%rbx)
  1014db:	48 89 74 c3 20       	mov    %rsi,0x20(%rbx,%rax,8)
  1014e0:	48 81 f9 00 00 00 02 	cmp    $0x2000000,%rcx
  1014e7:	75 4d                	jne    101536 <k_heapSSFree+0xa6>
  1014e9:	83 f8 10             	cmp    $0x10,%eax
  1014ec:	75 48                	jne    101536 <k_heapSSFree+0xa6>
  1014ee:	49 39 de             	cmp    %rbx,%r14
  1014f1:	74 2d                	je     101520 <k_heapSSFree+0x90>
  1014f3:	bf 78 91 10 00       	mov    $0x109178,%edi
  1014f8:	e8 e3 fc ff ff       	call   1011e0 <dbgconout>
  1014fd:	0f 1f 00             	nopl   (%rax)
  101500:	4d 8b 36             	mov    (%r14),%r14
  101503:	49 39 de             	cmp    %rbx,%r14
  101506:	75 f8                	jne    101500 <k_heapSSFree+0x70>
  101508:	48 8b 73 10          	mov    0x10(%rbx),%rsi
  10150c:	48 c1 ee 15          	shr    $0x15,%rsi
  101510:	eb 19                	jmp    10152b <k_heapSSFree+0x9b>
  101512:	bf 6c 91 10 00       	mov    $0x10916c,%edi
  101517:	5b                   	pop    %rbx
  101518:	41 5e                	pop    %r14
  10151a:	5d                   	pop    %rbp
  10151b:	e9 c0 fc ff ff       	jmp    1011e0 <dbgconout>
  101520:	49 8b 06             	mov    (%r14),%rax
  101523:	48 89 07             	mov    %rax,(%rdi)
  101526:	be 10 00 00 00       	mov    $0x10,%esi
  10152b:	48 89 df             	mov    %rbx,%rdi
  10152e:	e8 0d 15 00 00       	call   102a40 <page_free_found>
  101533:	8b 43 08             	mov    0x8(%rbx),%eax
  101536:	8b 4b 0c             	mov    0xc(%rbx),%ecx
  101539:	29 c1                	sub    %eax,%ecx
  10153b:	83 f9 03             	cmp    $0x3,%ecx
  10153e:	72 07                	jb     101547 <k_heapSSFree+0xb7>
  101540:	c7 43 18 00 00 00 00 	movl   $0x0,0x18(%rbx)
  101547:	5b                   	pop    %rbx
  101548:	41 5e                	pop    %r14
  10154a:	5d                   	pop    %rbp
  10154b:	c3                   	ret
  10154c:	0f 1f 40 00          	nopl   0x0(%rax)

0000000000101550 <idt_pagefault_handler>:
  101550:	55                   	push   %rbp
  101551:	48 89 e5             	mov    %rsp,%rbp
  101554:	41 57                	push   %r15
  101556:	41 56                	push   %r14
  101558:	53                   	push   %rbx
  101559:	50                   	push   %rax
  10155a:	8b 5d 68             	mov    0x68(%rbp),%ebx
  10155d:	4c 8b 75 60          	mov    0x60(%rbp),%r14
  101561:	4c 8b 7d 70          	mov    0x70(%rbp),%r15
  101565:	bf 7f 91 10 00       	mov    $0x10917f,%edi
  10156a:	e8 71 fc ff ff       	call   1011e0 <dbgconout>
  10156f:	48 89 df             	mov    %rbx,%rdi
  101572:	e8 c9 fb ff ff       	call   101140 <dbgnumout_bin>
  101577:	bf 94 91 10 00       	mov    $0x109194,%edi
  10157c:	e8 5f fc ff ff       	call   1011e0 <dbgconout>
  101581:	4c 89 ff             	mov    %r15,%rdi
  101584:	e8 07 fb ff ff       	call   101090 <dbgnumout_hex>
  101589:	bf 9a 91 10 00       	mov    $0x10919a,%edi
  10158e:	e8 4d fc ff ff       	call   1011e0 <dbgconout>
  101593:	4c 89 f7             	mov    %r14,%rdi
  101596:	e8 f5 fa ff ff       	call   101090 <dbgnumout_hex>
  10159b:	0f 1f 44 00 00       	nopl   0x0(%rax,%rax,1)
  1015a0:	eb fe                	jmp    1015a0 <idt_pagefault_handler+0x50>
  1015a2:	66 66 66 66 66 2e 0f 	data16 data16 data16 data16 cs nopw 0x0(%rax,%rax,1)
  1015a9:	1f 84 00 00 00 00 00 

00000000001015b0 <idt_set_addr>:
  1015b0:	55                   	push   %rbp
  1015b1:	48 89 e5             	mov    %rsp,%rbp
  1015b4:	66 89 37             	mov    %si,(%rdi)
  1015b7:	48 89 f0             	mov    %rsi,%rax
  1015ba:	48 c1 e8 10          	shr    $0x10,%rax
  1015be:	66 89 47 06          	mov    %ax,0x6(%rdi)
  1015c2:	48 c1 ee 20          	shr    $0x20,%rsi
  1015c6:	89 77 08             	mov    %esi,0x8(%rdi)
  1015c9:	5d                   	pop    %rbp
  1015ca:	c3                   	ret
  1015cb:	0f 1f 44 00 00       	nopl   0x0(%rax,%rax,1)

00000000001015d0 <idt_set_trap_ent>:
  1015d0:	55                   	push   %rbp
  1015d1:	48 89 e5             	mov    %rsp,%rbp
  1015d4:	48 c1 e7 04          	shl    $0x4,%rdi
  1015d8:	c6 87 05 a0 10 00 8f 	movb   $0x8f,0x10a005(%rdi)
  1015df:	66 c7 87 02 a0 10 00 	movw   $0x8,0x10a002(%rdi)
  1015e6:	08 00 
  1015e8:	66 89 b7 00 a0 10 00 	mov    %si,0x10a000(%rdi)
  1015ef:	48 89 f0             	mov    %rsi,%rax
  1015f2:	48 c1 e8 10          	shr    $0x10,%rax
  1015f6:	66 89 87 06 a0 10 00 	mov    %ax,0x10a006(%rdi)
  1015fd:	48 c1 ee 20          	shr    $0x20,%rsi
  101601:	89 b7 08 a0 10 00    	mov    %esi,0x10a008(%rdi)
  101607:	5d                   	pop    %rbp
  101608:	c3                   	ret
  101609:	0f 1f 80 00 00 00 00 	nopl   0x0(%rax)

0000000000101610 <idt_flush>:
  101610:	55                   	push   %rbp
  101611:	48 89 e5             	mov    %rsp,%rbp
  101614:	0f 01 1c 25 f0 af 10 	lidt   0x10aff0
  10161b:	00 
  10161c:	5d                   	pop    %rbp
  10161d:	c3                   	ret
  10161e:	66 90                	xchg   %ax,%ax

0000000000101620 <idt_setup>:
  101620:	55                   	push   %rbp
  101621:	48 89 e5             	mov    %rsp,%rbp
  101624:	48 c7 05 c3 99 00 00 	movq   $0x10a000,0x99c3(%rip)        # 10aff2 <idtr+0x2>
  10162b:	00 a0 10 00 
  10162f:	66 c7 05 b8 99 00 00 	movw   $0xfef,0x99b8(%rip)        # 10aff0 <idtr>
  101636:	ef 0f 
  101638:	c6 05 a6 8a 00 00 8f 	movb   $0x8f,0x8aa6(%rip)        # 10a0e5 <idt_table+0xe5>
  10163f:	66 c7 05 9a 8a 00 00 	movw   $0x8,0x8a9a(%rip)        # 10a0e2 <idt_table+0xe2>
  101646:	08 00 
  101648:	b8 e0 90 10 00       	mov    $0x1090e0,%eax
  10164d:	66 89 05 8c 8a 00 00 	mov    %ax,0x8a8c(%rip)        # 10a0e0 <idt_table+0xe0>
  101654:	b9 e0 90 10 00       	mov    $0x1090e0,%ecx
  101659:	48 c1 e9 10          	shr    $0x10,%rcx
  10165d:	66 89 0d 82 8a 00 00 	mov    %cx,0x8a82(%rip)        # 10a0e6 <idt_table+0xe6>
  101664:	48 c1 e8 20          	shr    $0x20,%rax
  101668:	89 05 7a 8a 00 00    	mov    %eax,0x8a7a(%rip)        # 10a0e8 <idt_table+0xe8>
  10166e:	0f 01 1c 25 f0 af 10 	lidt   0x10aff0
  101675:	00 
  101676:	5d                   	pop    %rbp
  101677:	c3                   	ret
  101678:	0f 1f 84 00 00 00 00 	nopl   0x0(%rax,%rax,1)
  10167f:	00 

0000000000101680 <mem_cpy>:
  101680:	55                   	push   %rbp
  101681:	48 89 e5             	mov    %rsp,%rbp
  101684:	48 85 d2             	test   %rdx,%rdx
  101687:	74 76                	je     1016ff <mem_cpy+0x7f>
  101689:	48 8d 4a ff          	lea    -0x1(%rdx),%rcx
  10168d:	41 89 d0             	mov    %edx,%r8d
  101690:	41 83 e0 03          	and    $0x3,%r8d
  101694:	48 83 f9 03          	cmp    $0x3,%rcx
  101698:	73 04                	jae    10169e <mem_cpy+0x1e>
  10169a:	31 c9                	xor    %ecx,%ecx
  10169c:	eb 3d                	jmp    1016db <mem_cpy+0x5b>
  10169e:	48 83 e2 fc          	and    $0xfffffffffffffffc,%rdx
  1016a2:	31 c9                	xor    %ecx,%ecx
  1016a4:	66 66 66 2e 0f 1f 84 	data16 data16 cs nopw 0x0(%rax,%rax,1)
  1016ab:	00 00 00 00 00 
  1016b0:	0f b6 04 0e          	movzbl (%rsi,%rcx,1),%eax
  1016b4:	88 04 0f             	mov    %al,(%rdi,%rcx,1)
  1016b7:	0f b6 44 0e 01       	movzbl 0x1(%rsi,%rcx,1),%eax
  1016bc:	88 44 0f 01          	mov    %al,0x1(%rdi,%rcx,1)
  1016c0:	0f b6 44 0e 02       	movzbl 0x2(%rsi,%rcx,1),%eax
  1016c5:	88 44 0f 02          	mov    %al,0x2(%rdi,%rcx,1)
  1016c9:	0f b6 44 0e 03       	movzbl 0x3(%rsi,%rcx,1),%eax
  1016ce:	88 44 0f 03          	mov    %al,0x3(%rdi,%rcx,1)
  1016d2:	48 83 c1 04          	add    $0x4,%rcx
  1016d6:	48 39 ca             	cmp    %rcx,%rdx
  1016d9:	75 d5                	jne    1016b0 <mem_cpy+0x30>
  1016db:	4d 85 c0             	test   %r8,%r8
  1016de:	74 1f                	je     1016ff <mem_cpy+0x7f>
  1016e0:	48 01 cf             	add    %rcx,%rdi
  1016e3:	48 01 ce             	add    %rcx,%rsi
  1016e6:	31 c9                	xor    %ecx,%ecx
  1016e8:	0f 1f 84 00 00 00 00 	nopl   0x0(%rax,%rax,1)
  1016ef:	00 
  1016f0:	0f b6 14 0e          	movzbl (%rsi,%rcx,1),%edx
  1016f4:	88 14 0f             	mov    %dl,(%rdi,%rcx,1)
  1016f7:	48 ff c1             	inc    %rcx
  1016fa:	49 39 c8             	cmp    %rcx,%r8
  1016fd:	75 f1                	jne    1016f0 <mem_cpy+0x70>
  1016ff:	5d                   	pop    %rbp
  101700:	c3                   	ret
  101701:	66 2e 0f 1f 84 00 00 	cs nopw 0x0(%rax,%rax,1)
  101708:	00 00 00 
  10170b:	0f 1f 44 00 00       	nopl   0x0(%rax,%rax,1)

0000000000101710 <krnl_main>:
  101710:	55                   	push   %rbp
  101711:	48 89 e5             	mov    %rsp,%rbp
  101714:	41 57                	push   %r15
  101716:	41 56                	push   %r14
  101718:	53                   	push   %rbx
  101719:	50                   	push   %rax
  10171a:	81 ff 89 62 d7 36    	cmp    $0x36d76289,%edi
  101720:	0f 85 d2 00 00 00    	jne    1017f8 <krnl_main+0xe8>
  101726:	49 89 f6             	mov    %rsi,%r14
  101729:	bf a0 91 10 00       	mov    $0x1091a0,%edi
  10172e:	e8 ad fa ff ff       	call   1011e0 <dbgconout>
  101733:	bf 00 b0 10 00       	mov    $0x10b000,%edi
  101738:	be 00 10 00 00       	mov    $0x1000,%esi
  10173d:	e8 ee fa ff ff       	call   101230 <k_heapSSInit>
  101742:	be 00 44 13 01       	mov    $0x1134400,%esi
  101747:	48 81 e6 00 f0 ff ff 	and    $0xfffffffffffff000,%rsi
  10174e:	48 81 c6 00 20 00 00 	add    $0x2000,%rsi
  101755:	bf 00 b0 10 00       	mov    $0x10b000,%edi
  10175a:	ba 00 00 80 01       	mov    $0x1800000,%edx
  10175f:	e8 dc fa ff ff       	call   101240 <k_heapSSAddBlock>
  101764:	41 8b 1e             	mov    (%r14),%ebx
  101767:	bf 00 b0 10 00       	mov    $0x10b000,%edi
  10176c:	48 89 de             	mov    %rbx,%rsi
  10176f:	e8 5c fb ff ff       	call   1012d0 <k_heapSSAlloc>
  101774:	48 89 05 95 98 00 00 	mov    %rax,0x9895(%rip)        # 10b010 <m_info>
  10177b:	48 89 c7             	mov    %rax,%rdi
  10177e:	4c 89 f6             	mov    %r14,%rsi
  101781:	48 89 da             	mov    %rbx,%rdx
  101784:	e8 f7 fe ff ff       	call   101680 <mem_cpy>
  101789:	31 c0                	xor    %eax,%eax
  10178b:	e8 90 fe ff ff       	call   101620 <idt_setup>
  101790:	48 83 fb 09          	cmp    $0x9,%rbx
  101794:	72 76                	jb     10180c <krnl_main+0xfc>
  101796:	48 8b 05 73 98 00 00 	mov    0x9873(%rip),%rax        # 10b010 <m_info>
  10179d:	48 8d 48 08          	lea    0x8(%rax),%rcx
  1017a1:	eb 24                	jmp    1017c7 <krnl_main+0xb7>
  1017a3:	66 66 66 66 2e 0f 1f 	data16 data16 data16 cs nopw 0x0(%rax,%rax,1)
  1017aa:	84 00 00 00 00 00 
  1017b0:	8b 51 04             	mov    0x4(%rcx),%edx
  1017b3:	83 c2 07             	add    $0x7,%edx
  1017b6:	83 e2 f8             	and    $0xfffffff8,%edx
  1017b9:	48 01 d1             	add    %rdx,%rcx
  1017bc:	48 89 ca             	mov    %rcx,%rdx
  1017bf:	48 29 c2             	sub    %rax,%rdx
  1017c2:	48 39 da             	cmp    %rbx,%rdx
  1017c5:	73 45                	jae    10180c <krnl_main+0xfc>
  1017c7:	83 39 08             	cmpl   $0x8,(%rcx)
  1017ca:	75 e4                	jne    1017b0 <krnl_main+0xa0>
  1017cc:	48 8b 51 08          	mov    0x8(%rcx),%rdx
  1017d0:	48 89 15 41 98 00 00 	mov    %rdx,0x9841(%rip)        # 10b018 <fbaddr>
  1017d7:	8b 51 14             	mov    0x14(%rcx),%edx
  1017da:	48 89 15 3f 98 00 00 	mov    %rdx,0x983f(%rip)        # 10b020 <fbw>
  1017e1:	8b 51 18             	mov    0x18(%rcx),%edx
  1017e4:	48 89 15 3d 98 00 00 	mov    %rdx,0x983d(%rip)        # 10b028 <fbh>
  1017eb:	0f b6 51 1c          	movzbl 0x1c(%rcx),%edx
  1017ef:	48 89 15 3a 98 00 00 	mov    %rdx,0x983a(%rip)        # 10b030 <fbb>
  1017f6:	eb b8                	jmp    1017b0 <krnl_main+0xa0>
  1017f8:	bf b8 91 10 00       	mov    $0x1091b8,%edi
  1017fd:	48 83 c4 08          	add    $0x8,%rsp
  101801:	5b                   	pop    %rbx
  101802:	41 5e                	pop    %r14
  101804:	41 5f                	pop    %r15
  101806:	5d                   	pop    %rbp
  101807:	e9 d4 f9 ff ff       	jmp    1011e0 <dbgconout>
  10180c:	31 db                	xor    %ebx,%ebx
  10180e:	31 c0                	xor    %eax,%eax
  101810:	e8 db 09 00 00       	call   1021f0 <page_init_map>
  101815:	66 66 2e 0f 1f 84 00 	data16 cs nopw 0x0(%rax,%rax,1)
  10181c:	00 00 00 00 
  101820:	48 89 df             	mov    %rbx,%rdi
  101823:	48 89 de             	mov    %rbx,%rsi
  101826:	e8 25 0b 00 00       	call   102350 <page_alloc>
  10182b:	48 81 c3 00 00 20 00 	add    $0x200000,%rbx
  101832:	48 81 fb 00 00 00 08 	cmp    $0x8000000,%rbx
  101839:	75 e5                	jne    101820 <krnl_main+0x110>
  10183b:	48 8b 3d d6 97 00 00 	mov    0x97d6(%rip),%rdi        # 10b018 <fbaddr>
  101842:	48 bb 00 00 00 00 e0 	movabs $0xfe000000000,%rbx
  101849:	0f 00 00 
  10184c:	48 89 de             	mov    %rbx,%rsi
  10184f:	e8 8c 0d 00 00       	call   1025e0 <page_alloc_dev>
  101854:	bf 00 00 20 00       	mov    $0x200000,%edi
  101859:	48 03 3d b8 97 00 00 	add    0x97b8(%rip),%rdi        # 10b018 <fbaddr>
  101860:	48 8d b3 00 00 20 00 	lea    0x200000(%rbx),%rsi
  101867:	e8 74 0d 00 00       	call   1025e0 <page_alloc_dev>
  10186c:	bf 00 00 40 00       	mov    $0x400000,%edi
  101871:	48 03 3d a0 97 00 00 	add    0x97a0(%rip),%rdi        # 10b018 <fbaddr>
  101878:	48 8d b3 00 00 40 00 	lea    0x400000(%rbx),%rsi
  10187f:	e8 5c 0d 00 00       	call   1025e0 <page_alloc_dev>
  101884:	bf 00 00 60 00       	mov    $0x600000,%edi
  101889:	48 03 3d 88 97 00 00 	add    0x9788(%rip),%rdi        # 10b018 <fbaddr>
  101890:	48 8d b3 00 00 60 00 	lea    0x600000(%rbx),%rsi
  101897:	e8 44 0d 00 00       	call   1025e0 <page_alloc_dev>
  10189c:	bf 00 00 80 00       	mov    $0x800000,%edi
  1018a1:	48 03 3d 70 97 00 00 	add    0x9770(%rip),%rdi        # 10b018 <fbaddr>
  1018a8:	48 8d b3 00 00 80 00 	lea    0x800000(%rbx),%rsi
  1018af:	e8 2c 0d 00 00       	call   1025e0 <page_alloc_dev>
  1018b4:	bf 00 00 a0 00       	mov    $0xa00000,%edi
  1018b9:	48 03 3d 58 97 00 00 	add    0x9758(%rip),%rdi        # 10b018 <fbaddr>
  1018c0:	48 8d b3 00 00 a0 00 	lea    0xa00000(%rbx),%rsi
  1018c7:	e8 14 0d 00 00       	call   1025e0 <page_alloc_dev>
  1018cc:	bf 00 00 c0 00       	mov    $0xc00000,%edi
  1018d1:	48 03 3d 40 97 00 00 	add    0x9740(%rip),%rdi        # 10b018 <fbaddr>
  1018d8:	48 8d b3 00 00 c0 00 	lea    0xc00000(%rbx),%rsi
  1018df:	e8 fc 0c 00 00       	call   1025e0 <page_alloc_dev>
  1018e4:	bf 00 00 e0 00       	mov    $0xe00000,%edi
  1018e9:	48 03 3d 28 97 00 00 	add    0x9728(%rip),%rdi        # 10b018 <fbaddr>
  1018f0:	48 8d b3 00 00 e0 00 	lea    0xe00000(%rbx),%rsi
  1018f7:	e8 e4 0c 00 00       	call   1025e0 <page_alloc_dev>
  1018fc:	bf 00 00 00 01       	mov    $0x1000000,%edi
  101901:	48 03 3d 10 97 00 00 	add    0x9710(%rip),%rdi        # 10b018 <fbaddr>
  101908:	48 8d b3 00 00 00 01 	lea    0x1000000(%rbx),%rsi
  10190f:	e8 cc 0c 00 00       	call   1025e0 <page_alloc_dev>
  101914:	bf 00 00 20 01       	mov    $0x1200000,%edi
  101919:	48 03 3d f8 96 00 00 	add    0x96f8(%rip),%rdi        # 10b018 <fbaddr>
  101920:	48 8d b3 00 00 20 01 	lea    0x1200000(%rbx),%rsi
  101927:	e8 b4 0c 00 00       	call   1025e0 <page_alloc_dev>
  10192c:	bf 00 00 40 01       	mov    $0x1400000,%edi
  101931:	48 03 3d e0 96 00 00 	add    0x96e0(%rip),%rdi        # 10b018 <fbaddr>
  101938:	48 8d b3 00 00 40 01 	lea    0x1400000(%rbx),%rsi
  10193f:	e8 9c 0c 00 00       	call   1025e0 <page_alloc_dev>
  101944:	bf 00 00 60 01       	mov    $0x1600000,%edi
  101949:	48 03 3d c8 96 00 00 	add    0x96c8(%rip),%rdi        # 10b018 <fbaddr>
  101950:	48 8d b3 00 00 60 01 	lea    0x1600000(%rbx),%rsi
  101957:	e8 84 0c 00 00       	call   1025e0 <page_alloc_dev>
  10195c:	bf 00 00 80 01       	mov    $0x1800000,%edi
  101961:	48 03 3d b0 96 00 00 	add    0x96b0(%rip),%rdi        # 10b018 <fbaddr>
  101968:	48 8d b3 00 00 80 01 	lea    0x1800000(%rbx),%rsi
  10196f:	e8 6c 0c 00 00       	call   1025e0 <page_alloc_dev>
  101974:	bf 00 00 a0 01       	mov    $0x1a00000,%edi
  101979:	48 03 3d 98 96 00 00 	add    0x9698(%rip),%rdi        # 10b018 <fbaddr>
  101980:	48 8d b3 00 00 a0 01 	lea    0x1a00000(%rbx),%rsi
  101987:	e8 54 0c 00 00       	call   1025e0 <page_alloc_dev>
  10198c:	bf 00 00 c0 01       	mov    $0x1c00000,%edi
  101991:	48 03 3d 80 96 00 00 	add    0x9680(%rip),%rdi        # 10b018 <fbaddr>
  101998:	48 8d b3 00 00 c0 01 	lea    0x1c00000(%rbx),%rsi
  10199f:	e8 3c 0c 00 00       	call   1025e0 <page_alloc_dev>
  1019a4:	bf 00 00 e0 01       	mov    $0x1e00000,%edi
  1019a9:	48 03 3d 68 96 00 00 	add    0x9668(%rip),%rdi        # 10b018 <fbaddr>
  1019b0:	48 8d b3 00 00 e0 01 	lea    0x1e00000(%rbx),%rsi
  1019b7:	e8 24 0c 00 00       	call   1025e0 <page_alloc_dev>
  1019bc:	48 89 1d 55 96 00 00 	mov    %rbx,0x9655(%rip)        # 10b018 <fbaddr>
  1019c3:	31 c0                	xor    %eax,%eax
  1019c5:	e8 66 11 00 00       	call   102b30 <page_flush>
  1019ca:	31 c0                	xor    %eax,%eax
  1019cc:	e8 9f 17 00 00       	call   103170 <pci_enum>
  1019d1:	bf d0 91 10 00       	mov    $0x1091d0,%edi
  1019d6:	e8 05 f8 ff ff       	call   1011e0 <dbgconout>
  1019db:	41 bf 02 00 00 00    	mov    $0x2,%r15d
  1019e1:	41 be ab aa aa aa    	mov    $0xaaaaaaab,%r14d
  1019e7:	eb 0a                	jmp    1019f3 <krnl_main+0x2e3>
  1019e9:	0f 1f 80 00 00 00 00 	nopl   0x0(%rax)
  1019f0:	41 ff c7             	inc    %r15d
  1019f3:	48 c7 c3 00 89 fe ff 	mov    $0xfffffffffffe8900,%rbx
  1019fa:	66 0f 1f 44 00 00    	nopw   0x0(%rax,%rax,1)
  101a00:	bf 00 b0 10 00       	mov    $0x10b000,%edi
  101a05:	be 00 10 00 00       	mov    $0x1000,%esi
  101a0a:	e8 c1 f8 ff ff       	call   1012d0 <k_heapSSAlloc>
  101a0f:	48 89 83 40 27 12 00 	mov    %rax,0x122740(%rbx)
  101a16:	48 83 c3 08          	add    $0x8,%rbx
  101a1a:	75 e4                	jne    101a00 <krnl_main+0x2f0>
  101a1c:	48 c7 c3 00 89 fe ff 	mov    $0xfffffffffffe8900,%rbx
  101a23:	66 66 66 66 2e 0f 1f 	data16 data16 data16 cs nopw 0x0(%rax,%rax,1)
  101a2a:	84 00 00 00 00 00 
  101a30:	48 8b b3 40 27 12 00 	mov    0x122740(%rbx),%rsi
  101a37:	bf 00 b0 10 00       	mov    $0x10b000,%edi
  101a3c:	e8 4f fa ff ff       	call   101490 <k_heapSSFree>
  101a41:	48 83 c3 08          	add    $0x8,%rbx
  101a45:	75 e9                	jne    101a30 <krnl_main+0x320>
  101a47:	4c 8b 05 da 95 00 00 	mov    0x95da(%rip),%r8        # 10b028 <fbh>
  101a4e:	4c 0f af 05 ca 95 00 	imul   0x95ca(%rip),%r8        # 10b020 <fbw>
  101a55:	00 
  101a56:	4d 85 c0             	test   %r8,%r8
  101a59:	74 95                	je     1019f0 <krnl_main+0x2e0>
  101a5b:	44 89 f9             	mov    %r15d,%ecx
  101a5e:	49 0f af ce          	imul   %r14,%rcx
  101a62:	48 c1 e9 23          	shr    $0x23,%rcx
  101a66:	44 69 c9 11 11 11 11 	imul   $0x11111111,%ecx,%r9d
  101a6d:	48 8b 15 a4 95 00 00 	mov    0x95a4(%rip),%rdx        # 10b018 <fbaddr>
  101a74:	49 83 f8 01          	cmp    $0x1,%r8
  101a78:	75 36                	jne    101ab0 <krnl_main+0x3a0>
  101a7a:	31 f6                	xor    %esi,%esi
  101a7c:	41 f6 c0 01          	test   $0x1,%r8b
  101a80:	0f 84 6a ff ff ff    	je     1019f0 <krnl_main+0x2e0>
  101a86:	48 89 f0             	mov    %rsi,%rax
  101a89:	48 c1 e8 03          	shr    $0x3,%rax
  101a8d:	0f b6 80 00 30 12 00 	movzbl 0x123000(%rax),%eax
  101a94:	89 f7                	mov    %esi,%edi
  101a96:	83 e7 07             	and    $0x7,%edi
  101a99:	0f a3 f8             	bt     %edi,%eax
  101a9c:	0f 83 4e ff ff ff    	jae    1019f0 <krnl_main+0x2e0>
  101aa2:	44 89 0c b2          	mov    %r9d,(%rdx,%rsi,4)
  101aa6:	e9 45 ff ff ff       	jmp    1019f0 <krnl_main+0x2e0>
  101aab:	0f 1f 44 00 00       	nopl   0x0(%rax,%rax,1)
  101ab0:	4c 89 c7             	mov    %r8,%rdi
  101ab3:	48 83 e7 fe          	and    $0xfffffffffffffffe,%rdi
  101ab7:	31 f6                	xor    %esi,%esi
  101ab9:	eb 0e                	jmp    101ac9 <krnl_main+0x3b9>
  101abb:	0f 1f 44 00 00       	nopl   0x0(%rax,%rax,1)
  101ac0:	48 83 c6 02          	add    $0x2,%rsi
  101ac4:	48 39 f7             	cmp    %rsi,%rdi
  101ac7:	74 b3                	je     101a7c <krnl_main+0x36c>
  101ac9:	48 89 f3             	mov    %rsi,%rbx
  101acc:	48 c1 eb 03          	shr    $0x3,%rbx
  101ad0:	0f b6 83 00 30 12 00 	movzbl 0x123000(%rbx),%eax
  101ad7:	89 f1                	mov    %esi,%ecx
  101ad9:	83 e1 06             	and    $0x6,%ecx
  101adc:	0f a3 c8             	bt     %ecx,%eax
  101adf:	73 04                	jae    101ae5 <krnl_main+0x3d5>
  101ae1:	44 89 0c b2          	mov    %r9d,(%rdx,%rsi,4)
  101ae5:	0f b6 83 00 30 12 00 	movzbl 0x123000(%rbx),%eax
  101aec:	8d 4e 01             	lea    0x1(%rsi),%ecx
  101aef:	0f b6 c9             	movzbl %cl,%ecx
  101af2:	83 e1 07             	and    $0x7,%ecx
  101af5:	0f a3 c8             	bt     %ecx,%eax
  101af8:	73 c6                	jae    101ac0 <krnl_main+0x3b0>
  101afa:	44 89 4c b2 04       	mov    %r9d,0x4(%rdx,%rsi,4)
  101aff:	eb bf                	jmp    101ac0 <krnl_main+0x3b0>
  101b01:	66 2e 0f 1f 84 00 00 	cs nopw 0x0(%rax,%rax,1)
  101b08:	00 00 00 
  101b0b:	0f 1f 44 00 00       	nopl   0x0(%rax,%rax,1)

0000000000101b10 <liballoc_lock>:
  101b10:	55                   	push   %rbp
  101b11:	48 89 e5             	mov    %rsp,%rbp
  101b14:	31 c0                	xor    %eax,%eax
  101b16:	5d                   	pop    %rbp
  101b17:	c3                   	ret
  101b18:	0f 1f 84 00 00 00 00 	nopl   0x0(%rax,%rax,1)
  101b1f:	00 

0000000000101b20 <liballoc_unlock>:
  101b20:	55                   	push   %rbp
  101b21:	48 89 e5             	mov    %rsp,%rbp
  101b24:	31 c0                	xor    %eax,%eax
  101b26:	5d                   	pop    %rbp
  101b27:	c3                   	ret
  101b28:	0f 1f 84 00 00 00 00 	nopl   0x0(%rax,%rax,1)
  101b2f:	00 

0000000000101b30 <liballoc_alloc>:
  101b30:	55                   	push   %rbp
  101b31:	48 89 e5             	mov    %rsp,%rbp
  101b34:	5d                   	pop    %rbp
  101b35:	e9 16 0e 00 00       	jmp    102950 <page_find_and_alloc>
  101b3a:	66 0f 1f 44 00 00    	nopw   0x0(%rax,%rax,1)

0000000000101b40 <liballoc_free>:
  101b40:	55                   	push   %rbp
  101b41:	48 89 e5             	mov    %rsp,%rbp
  101b44:	48 63 f6             	movslq %esi,%rsi
  101b47:	e8 f4 0e 00 00       	call   102a40 <page_free_found>
  101b4c:	31 c0                	xor    %eax,%eax
  101b4e:	5d                   	pop    %rbp
  101b4f:	c3                   	ret

0000000000101b50 <malloc>:
  101b50:	55                   	push   %rbp
  101b51:	48 89 e5             	mov    %rsp,%rbp
  101b54:	41 56                	push   %r14
  101b56:	53                   	push   %rbx
  101b57:	41 89 fe             	mov    %edi,%r14d
  101b5a:	80 3d df 0b 02 00 00 	cmpb   $0x0,0x20bdf(%rip)        # 122740 <l_initialized>
  101b61:	75 72                	jne    101bd5 <malloc+0x85>
  101b63:	48 c7 c0 80 ff ff ff 	mov    $0xffffffffffffff80,%rax
  101b6a:	66 0f 1f 44 00 00    	nopw   0x0(%rax,%rax,1)
  101b70:	48 c7 84 00 50 28 12 	movq   $0x0,0x122850(%rax,%rax,1)
  101b77:	00 00 00 00 00 
  101b7c:	c7 80 d0 28 12 00 00 	movl   $0x0,0x1228d0(%rax)
  101b83:	00 00 00 
  101b86:	48 c7 84 00 58 28 12 	movq   $0x0,0x122858(%rax,%rax,1)
  101b8d:	00 00 00 00 00 
  101b92:	c7 80 d4 28 12 00 00 	movl   $0x0,0x1228d4(%rax)
  101b99:	00 00 00 
  101b9c:	48 c7 84 00 60 28 12 	movq   $0x0,0x122860(%rax,%rax,1)
  101ba3:	00 00 00 00 00 
  101ba8:	c7 80 d8 28 12 00 00 	movl   $0x0,0x1228d8(%rax)
  101baf:	00 00 00 
  101bb2:	48 c7 84 00 68 28 12 	movq   $0x0,0x122868(%rax,%rax,1)
  101bb9:	00 00 00 00 00 
  101bbe:	c7 80 dc 28 12 00 00 	movl   $0x0,0x1228dc(%rax)
  101bc5:	00 00 00 
  101bc8:	48 83 c0 10          	add    $0x10,%rax
  101bcc:	75 a2                	jne    101b70 <malloc+0x20>
  101bce:	c6 05 6b 0b 02 00 01 	movb   $0x1,0x20b6b(%rip)        # 122740 <l_initialized>
  101bd5:	b8 ff ff ff ff       	mov    $0xffffffff,%eax
  101bda:	41 81 fe 00 01 00 00 	cmp    $0x100,%r14d
  101be1:	72 20                	jb     101c03 <malloc+0xb3>
  101be3:	b8 06 00 00 00       	mov    $0x6,%eax
  101be8:	0f 1f 84 00 00 00 00 	nopl   0x0(%rax,%rax,1)
  101bef:	00 
  101bf0:	8d 48 02             	lea    0x2(%rax),%ecx
  101bf3:	44 89 f2             	mov    %r14d,%edx
  101bf6:	d3 ea                	shr    %cl,%edx
  101bf8:	ff c0                	inc    %eax
  101bfa:	83 f9 1f             	cmp    $0x1f,%ecx
  101bfd:	77 04                	ja     101c03 <malloc+0xb3>
  101bff:	85 d2                	test   %edx,%edx
  101c01:	75 ed                	jne    101bf0 <malloc+0xa0>
  101c03:	83 f8 09             	cmp    $0x9,%eax
  101c06:	b9 08 00 00 00       	mov    $0x8,%ecx
  101c0b:	0f 4d c8             	cmovge %eax,%ecx
  101c0e:	48 8b 04 cd 50 27 12 	mov    0x122750(,%rcx,8),%rax
  101c15:	00 
  101c16:	48 85 c0             	test   %rax,%rax
  101c19:	74 2a                	je     101c45 <malloc+0xf5>
  101c1b:	44 89 f2             	mov    %r14d,%edx
  101c1e:	48 83 c2 30          	add    $0x30,%rdx
  101c22:	66 66 66 66 66 2e 0f 	data16 data16 data16 data16 cs nopw 0x0(%rax,%rax,1)
  101c29:	1f 84 00 00 00 00 00 
  101c30:	8b 58 08             	mov    0x8(%rax),%ebx
  101c33:	48 8d 73 d0          	lea    -0x30(%rbx),%rsi
  101c37:	48 39 d6             	cmp    %rdx,%rsi
  101c3a:	73 74                	jae    101cb0 <malloc+0x160>
  101c3c:	48 8b 40 20          	mov    0x20(%rax),%rax
  101c40:	48 85 c0             	test   %rax,%rax
  101c43:	75 eb                	jne    101c30 <malloc+0xe0>
  101c45:	41 8d 46 30          	lea    0x30(%r14),%eax
  101c49:	89 c1                	mov    %eax,%ecx
  101c4b:	c1 e9 15             	shr    $0x15,%ecx
  101c4e:	25 ff ff 1f 00       	and    $0x1fffff,%eax
  101c53:	83 f8 01             	cmp    $0x1,%eax
  101c56:	48 83 d9 ff          	sbb    $0xffffffffffffffff,%rcx
  101c5a:	48 83 f9 11          	cmp    $0x11,%rcx
  101c5e:	bb 10 00 00 00       	mov    $0x10,%ebx
  101c63:	48 0f 43 d9          	cmovae %rcx,%rbx
  101c67:	89 df                	mov    %ebx,%edi
  101c69:	e8 e2 0c 00 00       	call   102950 <page_find_and_alloc>
  101c6e:	48 85 c0             	test   %rax,%rax
  101c71:	0f 84 64 01 00 00    	je     101ddb <malloc+0x28b>
  101c77:	c7 00 de c0 01 c0    	movl   $0xc001c0de,(%rax)
  101c7d:	44 89 70 04          	mov    %r14d,0x4(%rax)
  101c81:	c1 e3 15             	shl    $0x15,%ebx
  101c84:	89 58 08             	mov    %ebx,0x8(%rax)
  101c87:	c7 40 0c ff ff ff ff 	movl   $0xffffffff,0xc(%rax)
  101c8e:	48 c7 40 20 00 00 00 	movq   $0x0,0x20(%rax)
  101c95:	00 
  101c96:	48 c7 40 28 00 00 00 	movq   $0x0,0x28(%rax)
  101c9d:	00 
  101c9e:	48 c7 40 10 00 00 00 	movq   $0x0,0x10(%rax)
  101ca5:	00 
  101ca6:	48 c7 40 18 00 00 00 	movq   $0x0,0x18(%rax)
  101cad:	00 
  101cae:	eb 67                	jmp    101d17 <malloc+0x1c7>
  101cb0:	48 63 50 0c          	movslq 0xc(%rax),%rdx
  101cb4:	48 39 04 d5 50 27 12 	cmp    %rax,0x122750(,%rdx,8)
  101cbb:	00 
  101cbc:	75 0c                	jne    101cca <malloc+0x17a>
  101cbe:	48 8b 70 20          	mov    0x20(%rax),%rsi
  101cc2:	48 89 34 d5 50 27 12 	mov    %rsi,0x122750(,%rdx,8)
  101cc9:	00 
  101cca:	48 8b 50 28          	mov    0x28(%rax),%rdx
  101cce:	48 85 d2             	test   %rdx,%rdx
  101cd1:	74 08                	je     101cdb <malloc+0x18b>
  101cd3:	48 8b 70 20          	mov    0x20(%rax),%rsi
  101cd7:	48 89 72 20          	mov    %rsi,0x20(%rdx)
  101cdb:	48 8b 70 20          	mov    0x20(%rax),%rsi
  101cdf:	48 85 f6             	test   %rsi,%rsi
  101ce2:	74 04                	je     101ce8 <malloc+0x198>
  101ce4:	48 89 56 28          	mov    %rdx,0x28(%rsi)
  101ce8:	48 c7 40 20 00 00 00 	movq   $0x0,0x20(%rax)
  101cef:	00 
  101cf0:	48 c7 40 28 00 00 00 	movq   $0x0,0x28(%rax)
  101cf7:	00 
  101cf8:	c7 40 0c ff ff ff ff 	movl   $0xffffffff,0xc(%rax)
  101cff:	48 83 78 10 00       	cmpq   $0x0,0x10(%rax)
  101d04:	75 11                	jne    101d17 <malloc+0x1c7>
  101d06:	48 83 78 18 00       	cmpq   $0x0,0x18(%rax)
  101d0b:	75 0a                	jne    101d17 <malloc+0x1c7>
  101d0d:	ff 0c 8d 50 28 12 00 	decl   0x122850(,%rcx,4)
  101d14:	8b 58 08             	mov    0x8(%rax),%ebx
  101d17:	44 89 70 04          	mov    %r14d,0x4(%rax)
  101d1b:	44 29 f3             	sub    %r14d,%ebx
  101d1e:	8d 4b a0             	lea    -0x60(%rbx),%ecx
  101d21:	81 f9 ff 00 00 00    	cmp    $0xff,%ecx
  101d27:	0f 8e a8 00 00 00    	jle    101dd5 <malloc+0x285>
  101d2d:	44 89 f6             	mov    %r14d,%esi
  101d30:	83 c3 d0             	add    $0xffffffd0,%ebx
  101d33:	48 8d 14 06          	lea    (%rsi,%rax,1),%rdx
  101d37:	48 83 c2 30          	add    $0x30,%rdx
  101d3b:	c7 44 06 30 de c0 01 	movl   $0xc001c0de,0x30(%rsi,%rax,1)
  101d42:	c0 
  101d43:	89 5c 06 38          	mov    %ebx,0x38(%rsi,%rax,1)
  101d47:	48 c7 44 06 50 00 00 	movq   $0x0,0x50(%rsi,%rax,1)
  101d4e:	00 00 
  101d50:	48 c7 44 06 58 00 00 	movq   $0x0,0x58(%rsi,%rax,1)
  101d57:	00 00 
  101d59:	48 89 44 06 40       	mov    %rax,0x40(%rsi,%rax,1)
  101d5e:	48 8b 48 18          	mov    0x18(%rax),%rcx
  101d62:	48 89 4c 06 48       	mov    %rcx,0x48(%rsi,%rax,1)
  101d67:	48 85 c9             	test   %rcx,%rcx
  101d6a:	74 04                	je     101d70 <malloc+0x220>
  101d6c:	48 89 51 10          	mov    %rdx,0x10(%rcx)
  101d70:	48 89 50 18          	mov    %rdx,0x18(%rax)
  101d74:	29 58 08             	sub    %ebx,0x8(%rax)
  101d77:	8b 5a 08             	mov    0x8(%rdx),%ebx
  101d7a:	83 c3 d0             	add    $0xffffffd0,%ebx
  101d7d:	be ff ff ff ff       	mov    $0xffffffff,%esi
  101d82:	81 fb 00 01 00 00    	cmp    $0x100,%ebx
  101d88:	72 18                	jb     101da2 <malloc+0x252>
  101d8a:	be 06 00 00 00       	mov    $0x6,%esi
  101d8f:	90                   	nop
  101d90:	8d 4e 02             	lea    0x2(%rsi),%ecx
  101d93:	89 df                	mov    %ebx,%edi
  101d95:	d3 ef                	shr    %cl,%edi
  101d97:	ff c6                	inc    %esi
  101d99:	83 f9 1f             	cmp    $0x1f,%ecx
  101d9c:	77 04                	ja     101da2 <malloc+0x252>
  101d9e:	85 ff                	test   %edi,%edi
  101da0:	75 ee                	jne    101d90 <malloc+0x240>
  101da2:	83 fe 09             	cmp    $0x9,%esi
  101da5:	b9 08 00 00 00       	mov    $0x8,%ecx
  101daa:	0f 4d ce             	cmovge %esi,%ecx
  101dad:	89 4a 0c             	mov    %ecx,0xc(%rdx)
  101db0:	48 8b 34 cd 50 27 12 	mov    0x122750(,%rcx,8),%rsi
  101db7:	00 
  101db8:	48 85 f6             	test   %rsi,%rsi
  101dbb:	74 10                	je     101dcd <malloc+0x27d>
  101dbd:	48 89 56 28          	mov    %rdx,0x28(%rsi)
  101dc1:	48 8b 34 cd 50 27 12 	mov    0x122750(,%rcx,8),%rsi
  101dc8:	00 
  101dc9:	48 89 72 20          	mov    %rsi,0x20(%rdx)
  101dcd:	48 89 14 cd 50 27 12 	mov    %rdx,0x122750(,%rcx,8)
  101dd4:	00 
  101dd5:	48 83 c0 30          	add    $0x30,%rax
  101dd9:	eb 02                	jmp    101ddd <malloc+0x28d>
  101ddb:	31 c0                	xor    %eax,%eax
  101ddd:	5b                   	pop    %rbx
  101dde:	41 5e                	pop    %r14
  101de0:	5d                   	pop    %rbp
  101de1:	c3                   	ret
  101de2:	66 66 66 66 66 2e 0f 	data16 data16 data16 data16 cs nopw 0x0(%rax,%rax,1)
  101de9:	1f 84 00 00 00 00 00 

0000000000101df0 <free>:
  101df0:	55                   	push   %rbp
  101df1:	48 89 e5             	mov    %rsp,%rbp
  101df4:	48 85 ff             	test   %rdi,%rdi
  101df7:	0f 84 df 01 00 00    	je     101fdc <free+0x1ec>
  101dfd:	81 7f d0 de c0 01 c0 	cmpl   $0xc001c0de,-0x30(%rdi)
  101e04:	0f 85 d2 01 00 00    	jne    101fdc <free+0x1ec>
  101e0a:	48 83 c7 d0          	add    $0xffffffffffffffd0,%rdi
  101e0e:	48 8b 47 10          	mov    0x10(%rdi),%rax
  101e12:	48 85 c0             	test   %rax,%rax
  101e15:	0f 84 86 00 00 00    	je     101ea1 <free+0xb1>
  101e1b:	48 89 f9             	mov    %rdi,%rcx
  101e1e:	eb 23                	jmp    101e43 <free+0x53>
  101e20:	48 c7 47 20 00 00 00 	movq   $0x0,0x20(%rdi)
  101e27:	00 
  101e28:	48 c7 47 28 00 00 00 	movq   $0x0,0x28(%rdi)
  101e2f:	00 
  101e30:	c7 47 0c ff ff ff ff 	movl   $0xffffffff,0xc(%rdi)
  101e37:	48 8b 47 10          	mov    0x10(%rdi),%rax
  101e3b:	48 89 f9             	mov    %rdi,%rcx
  101e3e:	48 85 c0             	test   %rax,%rax
  101e41:	74 5e                	je     101ea1 <free+0xb1>
  101e43:	48 89 c7             	mov    %rax,%rdi
  101e46:	8b 40 0c             	mov    0xc(%rax),%eax
  101e49:	85 c0                	test   %eax,%eax
  101e4b:	78 51                	js     101e9e <free+0xae>
  101e4d:	8b 51 08             	mov    0x8(%rcx),%edx
  101e50:	01 57 08             	add    %edx,0x8(%rdi)
  101e53:	48 8b 51 18          	mov    0x18(%rcx),%rdx
  101e57:	48 89 57 18          	mov    %rdx,0x18(%rdi)
  101e5b:	48 8b 49 18          	mov    0x18(%rcx),%rcx
  101e5f:	48 85 c9             	test   %rcx,%rcx
  101e62:	74 04                	je     101e68 <free+0x78>
  101e64:	48 89 79 10          	mov    %rdi,0x10(%rcx)
  101e68:	48 39 3c c5 50 27 12 	cmp    %rdi,0x122750(,%rax,8)
  101e6f:	00 
  101e70:	75 0c                	jne    101e7e <free+0x8e>
  101e72:	48 8b 4f 20          	mov    0x20(%rdi),%rcx
  101e76:	48 89 0c c5 50 27 12 	mov    %rcx,0x122750(,%rax,8)
  101e7d:	00 
  101e7e:	48 8b 47 28          	mov    0x28(%rdi),%rax
  101e82:	48 85 c0             	test   %rax,%rax
  101e85:	74 08                	je     101e8f <free+0x9f>
  101e87:	48 8b 4f 20          	mov    0x20(%rdi),%rcx
  101e8b:	48 89 48 20          	mov    %rcx,0x20(%rax)
  101e8f:	48 8b 4f 20          	mov    0x20(%rdi),%rcx
  101e93:	48 85 c9             	test   %rcx,%rcx
  101e96:	74 88                	je     101e20 <free+0x30>
  101e98:	48 89 41 28          	mov    %rax,0x28(%rcx)
  101e9c:	eb 82                	jmp    101e20 <free+0x30>
  101e9e:	48 89 cf             	mov    %rcx,%rdi
  101ea1:	48 8b 4f 18          	mov    0x18(%rdi),%rcx
  101ea5:	48 85 c9             	test   %rcx,%rcx
  101ea8:	75 0e                	jne    101eb8 <free+0xc8>
  101eaa:	31 c0                	xor    %eax,%eax
  101eac:	eb 7c                	jmp    101f2a <free+0x13a>
  101eae:	66 90                	xchg   %ax,%ax
  101eb0:	48 89 d1             	mov    %rdx,%rcx
  101eb3:	48 85 d2             	test   %rdx,%rdx
  101eb6:	74 6f                	je     101f27 <free+0x137>
  101eb8:	8b 41 0c             	mov    0xc(%rcx),%eax
  101ebb:	85 c0                	test   %eax,%eax
  101ebd:	78 68                	js     101f27 <free+0x137>
  101ebf:	48 39 0c c5 50 27 12 	cmp    %rcx,0x122750(,%rax,8)
  101ec6:	00 
  101ec7:	75 0c                	jne    101ed5 <free+0xe5>
  101ec9:	48 8b 51 20          	mov    0x20(%rcx),%rdx
  101ecd:	48 89 14 c5 50 27 12 	mov    %rdx,0x122750(,%rax,8)
  101ed4:	00 
  101ed5:	48 8b 51 28          	mov    0x28(%rcx),%rdx
  101ed9:	48 85 d2             	test   %rdx,%rdx
  101edc:	74 08                	je     101ee6 <free+0xf6>
  101ede:	48 8b 71 20          	mov    0x20(%rcx),%rsi
  101ee2:	48 89 72 20          	mov    %rsi,0x20(%rdx)
  101ee6:	48 8b 71 20          	mov    0x20(%rcx),%rsi
  101eea:	48 85 f6             	test   %rsi,%rsi
  101eed:	74 04                	je     101ef3 <free+0x103>
  101eef:	48 89 56 28          	mov    %rdx,0x28(%rsi)
  101ef3:	48 c7 41 20 00 00 00 	movq   $0x0,0x20(%rcx)
  101efa:	00 
  101efb:	48 c7 41 28 00 00 00 	movq   $0x0,0x28(%rcx)
  101f02:	00 
  101f03:	c7 41 0c ff ff ff ff 	movl   $0xffffffff,0xc(%rcx)
  101f0a:	8b 51 08             	mov    0x8(%rcx),%edx
  101f0d:	01 57 08             	add    %edx,0x8(%rdi)
  101f10:	48 8b 51 18          	mov    0x18(%rcx),%rdx
  101f14:	48 89 57 18          	mov    %rdx,0x18(%rdi)
  101f18:	48 8b 49 18          	mov    0x18(%rcx),%rcx
  101f1c:	48 85 c9             	test   %rcx,%rcx
  101f1f:	74 8f                	je     101eb0 <free+0xc0>
  101f21:	48 89 79 10          	mov    %rdi,0x10(%rcx)
  101f25:	eb 89                	jmp    101eb0 <free+0xc0>
  101f27:	c1 e8 1f             	shr    $0x1f,%eax
  101f2a:	44 8b 47 08          	mov    0x8(%rdi),%r8d
  101f2e:	45 8d 48 d0          	lea    -0x30(%r8),%r9d
  101f32:	be ff ff ff ff       	mov    $0xffffffff,%esi
  101f37:	41 81 f9 00 01 00 00 	cmp    $0x100,%r9d
  101f3e:	72 23                	jb     101f63 <free+0x173>
  101f40:	be 06 00 00 00       	mov    $0x6,%esi
  101f45:	66 66 2e 0f 1f 84 00 	data16 cs nopw 0x0(%rax,%rax,1)
  101f4c:	00 00 00 00 
  101f50:	8d 4e 02             	lea    0x2(%rsi),%ecx
  101f53:	44 89 ca             	mov    %r9d,%edx
  101f56:	d3 ea                	shr    %cl,%edx
  101f58:	ff c6                	inc    %esi
  101f5a:	83 f9 1f             	cmp    $0x1f,%ecx
  101f5d:	77 04                	ja     101f63 <free+0x173>
  101f5f:	85 d2                	test   %edx,%edx
  101f61:	75 ed                	jne    101f50 <free+0x160>
  101f63:	83 fe 09             	cmp    $0x9,%esi
  101f66:	b9 08 00 00 00       	mov    $0x8,%ecx
  101f6b:	0f 4d ce             	cmovge %esi,%ecx
  101f6e:	48 83 7f 10 00       	cmpq   $0x0,0x10(%rdi)
  101f73:	0f 95 c2             	setne  %dl
  101f76:	08 c2                	or     %al,%dl
  101f78:	75 3a                	jne    101fb4 <free+0x1c4>
  101f7a:	8b 04 8d 50 28 12 00 	mov    0x122850(,%rcx,4),%eax
  101f81:	83 f8 05             	cmp    $0x5,%eax
  101f84:	75 25                	jne    101fab <free+0x1bb>
  101f86:	44 89 c0             	mov    %r8d,%eax
  101f89:	c1 e8 15             	shr    $0x15,%eax
  101f8c:	41 81 e0 ff ff 1f 00 	and    $0x1fffff,%r8d
  101f93:	41 83 f8 01          	cmp    $0x1,%r8d
  101f97:	83 d8 ff             	sbb    $0xffffffff,%eax
  101f9a:	83 f8 11             	cmp    $0x11,%eax
  101f9d:	be 10 00 00 00       	mov    $0x10,%esi
  101fa2:	0f 43 f0             	cmovae %eax,%esi
  101fa5:	5d                   	pop    %rbp
  101fa6:	e9 95 0a 00 00       	jmp    102a40 <page_free_found>
  101fab:	ff c0                	inc    %eax
  101fad:	89 04 8d 50 28 12 00 	mov    %eax,0x122850(,%rcx,4)
  101fb4:	89 4f 0c             	mov    %ecx,0xc(%rdi)
  101fb7:	48 8b 04 cd 50 27 12 	mov    0x122750(,%rcx,8),%rax
  101fbe:	00 
  101fbf:	48 85 c0             	test   %rax,%rax
  101fc2:	74 10                	je     101fd4 <free+0x1e4>
  101fc4:	48 89 78 28          	mov    %rdi,0x28(%rax)
  101fc8:	48 8b 04 cd 50 27 12 	mov    0x122750(,%rcx,8),%rax
  101fcf:	00 
  101fd0:	48 89 47 20          	mov    %rax,0x20(%rdi)
  101fd4:	48 89 3c cd 50 27 12 	mov    %rdi,0x122750(,%rcx,8)
  101fdb:	00 
  101fdc:	5d                   	pop    %rbp
  101fdd:	c3                   	ret
  101fde:	66 90                	xchg   %ax,%ax

0000000000101fe0 <calloc>:
  101fe0:	55                   	push   %rbp
  101fe1:	48 89 e5             	mov    %rsp,%rbp
  101fe4:	53                   	push   %rbx
  101fe5:	50                   	push   %rax
  101fe6:	89 fb                	mov    %edi,%ebx
  101fe8:	0f af de             	imul   %esi,%ebx
  101feb:	89 df                	mov    %ebx,%edi
  101fed:	e8 5e fb ff ff       	call   101b50 <malloc>
  101ff2:	85 db                	test   %ebx,%ebx
  101ff4:	74 46                	je     10203c <calloc+0x5c>
  101ff6:	48 8d 53 ff          	lea    -0x1(%rbx),%rdx
  101ffa:	89 d9                	mov    %ebx,%ecx
  101ffc:	83 e1 07             	and    $0x7,%ecx
  101fff:	48 83 fa 07          	cmp    $0x7,%rdx
  102003:	73 04                	jae    102009 <calloc+0x29>
  102005:	31 d2                	xor    %edx,%edx
  102007:	eb 18                	jmp    102021 <calloc+0x41>
  102009:	83 e3 f8             	and    $0xfffffff8,%ebx
  10200c:	31 d2                	xor    %edx,%edx
  10200e:	66 90                	xchg   %ax,%ax
  102010:	48 c7 04 10 00 00 00 	movq   $0x0,(%rax,%rdx,1)
  102017:	00 
  102018:	48 83 c2 08          	add    $0x8,%rdx
  10201c:	48 39 d3             	cmp    %rdx,%rbx
  10201f:	75 ef                	jne    102010 <calloc+0x30>
  102021:	48 85 c9             	test   %rcx,%rcx
  102024:	74 16                	je     10203c <calloc+0x5c>
  102026:	48 89 c6             	mov    %rax,%rsi
  102029:	48 01 d6             	add    %rdx,%rsi
  10202c:	31 d2                	xor    %edx,%edx
  10202e:	66 90                	xchg   %ax,%ax
  102030:	c6 04 16 00          	movb   $0x0,(%rsi,%rdx,1)
  102034:	48 ff c2             	inc    %rdx
  102037:	48 39 d1             	cmp    %rdx,%rcx
  10203a:	75 f4                	jne    102030 <calloc+0x50>
  10203c:	48 83 c4 08          	add    $0x8,%rsp
  102040:	5b                   	pop    %rbx
  102041:	5d                   	pop    %rbp
  102042:	c3                   	ret
  102043:	66 66 66 66 2e 0f 1f 	data16 data16 data16 cs nopw 0x0(%rax,%rax,1)
  10204a:	84 00 00 00 00 00 

0000000000102050 <realloc>:
  102050:	55                   	push   %rbp
  102051:	48 89 e5             	mov    %rsp,%rbp
  102054:	41 57                	push   %r15
  102056:	41 56                	push   %r14
  102058:	53                   	push   %rbx
  102059:	50                   	push   %rax
  10205a:	49 89 ff             	mov    %rdi,%r15
  10205d:	85 f6                	test   %esi,%esi
  10205f:	74 62                	je     1020c3 <realloc+0x73>
  102061:	4d 85 ff             	test   %r15,%r15
  102064:	74 6d                	je     1020d3 <realloc+0x83>
  102066:	41 8b 5f d4          	mov    -0x2c(%r15),%ebx
  10206a:	39 f3                	cmp    %esi,%ebx
  10206c:	0f 43 de             	cmovae %esi,%ebx
  10206f:	89 f7                	mov    %esi,%edi
  102071:	e8 da fa ff ff       	call   101b50 <malloc>
  102076:	49 89 c6             	mov    %rax,%r14
  102079:	83 fb 04             	cmp    $0x4,%ebx
  10207c:	72 66                	jb     1020e4 <realloc+0x94>
  10207e:	8d 53 fc             	lea    -0x4(%rbx),%edx
  102081:	89 d0                	mov    %edx,%eax
  102083:	c1 e8 02             	shr    $0x2,%eax
  102086:	8d 48 01             	lea    0x1(%rax),%ecx
  102089:	f6 c1 07             	test   $0x7,%cl
  10208c:	74 5e                	je     1020ec <realloc+0x9c>
  10208e:	fe c0                	inc    %al
  102090:	0f b6 c0             	movzbl %al,%eax
  102093:	83 e0 07             	and    $0x7,%eax
  102096:	48 c1 e0 02          	shl    $0x2,%rax
  10209a:	31 f6                	xor    %esi,%esi
  10209c:	0f 1f 40 00          	nopl   0x0(%rax)
  1020a0:	41 8b 0c 37          	mov    (%r15,%rsi,1),%ecx
  1020a4:	41 89 0c 36          	mov    %ecx,(%r14,%rsi,1)
  1020a8:	48 83 c6 04          	add    $0x4,%rsi
  1020ac:	39 f0                	cmp    %esi,%eax
  1020ae:	75 f0                	jne    1020a0 <realloc+0x50>
  1020b0:	49 8d 04 37          	lea    (%r15,%rsi,1),%rax
  1020b4:	4c 89 f1             	mov    %r14,%rcx
  1020b7:	48 01 f1             	add    %rsi,%rcx
  1020ba:	29 f3                	sub    %esi,%ebx
  1020bc:	83 fa 1c             	cmp    $0x1c,%edx
  1020bf:	73 3f                	jae    102100 <realloc+0xb0>
  1020c1:	eb 7b                	jmp    10213e <realloc+0xee>
  1020c3:	4c 89 ff             	mov    %r15,%rdi
  1020c6:	e8 25 fd ff ff       	call   101df0 <free>
  1020cb:	45 31 f6             	xor    %r14d,%r14d
  1020ce:	e9 03 01 00 00       	jmp    1021d6 <realloc+0x186>
  1020d3:	89 f7                	mov    %esi,%edi
  1020d5:	48 83 c4 08          	add    $0x8,%rsp
  1020d9:	5b                   	pop    %rbx
  1020da:	41 5e                	pop    %r14
  1020dc:	41 5f                	pop    %r15
  1020de:	5d                   	pop    %rbp
  1020df:	e9 6c fa ff ff       	jmp    101b50 <malloc>
  1020e4:	4c 89 f1             	mov    %r14,%rcx
  1020e7:	4c 89 f8             	mov    %r15,%rax
  1020ea:	eb 52                	jmp    10213e <realloc+0xee>
  1020ec:	4c 89 f8             	mov    %r15,%rax
  1020ef:	4c 89 f1             	mov    %r14,%rcx
  1020f2:	83 fa 1c             	cmp    $0x1c,%edx
  1020f5:	72 47                	jb     10213e <realloc+0xee>
  1020f7:	66 0f 1f 84 00 00 00 	nopw   0x0(%rax,%rax,1)
  1020fe:	00 00 
  102100:	8b 10                	mov    (%rax),%edx
  102102:	89 11                	mov    %edx,(%rcx)
  102104:	8b 50 04             	mov    0x4(%rax),%edx
  102107:	89 51 04             	mov    %edx,0x4(%rcx)
  10210a:	8b 50 08             	mov    0x8(%rax),%edx
  10210d:	89 51 08             	mov    %edx,0x8(%rcx)
  102110:	8b 50 0c             	mov    0xc(%rax),%edx
  102113:	89 51 0c             	mov    %edx,0xc(%rcx)
  102116:	8b 50 10             	mov    0x10(%rax),%edx
  102119:	89 51 10             	mov    %edx,0x10(%rcx)
  10211c:	8b 50 14             	mov    0x14(%rax),%edx
  10211f:	89 51 14             	mov    %edx,0x14(%rcx)
  102122:	8b 50 18             	mov    0x18(%rax),%edx
  102125:	89 51 18             	mov    %edx,0x18(%rcx)
  102128:	8b 50 1c             	mov    0x1c(%rax),%edx
  10212b:	48 83 c0 20          	add    $0x20,%rax
  10212f:	89 51 1c             	mov    %edx,0x1c(%rcx)
  102132:	48 83 c1 20          	add    $0x20,%rcx
  102136:	83 c3 e0             	add    $0xffffffe0,%ebx
  102139:	83 fb 03             	cmp    $0x3,%ebx
  10213c:	77 c2                	ja     102100 <realloc+0xb0>
  10213e:	85 db                	test   %ebx,%ebx
  102140:	0f 84 88 00 00 00    	je     1021ce <realloc+0x17e>
  102146:	44 8d 43 ff          	lea    -0x1(%rbx),%r8d
  10214a:	f6 c3 07             	test   $0x7,%bl
  10214d:	74 27                	je     102176 <realloc+0x126>
  10214f:	89 df                	mov    %ebx,%edi
  102151:	83 e7 07             	and    $0x7,%edi
  102154:	31 f6                	xor    %esi,%esi
  102156:	66 2e 0f 1f 84 00 00 	cs nopw 0x0(%rax,%rax,1)
  10215d:	00 00 00 
  102160:	0f b6 14 30          	movzbl (%rax,%rsi,1),%edx
  102164:	88 14 31             	mov    %dl,(%rcx,%rsi,1)
  102167:	48 ff c6             	inc    %rsi
  10216a:	39 f7                	cmp    %esi,%edi
  10216c:	75 f2                	jne    102160 <realloc+0x110>
  10216e:	48 01 f0             	add    %rsi,%rax
  102171:	48 01 f1             	add    %rsi,%rcx
  102174:	29 f3                	sub    %esi,%ebx
  102176:	41 83 f8 07          	cmp    $0x7,%r8d
  10217a:	72 52                	jb     1021ce <realloc+0x17e>
  10217c:	89 da                	mov    %ebx,%edx
  10217e:	31 f6                	xor    %esi,%esi
  102180:	0f b6 1c 30          	movzbl (%rax,%rsi,1),%ebx
  102184:	88 1c 31             	mov    %bl,(%rcx,%rsi,1)
  102187:	0f b6 5c 30 01       	movzbl 0x1(%rax,%rsi,1),%ebx
  10218c:	88 5c 31 01          	mov    %bl,0x1(%rcx,%rsi,1)
  102190:	0f b6 5c 30 02       	movzbl 0x2(%rax,%rsi,1),%ebx
  102195:	88 5c 31 02          	mov    %bl,0x2(%rcx,%rsi,1)
  102199:	0f b6 5c 30 03       	movzbl 0x3(%rax,%rsi,1),%ebx
  10219e:	88 5c 31 03          	mov    %bl,0x3(%rcx,%rsi,1)
  1021a2:	0f b6 5c 30 04       	movzbl 0x4(%rax,%rsi,1),%ebx
  1021a7:	88 5c 31 04          	mov    %bl,0x4(%rcx,%rsi,1)
  1021ab:	0f b6 5c 30 05       	movzbl 0x5(%rax,%rsi,1),%ebx
  1021b0:	88 5c 31 05          	mov    %bl,0x5(%rcx,%rsi,1)
  1021b4:	0f b6 5c 30 06       	movzbl 0x6(%rax,%rsi,1),%ebx
  1021b9:	88 5c 31 06          	mov    %bl,0x6(%rcx,%rsi,1)
  1021bd:	0f b6 5c 30 07       	movzbl 0x7(%rax,%rsi,1),%ebx
  1021c2:	88 5c 31 07          	mov    %bl,0x7(%rcx,%rsi,1)
  1021c6:	48 83 c6 08          	add    $0x8,%rsi
  1021ca:	39 f2                	cmp    %esi,%edx
  1021cc:	75 b2                	jne    102180 <realloc+0x130>
  1021ce:	4c 89 ff             	mov    %r15,%rdi
  1021d1:	e8 1a fc ff ff       	call   101df0 <free>
  1021d6:	4c 89 f0             	mov    %r14,%rax
  1021d9:	48 83 c4 08          	add    $0x8,%rsp
  1021dd:	5b                   	pop    %rbx
  1021de:	41 5e                	pop    %r14
  1021e0:	41 5f                	pop    %r15
  1021e2:	5d                   	pop    %rbp
  1021e3:	c3                   	ret
  1021e4:	66 2e 0f 1f 84 00 00 	cs nopw 0x0(%rax,%rax,1)
  1021eb:	00 00 00 
  1021ee:	66 90                	xchg   %ax,%ax

00000000001021f0 <page_init_map>:
  1021f0:	55                   	push   %rbp
  1021f1:	48 89 e5             	mov    %rsp,%rbp
  1021f4:	31 c0                	xor    %eax,%eax
  1021f6:	66 2e 0f 1f 84 00 00 	cs nopw 0x0(%rax,%rax,1)
  1021fd:	00 00 00 
  102200:	48 c7 80 00 30 12 00 	movq   $0x0,0x123000(%rax)
  102207:	00 00 00 00 
  10220b:	48 83 c0 08          	add    $0x8,%rax
  10220f:	48 3d 00 00 00 01    	cmp    $0x1000000,%rax
  102215:	75 e9                	jne    102200 <page_init_map+0x10>
  102217:	48 c7 c0 00 f0 ff ff 	mov    $0xfffffffffffff000,%rax
  10221e:	66 90                	xchg   %ax,%ax
  102220:	48 c7 80 00 40 12 01 	movq   $0x0,0x1124000(%rax)
  102227:	00 00 00 00 
  10222b:	48 c7 80 08 40 12 01 	movq   $0x0,0x1124008(%rax)
  102232:	00 00 00 00 
  102236:	48 c7 80 10 40 12 01 	movq   $0x0,0x1124010(%rax)
  10223d:	00 00 00 00 
  102241:	48 c7 80 18 40 12 01 	movq   $0x0,0x1124018(%rax)
  102248:	00 00 00 00 
  10224c:	48 c7 80 20 40 12 01 	movq   $0x0,0x1124020(%rax)
  102253:	00 00 00 00 
  102257:	48 c7 80 28 40 12 01 	movq   $0x0,0x1124028(%rax)
  10225e:	00 00 00 00 
  102262:	48 c7 80 30 40 12 01 	movq   $0x0,0x1124030(%rax)
  102269:	00 00 00 00 
  10226d:	48 c7 80 38 40 12 01 	movq   $0x0,0x1124038(%rax)
  102274:	00 00 00 00 
  102278:	48 83 c0 40          	add    $0x40,%rax
  10227c:	75 a2                	jne    102220 <page_init_map+0x30>
  10227e:	5d                   	pop    %rbp
  10227f:	c3                   	ret

0000000000102280 <page_lookup_paddr>:
  102280:	55                   	push   %rbp
  102281:	48 89 e5             	mov    %rsp,%rbp
  102284:	53                   	push   %rbx
  102285:	50                   	push   %rax
  102286:	48 89 fb             	mov    %rdi,%rbx
  102289:	48 89 f8             	mov    %rdi,%rax
  10228c:	48 c1 e8 24          	shr    $0x24,%rax
  102290:	25 f8 0f 00 00       	and    $0xff8,%eax
  102295:	8b 88 00 30 12 01    	mov    0x1123000(%rax),%ecx
  10229b:	0f b6 90 04 30 12 01 	movzbl 0x1123004(%rax),%edx
  1022a2:	48 c1 e2 20          	shl    $0x20,%rdx
  1022a6:	48 09 ca             	or     %rcx,%rdx
  1022a9:	48 c1 ea 0c          	shr    $0xc,%rdx
  1022ad:	0f b6 80 05 30 12 01 	movzbl 0x1123005(%rax),%eax
  1022b4:	c1 e0 1c             	shl    $0x1c,%eax
  1022b7:	48 98                	cltq
  1022b9:	48 09 d0             	or     %rdx,%rax
  1022bc:	74 72                	je     102330 <page_lookup_paddr+0xb0>
  1022be:	48 c1 e0 0c          	shl    $0xc,%rax
  1022c2:	48 89 d9             	mov    %rbx,%rcx
  1022c5:	48 c1 e9 1b          	shr    $0x1b,%rcx
  1022c9:	81 e1 f8 0f 00 00    	and    $0xff8,%ecx
  1022cf:	8b 14 08             	mov    (%rax,%rcx,1),%edx
  1022d2:	0f b6 74 08 04       	movzbl 0x4(%rax,%rcx,1),%esi
  1022d7:	48 c1 e6 20          	shl    $0x20,%rsi
  1022db:	48 09 d6             	or     %rdx,%rsi
  1022de:	48 c1 ee 0c          	shr    $0xc,%rsi
  1022e2:	0f b6 44 08 05       	movzbl 0x5(%rax,%rcx,1),%eax
  1022e7:	c1 e0 1c             	shl    $0x1c,%eax
  1022ea:	48 63 c8             	movslq %eax,%rcx
  1022ed:	48 09 f1             	or     %rsi,%rcx
  1022f0:	74 3e                	je     102330 <page_lookup_paddr+0xb0>
  1022f2:	89 d8                	mov    %ebx,%eax
  1022f4:	25 ff ff 1f 00       	and    $0x1fffff,%eax
  1022f9:	c1 eb 15             	shr    $0x15,%ebx
  1022fc:	81 e3 ff 01 00 00    	and    $0x1ff,%ebx
  102302:	48 c1 e1 0c          	shl    $0xc,%rcx
  102306:	8b 14 d9             	mov    (%rcx,%rbx,8),%edx
  102309:	0f b6 74 d9 04       	movzbl 0x4(%rcx,%rbx,8),%esi
  10230e:	48 c1 e6 20          	shl    $0x20,%rsi
  102312:	48 09 d6             	or     %rdx,%rsi
  102315:	48 c1 ee 0c          	shr    $0xc,%rsi
  102319:	0f b6 4c d9 05       	movzbl 0x5(%rcx,%rbx,8),%ecx
  10231e:	c1 e1 1c             	shl    $0x1c,%ecx
  102321:	48 63 d9             	movslq %ecx,%rbx
  102324:	48 09 f3             	or     %rsi,%rbx
  102327:	48 c1 e3 0c          	shl    $0xc,%rbx
  10232b:	48 01 c3             	add    %rax,%rbx
  10232e:	eb 0a                	jmp    10233a <page_lookup_paddr+0xba>
  102330:	bf eb 91 10 00       	mov    $0x1091eb,%edi
  102335:	e8 a6 ee ff ff       	call   1011e0 <dbgconout>
  10233a:	48 89 d8             	mov    %rbx,%rax
  10233d:	48 83 c4 08          	add    $0x8,%rsp
  102341:	5b                   	pop    %rbx
  102342:	5d                   	pop    %rbp
  102343:	c3                   	ret
  102344:	66 66 66 2e 0f 1f 84 	data16 data16 cs nopw 0x0(%rax,%rax,1)
  10234b:	00 00 00 00 00 

0000000000102350 <page_alloc>:
  102350:	55                   	push   %rbp
  102351:	48 89 e5             	mov    %rsp,%rbp
  102354:	41 57                	push   %r15
  102356:	41 56                	push   %r14
  102358:	41 55                	push   %r13
  10235a:	41 54                	push   %r12
  10235c:	53                   	push   %rbx
  10235d:	50                   	push   %rax
  10235e:	49 89 f7             	mov    %rsi,%r15
  102361:	49 89 fe             	mov    %rdi,%r14
  102364:	48 89 f3             	mov    %rsi,%rbx
  102367:	48 c1 eb 27          	shr    $0x27,%rbx
  10236b:	81 e3 ff 01 00 00    	and    $0x1ff,%ebx
  102371:	49 89 f4             	mov    %rsi,%r12
  102374:	49 c1 ec 1e          	shr    $0x1e,%r12
  102378:	41 81 e4 ff 01 00 00 	and    $0x1ff,%r12d
  10237f:	8b 04 dd 00 30 12 01 	mov    0x1123000(,%rbx,8),%eax
  102386:	0f b6 0c dd 04 30 12 	movzbl 0x1123004(,%rbx,8),%ecx
  10238d:	01 
  10238e:	48 c1 e1 20          	shl    $0x20,%rcx
  102392:	48 09 c1             	or     %rax,%rcx
  102395:	f6 c1 01             	test   $0x1,%cl
  102398:	75 36                	jne    1023d0 <page_alloc+0x80>
  10239a:	bf 00 b0 10 00       	mov    $0x10b000,%edi
  10239f:	be 00 10 00 00       	mov    $0x1000,%esi
  1023a4:	e8 27 ef ff ff       	call   1012d0 <k_heapSSAlloc>
  1023a9:	8b 0c dd 00 30 12 01 	mov    0x1123000(,%rbx,8),%ecx
  1023b0:	48 89 c2             	mov    %rax,%rdx
  1023b3:	48 81 e2 00 f0 ff ff 	and    $0xfffffffffffff000,%rdx
  1023ba:	81 e1 ff 0f 00 00    	and    $0xfff,%ecx
  1023c0:	48 09 d1             	or     %rdx,%rcx
  1023c3:	48 c1 e8 28          	shr    $0x28,%rax
  1023c7:	88 04 dd 05 30 12 01 	mov    %al,0x1123005(,%rbx,8)
  1023ce:	eb 08                	jmp    1023d8 <page_alloc+0x88>
  1023d0:	0f b6 04 dd 05 30 12 	movzbl 0x1123005(,%rbx,8),%eax
  1023d7:	01 
  1023d8:	48 89 ca             	mov    %rcx,%rdx
  1023db:	48 83 ca 03          	or     $0x3,%rdx
  1023df:	48 89 ce             	mov    %rcx,%rsi
  1023e2:	48 c1 ee 20          	shr    $0x20,%rsi
  1023e6:	40 88 34 dd 04 30 12 	mov    %sil,0x1123004(,%rbx,8)
  1023ed:	01 
  1023ee:	89 14 dd 00 30 12 01 	mov    %edx,0x1123000(,%rbx,8)
  1023f5:	48 c1 e9 0c          	shr    $0xc,%rcx
  1023f9:	81 e1 ff ff ff 0f    	and    $0xfffffff,%ecx
  1023ff:	0f b6 c0             	movzbl %al,%eax
  102402:	c1 e0 1c             	shl    $0x1c,%eax
  102405:	48 63 d8             	movslq %eax,%rbx
  102408:	48 09 cb             	or     %rcx,%rbx
  10240b:	48 c1 e3 0c          	shl    $0xc,%rbx
  10240f:	42 8b 0c e3          	mov    (%rbx,%r12,8),%ecx
  102413:	42 0f b6 44 e3 04    	movzbl 0x4(%rbx,%r12,8),%eax
  102419:	48 c1 e0 20          	shl    $0x20,%rax
  10241d:	48 09 c8             	or     %rcx,%rax
  102420:	48 89 c2             	mov    %rax,%rdx
  102423:	48 c1 ea 0c          	shr    $0xc,%rdx
  102427:	42 0f b6 4c e3 05    	movzbl 0x5(%rbx,%r12,8),%ecx
  10242d:	c1 e1 1c             	shl    $0x1c,%ecx
  102430:	48 63 c9             	movslq %ecx,%rcx
  102433:	48 09 d1             	or     %rdx,%rcx
  102436:	74 0b                	je     102443 <page_alloc+0xf3>
  102438:	89 c2                	mov    %eax,%edx
  10243a:	83 e2 01             	and    $0x1,%edx
  10243d:	0f 85 0c 01 00 00    	jne    10254f <page_alloc+0x1ff>
  102443:	bf 00 b0 10 00       	mov    $0x10b000,%edi
  102448:	be 00 10 00 00       	mov    $0x1000,%esi
  10244d:	e8 7e ee ff ff       	call   1012d0 <k_heapSSAlloc>
  102452:	49 89 c5             	mov    %rax,%r13
  102455:	48 c1 e8 24          	shr    $0x24,%rax
  102459:	25 f8 0f 00 00       	and    $0xff8,%eax
  10245e:	8b 88 00 30 12 01    	mov    0x1123000(%rax),%ecx
  102464:	0f b6 90 04 30 12 01 	movzbl 0x1123004(%rax),%edx
  10246b:	48 c1 e2 20          	shl    $0x20,%rdx
  10246f:	48 09 ca             	or     %rcx,%rdx
  102472:	48 c1 ea 0c          	shr    $0xc,%rdx
  102476:	0f b6 80 05 30 12 01 	movzbl 0x1123005(%rax),%eax
  10247d:	c1 e0 1c             	shl    $0x1c,%eax
  102480:	48 98                	cltq
  102482:	48 09 d0             	or     %rdx,%rax
  102485:	74 78                	je     1024ff <page_alloc+0x1af>
  102487:	48 c1 e0 0c          	shl    $0xc,%rax
  10248b:	4c 89 e9             	mov    %r13,%rcx
  10248e:	48 c1 e9 1b          	shr    $0x1b,%rcx
  102492:	81 e1 f8 0f 00 00    	and    $0xff8,%ecx
  102498:	8b 14 08             	mov    (%rax,%rcx,1),%edx
  10249b:	0f b6 74 08 04       	movzbl 0x4(%rax,%rcx,1),%esi
  1024a0:	48 c1 e6 20          	shl    $0x20,%rsi
  1024a4:	48 09 d6             	or     %rdx,%rsi
  1024a7:	48 c1 ee 0c          	shr    $0xc,%rsi
  1024ab:	0f b6 44 08 05       	movzbl 0x5(%rax,%rcx,1),%eax
  1024b0:	c1 e0 1c             	shl    $0x1c,%eax
  1024b3:	48 63 c8             	movslq %eax,%rcx
  1024b6:	48 09 f1             	or     %rsi,%rcx
  1024b9:	74 44                	je     1024ff <page_alloc+0x1af>
  1024bb:	44 89 e8             	mov    %r13d,%eax
  1024be:	25 ff ff 1f 00       	and    $0x1fffff,%eax
  1024c3:	41 c1 ed 15          	shr    $0x15,%r13d
  1024c7:	41 81 e5 ff 01 00 00 	and    $0x1ff,%r13d
  1024ce:	48 c1 e1 0c          	shl    $0xc,%rcx
  1024d2:	42 8b 14 e9          	mov    (%rcx,%r13,8),%edx
  1024d6:	42 0f b6 74 e9 04    	movzbl 0x4(%rcx,%r13,8),%esi
  1024dc:	48 c1 e6 20          	shl    $0x20,%rsi
  1024e0:	48 09 d6             	or     %rdx,%rsi
  1024e3:	48 c1 ee 0c          	shr    $0xc,%rsi
  1024e7:	42 0f b6 4c e9 05    	movzbl 0x5(%rcx,%r13,8),%ecx
  1024ed:	c1 e1 1c             	shl    $0x1c,%ecx
  1024f0:	4c 63 e9             	movslq %ecx,%r13
  1024f3:	49 09 f5             	or     %rsi,%r13
  1024f6:	49 c1 e5 0c          	shl    $0xc,%r13
  1024fa:	49 01 c5             	add    %rax,%r13
  1024fd:	eb 0a                	jmp    102509 <page_alloc+0x1b9>
  1024ff:	bf eb 91 10 00       	mov    $0x1091eb,%edi
  102504:	e8 d7 ec ff ff       	call   1011e0 <dbgconout>
  102509:	42 8b 04 e3          	mov    (%rbx,%r12,8),%eax
  10250d:	4c 89 e9             	mov    %r13,%rcx
  102510:	48 81 e1 00 f0 ff ff 	and    $0xfffffffffffff000,%rcx
  102517:	25 ff 0f 00 00       	and    $0xfff,%eax
  10251c:	48 09 c8             	or     %rcx,%rax
  10251f:	4c 89 e9             	mov    %r13,%rcx
  102522:	48 c1 e9 20          	shr    $0x20,%rcx
  102526:	42 88 4c e3 04       	mov    %cl,0x4(%rbx,%r12,8)
  10252b:	42 89 04 e3          	mov    %eax,(%rbx,%r12,8)
  10252f:	4c 89 e9             	mov    %r13,%rcx
  102532:	48 c1 e9 28          	shr    $0x28,%rcx
  102536:	42 88 4c e3 05       	mov    %cl,0x5(%rbx,%r12,8)
  10253b:	49 c1 ed 0c          	shr    $0xc,%r13
  10253f:	41 81 e5 ff ff ff 0f 	and    $0xfffffff,%r13d
  102546:	c1 e1 1c             	shl    $0x1c,%ecx
  102549:	48 63 c9             	movslq %ecx,%rcx
  10254c:	4c 09 e9             	or     %r13,%rcx
  10254f:	48 89 c2             	mov    %rax,%rdx
  102552:	48 83 ca 03          	or     $0x3,%rdx
  102556:	48 c1 e8 20          	shr    $0x20,%rax
  10255a:	42 88 44 e3 04       	mov    %al,0x4(%rbx,%r12,8)
  10255f:	42 89 14 e3          	mov    %edx,(%rbx,%r12,8)
  102563:	48 c1 e1 0c          	shl    $0xc,%rcx
  102567:	49 c1 ef 12          	shr    $0x12,%r15
  10256b:	41 81 e7 f8 0f 00 00 	and    $0xff8,%r15d
  102572:	42 8b 04 39          	mov    (%rcx,%r15,1),%eax
  102576:	48 ba 00 00 e0 ff ff 	movabs $0xffffe00000,%rdx
  10257d:	00 00 00 
  102580:	4c 21 f2             	and    %r14,%rdx
  102583:	25 7c ef 1f 00       	and    $0x1fef7c,%eax
  102588:	4c 89 f6             	mov    %r14,%rsi
  10258b:	48 c1 ee 28          	shr    $0x28,%rsi
  10258f:	42 88 74 39 05       	mov    %sil,0x5(%rcx,%r15,1)
  102594:	48 01 d0             	add    %rdx,%rax
  102597:	48 05 83 00 00 00    	add    $0x83,%rax
  10259d:	4c 89 f2             	mov    %r14,%rdx
  1025a0:	48 c1 ea 20          	shr    $0x20,%rdx
  1025a4:	42 88 54 39 04       	mov    %dl,0x4(%rcx,%r15,1)
  1025a9:	42 89 04 39          	mov    %eax,(%rcx,%r15,1)
  1025ad:	4c 89 f1             	mov    %r14,%rcx
  1025b0:	48 c1 e9 15          	shr    $0x15,%rcx
  1025b4:	80 e1 07             	and    $0x7,%cl
  1025b7:	b0 01                	mov    $0x1,%al
  1025b9:	d2 e0                	shl    %cl,%al
  1025bb:	49 c1 ee 18          	shr    $0x18,%r14
  1025bf:	41 08 86 00 30 12 00 	or     %al,0x123000(%r14)
  1025c6:	48 83 c4 08          	add    $0x8,%rsp
  1025ca:	5b                   	pop    %rbx
  1025cb:	41 5c                	pop    %r12
  1025cd:	41 5d                	pop    %r13
  1025cf:	41 5e                	pop    %r14
  1025d1:	41 5f                	pop    %r15
  1025d3:	5d                   	pop    %rbp
  1025d4:	c3                   	ret
  1025d5:	66 66 2e 0f 1f 84 00 	data16 cs nopw 0x0(%rax,%rax,1)
  1025dc:	00 00 00 00 

00000000001025e0 <page_alloc_dev>:
  1025e0:	55                   	push   %rbp
  1025e1:	48 89 e5             	mov    %rsp,%rbp
  1025e4:	41 57                	push   %r15
  1025e6:	41 56                	push   %r14
  1025e8:	41 55                	push   %r13
  1025ea:	41 54                	push   %r12
  1025ec:	53                   	push   %rbx
  1025ed:	50                   	push   %rax
  1025ee:	49 89 f6             	mov    %rsi,%r14
  1025f1:	49 89 ff             	mov    %rdi,%r15
  1025f4:	48 89 f3             	mov    %rsi,%rbx
  1025f7:	48 c1 eb 27          	shr    $0x27,%rbx
  1025fb:	81 e3 ff 01 00 00    	and    $0x1ff,%ebx
  102601:	49 89 f5             	mov    %rsi,%r13
  102604:	49 c1 ed 1e          	shr    $0x1e,%r13
  102608:	41 81 e5 ff 01 00 00 	and    $0x1ff,%r13d
  10260f:	45 89 f4             	mov    %r14d,%r12d
  102612:	41 c1 ec 15          	shr    $0x15,%r12d
  102616:	41 81 e4 ff 01 00 00 	and    $0x1ff,%r12d
  10261d:	8b 04 dd 00 30 12 01 	mov    0x1123000(,%rbx,8),%eax
  102624:	0f b6 0c dd 04 30 12 	movzbl 0x1123004(,%rbx,8),%ecx
  10262b:	01 
  10262c:	48 c1 e1 20          	shl    $0x20,%rcx
  102630:	48 09 c1             	or     %rax,%rcx
  102633:	f6 c1 01             	test   $0x1,%cl
  102636:	75 36                	jne    10266e <page_alloc_dev+0x8e>
  102638:	bf 00 b0 10 00       	mov    $0x10b000,%edi
  10263d:	be 00 10 00 00       	mov    $0x1000,%esi
  102642:	e8 89 ec ff ff       	call   1012d0 <k_heapSSAlloc>
  102647:	8b 0c dd 00 30 12 01 	mov    0x1123000(,%rbx,8),%ecx
  10264e:	48 89 c2             	mov    %rax,%rdx
  102651:	48 81 e2 00 f0 ff ff 	and    $0xfffffffffffff000,%rdx
  102658:	81 e1 ff 0f 00 00    	and    $0xfff,%ecx
  10265e:	48 09 d1             	or     %rdx,%rcx
  102661:	48 c1 e8 28          	shr    $0x28,%rax
  102665:	88 04 dd 05 30 12 01 	mov    %al,0x1123005(,%rbx,8)
  10266c:	eb 08                	jmp    102676 <page_alloc_dev+0x96>
  10266e:	0f b6 04 dd 05 30 12 	movzbl 0x1123005(,%rbx,8),%eax
  102675:	01 
  102676:	48 ba 74 ff ff ff ff 	movabs $0xffffffff74,%rdx
  10267d:	00 00 00 
  102680:	48 21 ca             	and    %rcx,%rdx
  102683:	48 83 ca 0b          	or     $0xb,%rdx
  102687:	48 89 ce             	mov    %rcx,%rsi
  10268a:	48 c1 ee 20          	shr    $0x20,%rsi
  10268e:	40 88 34 dd 04 30 12 	mov    %sil,0x1123004(,%rbx,8)
  102695:	01 
  102696:	89 14 dd 00 30 12 01 	mov    %edx,0x1123000(,%rbx,8)
  10269d:	80 24 dd 06 30 12 01 	andb   $0xf0,0x1123006(,%rbx,8)
  1026a4:	f0 
  1026a5:	48 c1 e9 0c          	shr    $0xc,%rcx
  1026a9:	81 e1 ff ff ff 0f    	and    $0xfffffff,%ecx
  1026af:	0f b6 c0             	movzbl %al,%eax
  1026b2:	c1 e0 1c             	shl    $0x1c,%eax
  1026b5:	48 63 d8             	movslq %eax,%rbx
  1026b8:	48 09 cb             	or     %rcx,%rbx
  1026bb:	48 c1 e3 0c          	shl    $0xc,%rbx
  1026bf:	42 8b 04 eb          	mov    (%rbx,%r13,8),%eax
  1026c3:	42 0f b6 4c eb 04    	movzbl 0x4(%rbx,%r13,8),%ecx
  1026c9:	48 c1 e1 20          	shl    $0x20,%rcx
  1026cd:	48 09 c1             	or     %rax,%rcx
  1026d0:	f6 c1 01             	test   $0x1,%cl
  1026d3:	75 41                	jne    102716 <page_alloc_dev+0x136>
  1026d5:	bf 00 b0 10 00       	mov    $0x10b000,%edi
  1026da:	be 00 10 00 00       	mov    $0x1000,%esi
  1026df:	e8 ec eb ff ff       	call   1012d0 <k_heapSSAlloc>
  1026e4:	42 8b 0c eb          	mov    (%rbx,%r13,8),%ecx
  1026e8:	48 89 c2             	mov    %rax,%rdx
  1026eb:	48 81 e2 00 f0 ff ff 	and    $0xfffffffffffff000,%rdx
  1026f2:	81 e1 ff 0f 00 00    	and    $0xfff,%ecx
  1026f8:	48 09 d1             	or     %rdx,%rcx
  1026fb:	48 89 c2             	mov    %rax,%rdx
  1026fe:	48 c1 ea 20          	shr    $0x20,%rdx
  102702:	42 88 54 eb 04       	mov    %dl,0x4(%rbx,%r13,8)
  102707:	42 89 0c eb          	mov    %ecx,(%rbx,%r13,8)
  10270b:	48 c1 e8 28          	shr    $0x28,%rax
  10270f:	42 88 44 eb 05       	mov    %al,0x5(%rbx,%r13,8)
  102714:	eb 06                	jmp    10271c <page_alloc_dev+0x13c>
  102716:	42 0f b6 44 eb 05    	movzbl 0x5(%rbx,%r13,8),%eax
  10271c:	48 89 ca             	mov    %rcx,%rdx
  10271f:	48 83 ca 0b          	or     $0xb,%rdx
  102723:	48 89 ce             	mov    %rcx,%rsi
  102726:	48 c1 ee 20          	shr    $0x20,%rsi
  10272a:	42 88 74 eb 04       	mov    %sil,0x4(%rbx,%r13,8)
  10272f:	42 89 14 eb          	mov    %edx,(%rbx,%r13,8)
  102733:	42 80 64 eb 06 f0    	andb   $0xf0,0x6(%rbx,%r13,8)
  102739:	48 c1 e9 0c          	shr    $0xc,%rcx
  10273d:	81 e1 ff ff ff 0f    	and    $0xfffffff,%ecx
  102743:	0f b6 c0             	movzbl %al,%eax
  102746:	c1 e0 1c             	shl    $0x1c,%eax
  102749:	48 98                	cltq
  10274b:	48 09 c8             	or     %rcx,%rax
  10274e:	48 c1 e0 0c          	shl    $0xc,%rax
  102752:	42 8b 0c e0          	mov    (%rax,%r12,8),%ecx
  102756:	48 ba 00 10 e0 ff ff 	movabs $0xffffe01000,%rdx
  10275d:	00 00 00 
  102760:	4c 21 fa             	and    %r15,%rdx
  102763:	81 e1 74 0f 00 00    	and    $0xf74,%ecx
  102769:	4c 89 fe             	mov    %r15,%rsi
  10276c:	48 c1 ee 28          	shr    $0x28,%rsi
  102770:	42 88 74 e0 05       	mov    %sil,0x5(%rax,%r12,8)
  102775:	48 01 d1             	add    %rdx,%rcx
  102778:	48 81 c1 8b 00 00 00 	add    $0x8b,%rcx
  10277f:	4c 89 fa             	mov    %r15,%rdx
  102782:	48 c1 ea 20          	shr    $0x20,%rdx
  102786:	42 88 54 e0 04       	mov    %dl,0x4(%rax,%r12,8)
  10278b:	42 89 0c e0          	mov    %ecx,(%rax,%r12,8)
  10278f:	42 80 64 e0 06 f0    	andb   $0xf0,0x6(%rax,%r12,8)
  102795:	4d 85 f6             	test   %r14,%r14
  102798:	75 16                	jne    1027b0 <page_alloc_dev+0x1d0>
  10279a:	4e 8d 34 e0          	lea    (%rax,%r12,8),%r14
  10279e:	bf fb 91 10 00       	mov    $0x1091fb,%edi
  1027a3:	e8 38 ea ff ff       	call   1011e0 <dbgconout>
  1027a8:	4c 89 f7             	mov    %r14,%rdi
  1027ab:	e8 e0 e8 ff ff       	call   101090 <dbgnumout_hex>
  1027b0:	4c 89 f9             	mov    %r15,%rcx
  1027b3:	48 c1 e9 15          	shr    $0x15,%rcx
  1027b7:	80 e1 07             	and    $0x7,%cl
  1027ba:	b0 01                	mov    $0x1,%al
  1027bc:	d2 e0                	shl    %cl,%al
  1027be:	49 c1 ef 18          	shr    $0x18,%r15
  1027c2:	41 08 87 00 30 12 00 	or     %al,0x123000(%r15)
  1027c9:	48 83 c4 08          	add    $0x8,%rsp
  1027cd:	5b                   	pop    %rbx
  1027ce:	41 5c                	pop    %r12
  1027d0:	41 5d                	pop    %r13
  1027d2:	41 5e                	pop    %r14
  1027d4:	41 5f                	pop    %r15
  1027d6:	5d                   	pop    %rbp
  1027d7:	c3                   	ret
  1027d8:	0f 1f 84 00 00 00 00 	nopl   0x0(%rax,%rax,1)
  1027df:	00 

00000000001027e0 <page_virt_find_addr>:
  1027e0:	55                   	push   %rbp
  1027e1:	48 89 e5             	mov    %rsp,%rbp
  1027e4:	41 57                	push   %r15
  1027e6:	41 56                	push   %r14
  1027e8:	53                   	push   %rbx
  1027e9:	49 b9 00 00 e0 ff 7f 	movabs $0x7fffe00000,%r9
  1027f0:	00 00 00 
  1027f3:	49 89 fb             	mov    %rdi,%r11
  1027f6:	49 c1 e3 15          	shl    $0x15,%r11
  1027fa:	31 c0                	xor    %eax,%eax
  1027fc:	4d 8d 91 ff ff 1f 00 	lea    0x1fffff(%r9),%r10
  102803:	49 b8 fe ff ff ff ff 	movabs $0xfffffffffffe,%r8
  10280a:	ff 00 00 
  10280d:	4d 85 db             	test   %r11,%r11
  102810:	0f 84 26 01 00 00    	je     10293c <page_virt_find_addr+0x15c>
  102816:	31 c9                	xor    %ecx,%ecx
  102818:	eb 26                	jmp    102840 <page_virt_find_addr+0x60>
  10281a:	48 05 00 00 00 40    	add    $0x40000000,%rax
  102820:	48 25 00 00 00 c0    	and    $0xffffffffc0000000,%rax
  102826:	66 2e 0f 1f 84 00 00 	cs nopw 0x0(%rax,%rax,1)
  10282d:	00 00 00 
  102830:	48 81 c1 00 00 20 00 	add    $0x200000,%rcx
  102837:	4c 39 d9             	cmp    %r11,%rcx
  10283a:	0f 83 fc 00 00 00    	jae    10293c <page_virt_find_addr+0x15c>
  102840:	4c 8d 34 08          	lea    (%rax,%rcx,1),%r14
  102844:	4c 89 f2             	mov    %r14,%rdx
  102847:	48 c1 ea 27          	shr    $0x27,%rdx
  10284b:	81 e2 ff 01 00 00    	and    $0x1ff,%edx
  102851:	8b 34 d5 00 30 12 01 	mov    0x1123000(,%rdx,8),%esi
  102858:	40 f6 c6 01          	test   $0x1,%sil
  10285c:	75 22                	jne    102880 <page_virt_find_addr+0xa0>
  10285e:	48 81 ff 00 00 04 00 	cmp    $0x40000,%rdi
  102865:	0f 82 d1 00 00 00    	jb     10293c <page_virt_find_addr+0x15c>
  10286b:	48 89 ca             	mov    %rcx,%rdx
  10286e:	4c 21 d2             	and    %r10,%rdx
  102871:	4c 01 c9             	add    %r9,%rcx
  102874:	48 29 d1             	sub    %rdx,%rcx
  102877:	eb b7                	jmp    102830 <page_virt_find_addr+0x50>
  102879:	0f 1f 80 00 00 00 00 	nopl   0x0(%rax)
  102880:	8b 1c d5 04 30 12 01 	mov    0x1123004(,%rdx,8),%ebx
  102887:	48 c1 e3 20          	shl    $0x20,%rbx
  10288b:	48 09 de             	or     %rbx,%rsi
  10288e:	4d 89 f7             	mov    %r14,%r15
  102891:	49 c1 ef 1e          	shr    $0x1e,%r15
  102895:	41 81 e7 ff 01 00 00 	and    $0x1ff,%r15d
  10289c:	48 c1 ee 0c          	shr    $0xc,%rsi
  1028a0:	81 e6 ff ff ff 0f    	and    $0xfffffff,%esi
  1028a6:	0f b6 14 d5 05 30 12 	movzbl 0x1123005(,%rdx,8),%edx
  1028ad:	01 
  1028ae:	c1 e2 1c             	shl    $0x1c,%edx
  1028b1:	48 63 da             	movslq %edx,%rbx
  1028b4:	48 09 f3             	or     %rsi,%rbx
  1028b7:	48 c1 e3 0c          	shl    $0xc,%rbx
  1028bb:	42 8b 14 fb          	mov    (%rbx,%r15,8),%edx
  1028bf:	f6 c2 01             	test   $0x1,%dl
  1028c2:	75 1c                	jne    1028e0 <page_virt_find_addr+0x100>
  1028c4:	48 81 ff 00 02 00 00 	cmp    $0x200,%rdi
  1028cb:	72 6f                	jb     10293c <page_virt_find_addr+0x15c>
  1028cd:	48 81 e1 00 00 00 c0 	and    $0xffffffffc0000000,%rcx
  1028d4:	48 81 c9 00 00 e0 3f 	or     $0x3fe00000,%rcx
  1028db:	e9 50 ff ff ff       	jmp    102830 <page_virt_find_addr+0x50>
  1028e0:	42 8b 74 fb 04       	mov    0x4(%rbx,%r15,8),%esi
  1028e5:	48 c1 e6 20          	shl    $0x20,%rsi
  1028e9:	48 09 f2             	or     %rsi,%rdx
  1028ec:	f6 c2 80             	test   $0x80,%dl
  1028ef:	0f 85 25 ff ff ff    	jne    10281a <page_virt_find_addr+0x3a>
  1028f5:	41 c1 ee 15          	shr    $0x15,%r14d
  1028f9:	41 81 e6 ff 01 00 00 	and    $0x1ff,%r14d
  102900:	48 c1 ea 0c          	shr    $0xc,%rdx
  102904:	81 e2 ff ff ff 0f    	and    $0xfffffff,%edx
  10290a:	42 0f b6 74 fb 05    	movzbl 0x5(%rbx,%r15,8),%esi
  102910:	c1 e6 1c             	shl    $0x1c,%esi
  102913:	48 63 f6             	movslq %esi,%rsi
  102916:	48 09 d6             	or     %rdx,%rsi
  102919:	48 c1 e6 0c          	shl    $0xc,%rsi
  10291d:	42 f6 04 f6 01       	testb  $0x1,(%rsi,%r14,8)
  102922:	0f 84 08 ff ff ff    	je     102830 <page_virt_find_addr+0x50>
  102928:	48 05 00 00 20 00    	add    $0x200000,%rax
  10292e:	4c 39 c0             	cmp    %r8,%rax
  102931:	0f 86 d6 fe ff ff    	jbe    10280d <page_virt_find_addr+0x2d>
  102937:	b8 2c 0f 01 00       	mov    $0x10f2c,%eax
  10293c:	5b                   	pop    %rbx
  10293d:	41 5e                	pop    %r14
  10293f:	41 5f                	pop    %r15
  102941:	5d                   	pop    %rbp
  102942:	c3                   	ret
  102943:	66 66 66 66 2e 0f 1f 	data16 data16 data16 cs nopw 0x0(%rax,%rax,1)
  10294a:	84 00 00 00 00 00 

0000000000102950 <page_find_and_alloc>:
  102950:	55                   	push   %rbp
  102951:	48 89 e5             	mov    %rsp,%rbp
  102954:	41 57                	push   %r15
  102956:	41 56                	push   %r14
  102958:	41 54                	push   %r12
  10295a:	53                   	push   %rbx
  10295b:	41 be 2c 0f 01 00    	mov    $0x10f2c,%r14d
  102961:	48 81 ff 00 00 00 08 	cmp    $0x8000000,%rdi
  102968:	0f 84 c5 00 00 00    	je     102a33 <page_find_and_alloc+0xe3>
  10296e:	49 89 ff             	mov    %rdi,%r15
  102971:	48 8d 87 00 00 00 f8 	lea    -0x8000000(%rdi),%rax
  102978:	31 c9                	xor    %ecx,%ecx
  10297a:	31 db                	xor    %ebx,%ebx
  10297c:	0f 1f 40 00          	nopl   0x0(%rax)
  102980:	48 89 ca             	mov    %rcx,%rdx
  102983:	48 c1 ea 18          	shr    $0x18,%rdx
  102987:	89 ce                	mov    %ecx,%esi
  102989:	c1 ee 15             	shr    $0x15,%esi
  10298c:	0f b6 92 00 30 12 00 	movzbl 0x123000(%rdx),%edx
  102993:	83 e6 07             	and    $0x7,%esi
  102996:	0f a3 f2             	bt     %esi,%edx
  102999:	73 14                	jae    1029af <page_find_and_alloc+0x5f>
  10299b:	48 ff cb             	dec    %rbx
  10299e:	48 81 c1 00 00 20 00 	add    $0x200000,%rcx
  1029a5:	48 39 d8             	cmp    %rbx,%rax
  1029a8:	75 d6                	jne    102980 <page_find_and_alloc+0x30>
  1029aa:	e9 84 00 00 00       	jmp    102a33 <page_find_and_alloc+0xe3>
  1029af:	4c 89 ff             	mov    %r15,%rdi
  1029b2:	e8 29 fe ff ff       	call   1027e0 <page_virt_find_addr>
  1029b7:	49 89 c6             	mov    %rax,%r14
  1029ba:	4d 85 ff             	test   %r15,%r15
  1029bd:	74 74                	je     102a33 <page_find_and_alloc+0xe3>
  1029bf:	48 f7 db             	neg    %rbx
  1029c2:	45 31 e4             	xor    %r12d,%r12d
  1029c5:	66 66 2e 0f 1f 84 00 	data16 cs nopw 0x0(%rax,%rax,1)
  1029cc:	00 00 00 00 
  1029d0:	48 8d 43 ff          	lea    -0x1(%rbx),%rax
  1029d4:	4c 01 e3             	add    %r12,%rbx
  1029d7:	48 c1 e3 15          	shl    $0x15,%rbx
  1029db:	48 89 df             	mov    %rbx,%rdi
  1029de:	48 89 c3             	mov    %rax,%rbx
  1029e1:	66 66 66 66 66 66 2e 	data16 data16 data16 data16 data16 cs nopw 0x0(%rax,%rax,1)
  1029e8:	0f 1f 84 00 00 00 00 
  1029ef:	00 
  1029f0:	48 89 f8             	mov    %rdi,%rax
  1029f3:	48 c1 e8 18          	shr    $0x18,%rax
  1029f7:	89 f9                	mov    %edi,%ecx
  1029f9:	c1 e9 15             	shr    $0x15,%ecx
  1029fc:	0f b6 80 00 30 12 00 	movzbl 0x123000(%rax),%eax
  102a03:	83 e1 07             	and    $0x7,%ecx
  102a06:	48 ff c3             	inc    %rbx
  102a09:	48 81 c7 00 00 20 00 	add    $0x200000,%rdi
  102a10:	0f a3 c8             	bt     %ecx,%eax
  102a13:	72 db                	jb     1029f0 <page_find_and_alloc+0xa0>
  102a15:	4c 89 e6             	mov    %r12,%rsi
  102a18:	48 c1 e6 15          	shl    $0x15,%rsi
  102a1c:	48 81 c7 00 00 e0 ff 	add    $0xffffffffffe00000,%rdi
  102a23:	4c 01 f6             	add    %r14,%rsi
  102a26:	e8 25 f9 ff ff       	call   102350 <page_alloc>
  102a2b:	49 ff c4             	inc    %r12
  102a2e:	4d 39 fc             	cmp    %r15,%r12
  102a31:	75 9d                	jne    1029d0 <page_find_and_alloc+0x80>
  102a33:	4c 89 f0             	mov    %r14,%rax
  102a36:	5b                   	pop    %rbx
  102a37:	41 5c                	pop    %r12
  102a39:	41 5e                	pop    %r14
  102a3b:	41 5f                	pop    %r15
  102a3d:	5d                   	pop    %rbp
  102a3e:	c3                   	ret
  102a3f:	90                   	nop

0000000000102a40 <page_free_found>:
  102a40:	55                   	push   %rbp
  102a41:	48 89 e5             	mov    %rsp,%rbp
  102a44:	48 85 f6             	test   %rsi,%rsi
  102a47:	0f 84 cc 00 00 00    	je     102b19 <page_free_found+0xd9>
  102a4d:	0f 1f 00             	nopl   (%rax)
  102a50:	48 89 f8             	mov    %rdi,%rax
  102a53:	48 c1 e8 24          	shr    $0x24,%rax
  102a57:	25 f8 0f 00 00       	and    $0xff8,%eax
  102a5c:	8b 88 00 30 12 01    	mov    0x1123000(%rax),%ecx
  102a62:	0f b6 90 04 30 12 01 	movzbl 0x1123004(%rax),%edx
  102a69:	48 c1 e2 20          	shl    $0x20,%rdx
  102a6d:	48 09 ca             	or     %rcx,%rdx
  102a70:	48 c1 ea 0c          	shr    $0xc,%rdx
  102a74:	0f b6 80 05 30 12 01 	movzbl 0x1123005(%rax),%eax
  102a7b:	c1 e0 1c             	shl    $0x1c,%eax
  102a7e:	48 98                	cltq
  102a80:	48 09 d0             	or     %rdx,%rax
  102a83:	48 c1 e0 0c          	shl    $0xc,%rax
  102a87:	48 89 f9             	mov    %rdi,%rcx
  102a8a:	48 c1 e9 1b          	shr    $0x1b,%rcx
  102a8e:	81 e1 f8 0f 00 00    	and    $0xff8,%ecx
  102a94:	44 8b 04 08          	mov    (%rax,%rcx,1),%r8d
  102a98:	0f b6 54 08 04       	movzbl 0x4(%rax,%rcx,1),%edx
  102a9d:	48 c1 e2 20          	shl    $0x20,%rdx
  102aa1:	4c 09 c2             	or     %r8,%rdx
  102aa4:	48 c1 ea 0c          	shr    $0xc,%rdx
  102aa8:	0f b6 44 08 05       	movzbl 0x5(%rax,%rcx,1),%eax
  102aad:	c1 e0 1c             	shl    $0x1c,%eax
  102ab0:	4c 63 c0             	movslq %eax,%r8
  102ab3:	49 09 d0             	or     %rdx,%r8
  102ab6:	49 c1 e0 0c          	shl    $0xc,%r8
  102aba:	49 89 f9             	mov    %rdi,%r9
  102abd:	49 c1 e9 12          	shr    $0x12,%r9
  102ac1:	41 81 e1 f8 0f 00 00 	and    $0xff8,%r9d
  102ac8:	43 8b 0c 08          	mov    (%r8,%r9,1),%ecx
  102acc:	43 0f b6 44 08 04    	movzbl 0x4(%r8,%r9,1),%eax
  102ad2:	48 c1 e0 20          	shl    $0x20,%rax
  102ad6:	48 09 c8             	or     %rcx,%rax
  102ad9:	48 c1 e8 0c          	shr    $0xc,%rax
  102add:	43 0f b6 54 08 05    	movzbl 0x5(%r8,%r9,1),%edx
  102ae3:	c1 e2 1c             	shl    $0x1c,%edx
  102ae6:	48 63 d2             	movslq %edx,%rdx
  102ae9:	48 09 c2             	or     %rax,%rdx
  102aec:	48 c1 e9 15          	shr    $0x15,%rcx
  102af0:	b0 fe                	mov    $0xfe,%al
  102af2:	d2 c0                	rol    %cl,%al
  102af4:	48 c1 ea 0c          	shr    $0xc,%rdx
  102af8:	81 e2 ff ff ff 00    	and    $0xffffff,%edx
  102afe:	20 82 00 30 12 00    	and    %al,0x123000(%rdx)
  102b04:	43 80 24 08 fe       	andb   $0xfe,(%r8,%r9,1)
  102b09:	48 81 c7 00 00 20 00 	add    $0x200000,%rdi
  102b10:	48 ff ce             	dec    %rsi
  102b13:	0f 85 37 ff ff ff    	jne    102a50 <page_free_found+0x10>
  102b19:	b8 00 30 12 01       	mov    $0x1123000,%eax
  102b1e:	48 89 c2             	mov    %rax,%rdx
  102b21:	0f 22 da             	mov    %rdx,%cr3
  102b24:	5d                   	pop    %rbp
  102b25:	c3                   	ret
  102b26:	66 2e 0f 1f 84 00 00 	cs nopw 0x0(%rax,%rax,1)
  102b2d:	00 00 00 

0000000000102b30 <page_flush>:
  102b30:	55                   	push   %rbp
  102b31:	48 89 e5             	mov    %rsp,%rbp
  102b34:	b8 00 30 12 01       	mov    $0x1123000,%eax
  102b39:	48 89 c2             	mov    %rax,%rdx
  102b3c:	0f 22 da             	mov    %rdx,%cr3
  102b3f:	5d                   	pop    %rbp
  102b40:	c3                   	ret
  102b41:	66 2e 0f 1f 84 00 00 	cs nopw 0x0(%rax,%rax,1)
  102b48:	00 00 00 
  102b4b:	0f 1f 44 00 00       	nopl   0x0(%rax,%rax,1)

0000000000102b50 <pci_write_conw>:
  102b50:	55                   	push   %rbp
  102b51:	48 89 e5             	mov    %rsp,%rbp
  102b54:	c1 e7 10             	shl    $0x10,%edi
  102b57:	c1 e6 0b             	shl    $0xb,%esi
  102b5a:	09 fe                	or     %edi,%esi
  102b5c:	c1 e2 08             	shl    $0x8,%edx
  102b5f:	09 f2                	or     %esi,%edx
  102b61:	83 e1 fc             	and    $0xfffffffc,%ecx
  102b64:	8d 04 0a             	lea    (%rdx,%rcx,1),%eax
  102b67:	05 00 00 00 80       	add    $0x80000000,%eax
  102b6c:	66 ba f8 0c          	mov    $0xcf8,%dx
  102b70:	ef                   	out    %eax,(%dx)
  102b71:	44 89 c0             	mov    %r8d,%eax
  102b74:	66 ba fc 0c          	mov    $0xcfc,%dx
  102b78:	ef                   	out    %eax,(%dx)
  102b79:	5d                   	pop    %rbp
  102b7a:	c3                   	ret
  102b7b:	0f 1f 44 00 00       	nopl   0x0(%rax,%rax,1)

0000000000102b80 <pci_read_conw>:
  102b80:	55                   	push   %rbp
  102b81:	48 89 e5             	mov    %rsp,%rbp
  102b84:	c1 e7 10             	shl    $0x10,%edi
  102b87:	c1 e6 0b             	shl    $0xb,%esi
  102b8a:	09 fe                	or     %edi,%esi
  102b8c:	c1 e2 08             	shl    $0x8,%edx
  102b8f:	09 f2                	or     %esi,%edx
  102b91:	89 c8                	mov    %ecx,%eax
  102b93:	83 e0 fc             	and    $0xfffffffc,%eax
  102b96:	01 d0                	add    %edx,%eax
  102b98:	05 00 00 00 80       	add    $0x80000000,%eax
  102b9d:	66 ba f8 0c          	mov    $0xcf8,%dx
  102ba1:	ef                   	out    %eax,(%dx)
  102ba2:	66 ba fc 0c          	mov    $0xcfc,%dx
  102ba6:	ed                   	in     (%dx),%eax
  102ba7:	c1 e1 03             	shl    $0x3,%ecx
  102baa:	80 e1 10             	and    $0x10,%cl
  102bad:	d3 e8                	shr    %cl,%eax
  102baf:	5d                   	pop    %rbp
  102bb0:	c3                   	ret
  102bb1:	66 66 66 66 66 66 2e 	data16 data16 data16 data16 data16 cs nopw 0x0(%rax,%rax,1)
  102bb8:	0f 1f 84 00 00 00 00 
  102bbf:	00 

0000000000102bc0 <pci_get_sub>:
  102bc0:	55                   	push   %rbp
  102bc1:	48 89 e5             	mov    %rsp,%rbp
  102bc4:	c1 e7 10             	shl    $0x10,%edi
  102bc7:	c1 e6 0b             	shl    $0xb,%esi
  102bca:	09 fe                	or     %edi,%esi
  102bcc:	c1 e2 08             	shl    $0x8,%edx
  102bcf:	09 f2                	or     %esi,%edx
  102bd1:	8d 82 10 00 00 80    	lea    -0x7ffffff0(%rdx),%eax
  102bd7:	66 ba f8 0c          	mov    $0xcf8,%dx
  102bdb:	ef                   	out    %eax,(%dx)
  102bdc:	66 ba fc 0c          	mov    $0xcfc,%dx
  102be0:	ed                   	in     (%dx),%eax
  102be1:	5d                   	pop    %rbp
  102be2:	c3                   	ret
  102be3:	66 66 66 66 2e 0f 1f 	data16 data16 data16 cs nopw 0x0(%rax,%rax,1)
  102bea:	84 00 00 00 00 00 

0000000000102bf0 <pci_get_sec>:
  102bf0:	55                   	push   %rbp
  102bf1:	48 89 e5             	mov    %rsp,%rbp
  102bf4:	c1 e7 10             	shl    $0x10,%edi
  102bf7:	c1 e6 0b             	shl    $0xb,%esi
  102bfa:	09 fe                	or     %edi,%esi
  102bfc:	c1 e2 08             	shl    $0x8,%edx
  102bff:	09 f2                	or     %esi,%edx
  102c01:	8d 82 18 00 00 80    	lea    -0x7fffffe8(%rdx),%eax
  102c07:	66 ba f8 0c          	mov    $0xcf8,%dx
  102c0b:	ef                   	out    %eax,(%dx)
  102c0c:	66 ba fc 0c          	mov    $0xcfc,%dx
  102c10:	ed                   	in     (%dx),%eax
  102c11:	c1 e8 08             	shr    $0x8,%eax
  102c14:	5d                   	pop    %rbp
  102c15:	c3                   	ret
  102c16:	66 2e 0f 1f 84 00 00 	cs nopw 0x0(%rax,%rax,1)
  102c1d:	00 00 00 

0000000000102c20 <pci_get_base>:
  102c20:	55                   	push   %rbp
  102c21:	48 89 e5             	mov    %rsp,%rbp
  102c24:	c1 e7 10             	shl    $0x10,%edi
  102c27:	c1 e6 0b             	shl    $0xb,%esi
  102c2a:	09 fe                	or     %edi,%esi
  102c2c:	c1 e2 08             	shl    $0x8,%edx
  102c2f:	09 f2                	or     %esi,%edx
  102c31:	8d 82 10 00 00 80    	lea    -0x7ffffff0(%rdx),%eax
  102c37:	66 ba f8 0c          	mov    $0xcf8,%dx
  102c3b:	ef                   	out    %eax,(%dx)
  102c3c:	66 ba fc 0c          	mov    $0xcfc,%dx
  102c40:	ed                   	in     (%dx),%eax
  102c41:	c1 e8 08             	shr    $0x8,%eax
  102c44:	5d                   	pop    %rbp
  102c45:	c3                   	ret
  102c46:	66 2e 0f 1f 84 00 00 	cs nopw 0x0(%rax,%rax,1)
  102c4d:	00 00 00 

0000000000102c50 <pci_get_type>:
  102c50:	55                   	push   %rbp
  102c51:	48 89 e5             	mov    %rsp,%rbp
  102c54:	c1 e7 10             	shl    $0x10,%edi
  102c57:	c1 e6 0b             	shl    $0xb,%esi
  102c5a:	09 fe                	or     %edi,%esi
  102c5c:	c1 e2 08             	shl    $0x8,%edx
  102c5f:	09 f2                	or     %esi,%edx
  102c61:	8d 82 0c 00 00 80    	lea    -0x7ffffff4(%rdx),%eax
  102c67:	66 ba f8 0c          	mov    $0xcf8,%dx
  102c6b:	ef                   	out    %eax,(%dx)
  102c6c:	66 ba fc 0c          	mov    $0xcfc,%dx
  102c70:	ed                   	in     (%dx),%eax
  102c71:	c1 e8 10             	shr    $0x10,%eax
  102c74:	5d                   	pop    %rbp
  102c75:	c3                   	ret
  102c76:	66 2e 0f 1f 84 00 00 	cs nopw 0x0(%rax,%rax,1)
  102c7d:	00 00 00 

0000000000102c80 <pci_get_vendor>:
  102c80:	55                   	push   %rbp
  102c81:	48 89 e5             	mov    %rsp,%rbp
  102c84:	89 d1                	mov    %edx,%ecx
  102c86:	c1 e7 10             	shl    $0x10,%edi
  102c89:	c1 e6 0b             	shl    $0xb,%esi
  102c8c:	09 fe                	or     %edi,%esi
  102c8e:	c1 e1 08             	shl    $0x8,%ecx
  102c91:	09 f1                	or     %esi,%ecx
  102c93:	81 c9 00 00 00 80    	or     $0x80000000,%ecx
  102c99:	89 c8                	mov    %ecx,%eax
  102c9b:	66 ba f8 0c          	mov    $0xcf8,%dx
  102c9f:	ef                   	out    %eax,(%dx)
  102ca0:	66 ba fc 0c          	mov    $0xcfc,%dx
  102ca4:	ed                   	in     (%dx),%eax
  102ca5:	89 c6                	mov    %eax,%esi
  102ca7:	66 83 fe ff          	cmp    $0xffff,%si
  102cab:	74 0c                	je     102cb9 <pci_get_vendor+0x39>
  102cad:	89 c8                	mov    %ecx,%eax
  102caf:	66 ba f8 0c          	mov    $0xcf8,%dx
  102cb3:	ef                   	out    %eax,(%dx)
  102cb4:	66 ba fc 0c          	mov    $0xcfc,%dx
  102cb8:	ed                   	in     (%dx),%eax
  102cb9:	89 f0                	mov    %esi,%eax
  102cbb:	5d                   	pop    %rbp
  102cbc:	c3                   	ret
  102cbd:	0f 1f 00             	nopl   (%rax)

0000000000102cc0 <pci_enum_func>:
  102cc0:	55                   	push   %rbp
  102cc1:	48 89 e5             	mov    %rsp,%rbp
  102cc4:	41 57                	push   %r15
  102cc6:	41 56                	push   %r14
  102cc8:	53                   	push   %rbx
  102cc9:	50                   	push   %rax
  102cca:	89 d3                	mov    %edx,%ebx
  102ccc:	c1 e7 10             	shl    $0x10,%edi
  102ccf:	c1 e6 0b             	shl    $0xb,%esi
  102cd2:	09 fe                	or     %edi,%esi
  102cd4:	c1 e3 08             	shl    $0x8,%ebx
  102cd7:	09 f3                	or     %esi,%ebx
  102cd9:	8d 8b 10 00 00 80    	lea    -0x7ffffff0(%rbx),%ecx
  102cdf:	89 c8                	mov    %ecx,%eax
  102ce1:	66 ba f8 0c          	mov    $0xcf8,%dx
  102ce5:	ef                   	out    %eax,(%dx)
  102ce6:	66 ba fc 0c          	mov    $0xcfc,%dx
  102cea:	ed                   	in     (%dx),%eax
  102ceb:	41 89 c7             	mov    %eax,%r15d
  102cee:	89 c8                	mov    %ecx,%eax
  102cf0:	66 ba f8 0c          	mov    $0xcf8,%dx
  102cf4:	ef                   	out    %eax,(%dx)
  102cf5:	66 ba fc 0c          	mov    $0xcfc,%dx
  102cf9:	ed                   	in     (%dx),%eax
  102cfa:	41 89 c6             	mov    %eax,%r14d
  102cfd:	8d 8b 00 00 00 80    	lea    -0x80000000(%rbx),%ecx
  102d03:	89 c8                	mov    %ecx,%eax
  102d05:	66 ba f8 0c          	mov    $0xcf8,%dx
  102d09:	ef                   	out    %eax,(%dx)
  102d0a:	66 ba fc 0c          	mov    $0xcfc,%dx
  102d0e:	ed                   	in     (%dx),%eax
  102d0f:	0f b7 f0             	movzwl %ax,%esi
  102d12:	81 fe ff ff 00 00    	cmp    $0xffff,%esi
  102d18:	74 0c                	je     102d26 <pci_enum_func+0x66>
  102d1a:	89 c8                	mov    %ecx,%eax
  102d1c:	66 ba f8 0c          	mov    $0xcf8,%dx
  102d20:	ef                   	out    %eax,(%dx)
  102d21:	66 ba fc 0c          	mov    $0xcfc,%dx
  102d25:	ed                   	in     (%dx),%eax
  102d26:	89 f7                	mov    %esi,%edi
  102d28:	e8 63 e3 ff ff       	call   101090 <dbgnumout_hex>
  102d2d:	41 81 e7 00 ff 00 00 	and    $0xff00,%r15d
  102d34:	41 81 ff 00 06 00 00 	cmp    $0x600,%r15d
  102d3b:	0f 85 a9 01 00 00    	jne    102eea <pci_enum_func+0x22a>
  102d41:	41 0f b6 c6          	movzbl %r14b,%eax
  102d45:	83 f8 04             	cmp    $0x4,%eax
  102d48:	0f 85 9c 01 00 00    	jne    102eea <pci_enum_func+0x22a>
  102d4e:	81 cb 18 00 00 80    	or     $0x80000018,%ebx
  102d54:	89 d8                	mov    %ebx,%eax
  102d56:	66 ba f8 0c          	mov    $0xcf8,%dx
  102d5a:	ef                   	out    %eax,(%dx)
  102d5b:	66 ba fc 0c          	mov    $0xcfc,%dx
  102d5f:	ed                   	in     (%dx),%eax
  102d60:	0f b6 dc             	movzbl %ah,%ebx
  102d63:	89 df                	mov    %ebx,%edi
  102d65:	31 f6                	xor    %esi,%esi
  102d67:	e8 24 03 00 00       	call   103090 <pci_enum_dev>
  102d6c:	89 df                	mov    %ebx,%edi
  102d6e:	be 01 00 00 00       	mov    $0x1,%esi
  102d73:	e8 18 03 00 00       	call   103090 <pci_enum_dev>
  102d78:	89 df                	mov    %ebx,%edi
  102d7a:	be 02 00 00 00       	mov    $0x2,%esi
  102d7f:	e8 0c 03 00 00       	call   103090 <pci_enum_dev>
  102d84:	89 df                	mov    %ebx,%edi
  102d86:	be 03 00 00 00       	mov    $0x3,%esi
  102d8b:	e8 00 03 00 00       	call   103090 <pci_enum_dev>
  102d90:	89 df                	mov    %ebx,%edi
  102d92:	be 04 00 00 00       	mov    $0x4,%esi
  102d97:	e8 f4 02 00 00       	call   103090 <pci_enum_dev>
  102d9c:	89 df                	mov    %ebx,%edi
  102d9e:	be 05 00 00 00       	mov    $0x5,%esi
  102da3:	e8 e8 02 00 00       	call   103090 <pci_enum_dev>
  102da8:	89 df                	mov    %ebx,%edi
  102daa:	be 06 00 00 00       	mov    $0x6,%esi
  102daf:	e8 dc 02 00 00       	call   103090 <pci_enum_dev>
  102db4:	89 df                	mov    %ebx,%edi
  102db6:	be 07 00 00 00       	mov    $0x7,%esi
  102dbb:	e8 d0 02 00 00       	call   103090 <pci_enum_dev>
  102dc0:	89 df                	mov    %ebx,%edi
  102dc2:	be 08 00 00 00       	mov    $0x8,%esi
  102dc7:	e8 c4 02 00 00       	call   103090 <pci_enum_dev>
  102dcc:	89 df                	mov    %ebx,%edi
  102dce:	be 09 00 00 00       	mov    $0x9,%esi
  102dd3:	e8 b8 02 00 00       	call   103090 <pci_enum_dev>
  102dd8:	89 df                	mov    %ebx,%edi
  102dda:	be 0a 00 00 00       	mov    $0xa,%esi
  102ddf:	e8 ac 02 00 00       	call   103090 <pci_enum_dev>
  102de4:	89 df                	mov    %ebx,%edi
  102de6:	be 0b 00 00 00       	mov    $0xb,%esi
  102deb:	e8 a0 02 00 00       	call   103090 <pci_enum_dev>
  102df0:	89 df                	mov    %ebx,%edi
  102df2:	be 0c 00 00 00       	mov    $0xc,%esi
  102df7:	e8 94 02 00 00       	call   103090 <pci_enum_dev>
  102dfc:	89 df                	mov    %ebx,%edi
  102dfe:	be 0d 00 00 00       	mov    $0xd,%esi
  102e03:	e8 88 02 00 00       	call   103090 <pci_enum_dev>
  102e08:	89 df                	mov    %ebx,%edi
  102e0a:	be 0e 00 00 00       	mov    $0xe,%esi
  102e0f:	e8 7c 02 00 00       	call   103090 <pci_enum_dev>
  102e14:	89 df                	mov    %ebx,%edi
  102e16:	be 0f 00 00 00       	mov    $0xf,%esi
  102e1b:	e8 70 02 00 00       	call   103090 <pci_enum_dev>
  102e20:	89 df                	mov    %ebx,%edi
  102e22:	be 10 00 00 00       	mov    $0x10,%esi
  102e27:	e8 64 02 00 00       	call   103090 <pci_enum_dev>
  102e2c:	89 df                	mov    %ebx,%edi
  102e2e:	be 11 00 00 00       	mov    $0x11,%esi
  102e33:	e8 58 02 00 00       	call   103090 <pci_enum_dev>
  102e38:	89 df                	mov    %ebx,%edi
  102e3a:	be 12 00 00 00       	mov    $0x12,%esi
  102e3f:	e8 4c 02 00 00       	call   103090 <pci_enum_dev>
  102e44:	89 df                	mov    %ebx,%edi
  102e46:	be 13 00 00 00       	mov    $0x13,%esi
  102e4b:	e8 40 02 00 00       	call   103090 <pci_enum_dev>
  102e50:	89 df                	mov    %ebx,%edi
  102e52:	be 14 00 00 00       	mov    $0x14,%esi
  102e57:	e8 34 02 00 00       	call   103090 <pci_enum_dev>
  102e5c:	89 df                	mov    %ebx,%edi
  102e5e:	be 15 00 00 00       	mov    $0x15,%esi
  102e63:	e8 28 02 00 00       	call   103090 <pci_enum_dev>
  102e68:	89 df                	mov    %ebx,%edi
  102e6a:	be 16 00 00 00       	mov    $0x16,%esi
  102e6f:	e8 1c 02 00 00       	call   103090 <pci_enum_dev>
  102e74:	89 df                	mov    %ebx,%edi
  102e76:	be 17 00 00 00       	mov    $0x17,%esi
  102e7b:	e8 10 02 00 00       	call   103090 <pci_enum_dev>
  102e80:	89 df                	mov    %ebx,%edi
  102e82:	be 18 00 00 00       	mov    $0x18,%esi
  102e87:	e8 04 02 00 00       	call   103090 <pci_enum_dev>
  102e8c:	89 df                	mov    %ebx,%edi
  102e8e:	be 19 00 00 00       	mov    $0x19,%esi
  102e93:	e8 f8 01 00 00       	call   103090 <pci_enum_dev>
  102e98:	89 df                	mov    %ebx,%edi
  102e9a:	be 1a 00 00 00       	mov    $0x1a,%esi
  102e9f:	e8 ec 01 00 00       	call   103090 <pci_enum_dev>
  102ea4:	89 df                	mov    %ebx,%edi
  102ea6:	be 1b 00 00 00       	mov    $0x1b,%esi
  102eab:	e8 e0 01 00 00       	call   103090 <pci_enum_dev>
  102eb0:	89 df                	mov    %ebx,%edi
  102eb2:	be 1c 00 00 00       	mov    $0x1c,%esi
  102eb7:	e8 d4 01 00 00       	call   103090 <pci_enum_dev>
  102ebc:	89 df                	mov    %ebx,%edi
  102ebe:	be 1d 00 00 00       	mov    $0x1d,%esi
  102ec3:	e8 c8 01 00 00       	call   103090 <pci_enum_dev>
  102ec8:	89 df                	mov    %ebx,%edi
  102eca:	be 1e 00 00 00       	mov    $0x1e,%esi
  102ecf:	e8 bc 01 00 00       	call   103090 <pci_enum_dev>
  102ed4:	89 df                	mov    %ebx,%edi
  102ed6:	be 1f 00 00 00       	mov    $0x1f,%esi
  102edb:	48 83 c4 08          	add    $0x8,%rsp
  102edf:	5b                   	pop    %rbx
  102ee0:	41 5e                	pop    %r14
  102ee2:	41 5f                	pop    %r15
  102ee4:	5d                   	pop    %rbp
  102ee5:	e9 a6 01 00 00       	jmp    103090 <pci_enum_dev>
  102eea:	48 83 c4 08          	add    $0x8,%rsp
  102eee:	5b                   	pop    %rbx
  102eef:	41 5e                	pop    %r14
  102ef1:	41 5f                	pop    %r15
  102ef3:	5d                   	pop    %rbp
  102ef4:	c3                   	ret
  102ef5:	66 66 2e 0f 1f 84 00 	data16 cs nopw 0x0(%rax,%rax,1)
  102efc:	00 00 00 00 

0000000000102f00 <pci_enum_bus>:
  102f00:	55                   	push   %rbp
  102f01:	48 89 e5             	mov    %rsp,%rbp
  102f04:	53                   	push   %rbx
  102f05:	50                   	push   %rax
  102f06:	89 fb                	mov    %edi,%ebx
  102f08:	31 f6                	xor    %esi,%esi
  102f0a:	e8 81 01 00 00       	call   103090 <pci_enum_dev>
  102f0f:	89 df                	mov    %ebx,%edi
  102f11:	be 01 00 00 00       	mov    $0x1,%esi
  102f16:	e8 75 01 00 00       	call   103090 <pci_enum_dev>
  102f1b:	89 df                	mov    %ebx,%edi
  102f1d:	be 02 00 00 00       	mov    $0x2,%esi
  102f22:	e8 69 01 00 00       	call   103090 <pci_enum_dev>
  102f27:	89 df                	mov    %ebx,%edi
  102f29:	be 03 00 00 00       	mov    $0x3,%esi
  102f2e:	e8 5d 01 00 00       	call   103090 <pci_enum_dev>
  102f33:	89 df                	mov    %ebx,%edi
  102f35:	be 04 00 00 00       	mov    $0x4,%esi
  102f3a:	e8 51 01 00 00       	call   103090 <pci_enum_dev>
  102f3f:	89 df                	mov    %ebx,%edi
  102f41:	be 05 00 00 00       	mov    $0x5,%esi
  102f46:	e8 45 01 00 00       	call   103090 <pci_enum_dev>
  102f4b:	89 df                	mov    %ebx,%edi
  102f4d:	be 06 00 00 00       	mov    $0x6,%esi
  102f52:	e8 39 01 00 00       	call   103090 <pci_enum_dev>
  102f57:	89 df                	mov    %ebx,%edi
  102f59:	be 07 00 00 00       	mov    $0x7,%esi
  102f5e:	e8 2d 01 00 00       	call   103090 <pci_enum_dev>
  102f63:	89 df                	mov    %ebx,%edi
  102f65:	be 08 00 00 00       	mov    $0x8,%esi
  102f6a:	e8 21 01 00 00       	call   103090 <pci_enum_dev>
  102f6f:	89 df                	mov    %ebx,%edi
  102f71:	be 09 00 00 00       	mov    $0x9,%esi
  102f76:	e8 15 01 00 00       	call   103090 <pci_enum_dev>
  102f7b:	89 df                	mov    %ebx,%edi
  102f7d:	be 0a 00 00 00       	mov    $0xa,%esi
  102f82:	e8 09 01 00 00       	call   103090 <pci_enum_dev>
  102f87:	89 df                	mov    %ebx,%edi
  102f89:	be 0b 00 00 00       	mov    $0xb,%esi
  102f8e:	e8 fd 00 00 00       	call   103090 <pci_enum_dev>
  102f93:	89 df                	mov    %ebx,%edi
  102f95:	be 0c 00 00 00       	mov    $0xc,%esi
  102f9a:	e8 f1 00 00 00       	call   103090 <pci_enum_dev>
  102f9f:	89 df                	mov    %ebx,%edi
  102fa1:	be 0d 00 00 00       	mov    $0xd,%esi
  102fa6:	e8 e5 00 00 00       	call   103090 <pci_enum_dev>
  102fab:	89 df                	mov    %ebx,%edi
  102fad:	be 0e 00 00 00       	mov    $0xe,%esi
  102fb2:	e8 d9 00 00 00       	call   103090 <pci_enum_dev>
  102fb7:	89 df                	mov    %ebx,%edi
  102fb9:	be 0f 00 00 00       	mov    $0xf,%esi
  102fbe:	e8 cd 00 00 00       	call   103090 <pci_enum_dev>
  102fc3:	89 df                	mov    %ebx,%edi
  102fc5:	be 10 00 00 00       	mov    $0x10,%esi
  102fca:	e8 c1 00 00 00       	call   103090 <pci_enum_dev>
  102fcf:	89 df                	mov    %ebx,%edi
  102fd1:	be 11 00 00 00       	mov    $0x11,%esi
  102fd6:	e8 b5 00 00 00       	call   103090 <pci_enum_dev>
  102fdb:	89 df                	mov    %ebx,%edi
  102fdd:	be 12 00 00 00       	mov    $0x12,%esi
  102fe2:	e8 a9 00 00 00       	call   103090 <pci_enum_dev>
  102fe7:	89 df                	mov    %ebx,%edi
  102fe9:	be 13 00 00 00       	mov    $0x13,%esi
  102fee:	e8 9d 00 00 00       	call   103090 <pci_enum_dev>
  102ff3:	89 df                	mov    %ebx,%edi
  102ff5:	be 14 00 00 00       	mov    $0x14,%esi
  102ffa:	e8 91 00 00 00       	call   103090 <pci_enum_dev>
  102fff:	89 df                	mov    %ebx,%edi
  103001:	be 15 00 00 00       	mov    $0x15,%esi
  103006:	e8 85 00 00 00       	call   103090 <pci_enum_dev>
  10300b:	89 df                	mov    %ebx,%edi
  10300d:	be 16 00 00 00       	mov    $0x16,%esi
  103012:	e8 79 00 00 00       	call   103090 <pci_enum_dev>
  103017:	89 df                	mov    %ebx,%edi
  103019:	be 17 00 00 00       	mov    $0x17,%esi
  10301e:	e8 6d 00 00 00       	call   103090 <pci_enum_dev>
  103023:	89 df                	mov    %ebx,%edi
  103025:	be 18 00 00 00       	mov    $0x18,%esi
  10302a:	e8 61 00 00 00       	call   103090 <pci_enum_dev>
  10302f:	89 df                	mov    %ebx,%edi
  103031:	be 19 00 00 00       	mov    $0x19,%esi
  103036:	e8 55 00 00 00       	call   103090 <pci_enum_dev>
  10303b:	89 df                	mov    %ebx,%edi
  10303d:	be 1a 00 00 00       	mov    $0x1a,%esi
  103042:	e8 49 00 00 00       	call   103090 <pci_enum_dev>
  103047:	89 df                	mov    %ebx,%edi
  103049:	be 1b 00 00 00       	mov    $0x1b,%esi
  10304e:	e8 3d 00 00 00       	call   103090 <pci_enum_dev>
  103053:	89 df                	mov    %ebx,%edi
  103055:	be 1c 00 00 00       	mov    $0x1c,%esi
  10305a:	e8 31 00 00 00       	call   103090 <pci_enum_dev>
  10305f:	89 df                	mov    %ebx,%edi
  103061:	be 1d 00 00 00       	mov    $0x1d,%esi
  103066:	e8 25 00 00 00       	call   103090 <pci_enum_dev>
  10306b:	89 df                	mov    %ebx,%edi
  10306d:	be 1e 00 00 00       	mov    $0x1e,%esi
  103072:	e8 19 00 00 00       	call   103090 <pci_enum_dev>
  103077:	89 df                	mov    %ebx,%edi
  103079:	be 1f 00 00 00       	mov    $0x1f,%esi
  10307e:	48 83 c4 08          	add    $0x8,%rsp
  103082:	5b                   	pop    %rbx
  103083:	5d                   	pop    %rbp
  103084:	e9 07 00 00 00       	jmp    103090 <pci_enum_dev>
  103089:	0f 1f 80 00 00 00 00 	nopl   0x0(%rax)

0000000000103090 <pci_enum_dev>:
  103090:	55                   	push   %rbp
  103091:	48 89 e5             	mov    %rsp,%rbp
  103094:	41 57                	push   %r15
  103096:	41 56                	push   %r14
  103098:	41 55                	push   %r13
  10309a:	41 54                	push   %r12
  10309c:	53                   	push   %rbx
  10309d:	50                   	push   %rax
  10309e:	89 f8                	mov    %edi,%eax
  1030a0:	c1 e0 10             	shl    $0x10,%eax
  1030a3:	41 89 f4             	mov    %esi,%r12d
  1030a6:	41 c1 e4 0b          	shl    $0xb,%r12d
  1030aa:	41 09 c4             	or     %eax,%r12d
  1030ad:	41 8d 8c 24 00 00 00 	lea    -0x80000000(%r12),%ecx
  1030b4:	80 
  1030b5:	89 c8                	mov    %ecx,%eax
  1030b7:	66 ba f8 0c          	mov    $0xcf8,%dx
  1030bb:	ef                   	out    %eax,(%dx)
  1030bc:	66 ba fc 0c          	mov    $0xcfc,%dx
  1030c0:	ed                   	in     (%dx),%eax
  1030c1:	66 83 f8 ff          	cmp    $0xffff,%ax
  1030c5:	74 3a                	je     103101 <pci_enum_dev+0x71>
  1030c7:	89 c8                	mov    %ecx,%eax
  1030c9:	66 ba f8 0c          	mov    $0xcf8,%dx
  1030cd:	ef                   	out    %eax,(%dx)
  1030ce:	66 ba fc 0c          	mov    $0xcfc,%dx
  1030d2:	ed                   	in     (%dx),%eax
  1030d3:	44 0f b6 f7          	movzbl %dil,%r14d
  1030d7:	44 0f b6 fe          	movzbl %sil,%r15d
  1030db:	44 89 f7             	mov    %r14d,%edi
  1030de:	44 89 fe             	mov    %r15d,%esi
  1030e1:	31 d2                	xor    %edx,%edx
  1030e3:	e8 d8 fb ff ff       	call   102cc0 <pci_enum_func>
  1030e8:	44 89 e0             	mov    %r12d,%eax
  1030eb:	0d 0c 00 00 80       	or     $0x8000000c,%eax
  1030f0:	66 ba f8 0c          	mov    $0xcf8,%dx
  1030f4:	ef                   	out    %eax,(%dx)
  1030f5:	66 ba fc 0c          	mov    $0xcfc,%dx
  1030f9:	ed                   	in     (%dx),%eax
  1030fa:	a9 00 00 80 00       	test   $0x800000,%eax
  1030ff:	75 0f                	jne    103110 <pci_enum_dev+0x80>
  103101:	48 83 c4 08          	add    $0x8,%rsp
  103105:	5b                   	pop    %rbx
  103106:	41 5c                	pop    %r12
  103108:	41 5d                	pop    %r13
  10310a:	41 5e                	pop    %r14
  10310c:	41 5f                	pop    %r15
  10310e:	5d                   	pop    %rbp
  10310f:	c3                   	ret
  103110:	41 b5 01             	mov    $0x1,%r13b
  103113:	bb 00 01 00 00       	mov    $0x100,%ebx
  103118:	eb 17                	jmp    103131 <pci_enum_dev+0xa1>
  10311a:	66 0f 1f 44 00 00    	nopw   0x0(%rax,%rax,1)
  103120:	41 fe c5             	inc    %r13b
  103123:	81 c3 00 01 00 00    	add    $0x100,%ebx
  103129:	81 fb 00 08 00 00    	cmp    $0x800,%ebx
  10312f:	74 d0                	je     103101 <pci_enum_dev+0x71>
  103131:	44 89 e1             	mov    %r12d,%ecx
  103134:	09 d9                	or     %ebx,%ecx
  103136:	81 c9 00 00 00 80    	or     $0x80000000,%ecx
  10313c:	89 c8                	mov    %ecx,%eax
  10313e:	66 ba f8 0c          	mov    $0xcf8,%dx
  103142:	ef                   	out    %eax,(%dx)
  103143:	66 ba fc 0c          	mov    $0xcfc,%dx
  103147:	ed                   	in     (%dx),%eax
  103148:	66 83 f8 ff          	cmp    $0xffff,%ax
  10314c:	74 d2                	je     103120 <pci_enum_dev+0x90>
  10314e:	89 c8                	mov    %ecx,%eax
  103150:	66 ba f8 0c          	mov    $0xcf8,%dx
  103154:	ef                   	out    %eax,(%dx)
  103155:	66 ba fc 0c          	mov    $0xcfc,%dx
  103159:	ed                   	in     (%dx),%eax
  10315a:	41 0f b6 d5          	movzbl %r13b,%edx
  10315e:	44 89 f7             	mov    %r14d,%edi
  103161:	44 89 fe             	mov    %r15d,%esi
  103164:	e8 57 fb ff ff       	call   102cc0 <pci_enum_func>
  103169:	eb b5                	jmp    103120 <pci_enum_dev+0x90>
  10316b:	0f 1f 44 00 00       	nopl   0x0(%rax,%rax,1)

0000000000103170 <pci_enum>:
  103170:	55                   	push   %rbp
  103171:	48 89 e5             	mov    %rsp,%rbp
  103174:	b8 0c 00 00 80       	mov    $0x8000000c,%eax
  103179:	66 ba f8 0c          	mov    $0xcf8,%dx
  10317d:	ef                   	out    %eax,(%dx)
  10317e:	66 ba fc 0c          	mov    $0xcfc,%dx
  103182:	ed                   	in     (%dx),%eax
  103183:	a9 00 00 80 00       	test   $0x800000,%eax
  103188:	75 08                	jne    103192 <pci_enum+0x22>
  10318a:	31 ff                	xor    %edi,%edi
  10318c:	5d                   	pop    %rbp
  10318d:	e9 6e fd ff ff       	jmp    102f00 <pci_enum_bus>
  103192:	b9 00 00 00 80       	mov    $0x80000000,%ecx
  103197:	b8 00 00 00 80       	mov    $0x80000000,%eax
  10319c:	66 ba f8 0c          	mov    $0xcf8,%dx
  1031a0:	ef                   	out    %eax,(%dx)
  1031a1:	66 ba fc 0c          	mov    $0xcfc,%dx
  1031a5:	ed                   	in     (%dx),%eax
  1031a6:	66 83 f8 ff          	cmp    $0xffff,%ax
  1031aa:	0f 85 10 01 00 00    	jne    1032c0 <pci_enum+0x150>
  1031b0:	31 ff                	xor    %edi,%edi
  1031b2:	e8 49 fd ff ff       	call   102f00 <pci_enum_bus>
  1031b7:	b9 00 01 00 80       	mov    $0x80000100,%ecx
  1031bc:	b8 00 01 00 80       	mov    $0x80000100,%eax
  1031c1:	66 ba f8 0c          	mov    $0xcf8,%dx
  1031c5:	ef                   	out    %eax,(%dx)
  1031c6:	66 ba fc 0c          	mov    $0xcfc,%dx
  1031ca:	ed                   	in     (%dx),%eax
  1031cb:	66 83 f8 ff          	cmp    $0xffff,%ax
  1031cf:	0f 85 eb 00 00 00    	jne    1032c0 <pci_enum+0x150>
  1031d5:	bf 01 00 00 00       	mov    $0x1,%edi
  1031da:	e8 21 fd ff ff       	call   102f00 <pci_enum_bus>
  1031df:	b9 00 02 00 80       	mov    $0x80000200,%ecx
  1031e4:	b8 00 02 00 80       	mov    $0x80000200,%eax
  1031e9:	66 ba f8 0c          	mov    $0xcf8,%dx
  1031ed:	ef                   	out    %eax,(%dx)
  1031ee:	66 ba fc 0c          	mov    $0xcfc,%dx
  1031f2:	ed                   	in     (%dx),%eax
  1031f3:	66 83 f8 ff          	cmp    $0xffff,%ax
  1031f7:	0f 85 c3 00 00 00    	jne    1032c0 <pci_enum+0x150>
  1031fd:	bf 02 00 00 00       	mov    $0x2,%edi
  103202:	e8 f9 fc ff ff       	call   102f00 <pci_enum_bus>
  103207:	b9 00 03 00 80       	mov    $0x80000300,%ecx
  10320c:	b8 00 03 00 80       	mov    $0x80000300,%eax
  103211:	66 ba f8 0c          	mov    $0xcf8,%dx
  103215:	ef                   	out    %eax,(%dx)
  103216:	66 ba fc 0c          	mov    $0xcfc,%dx
  10321a:	ed                   	in     (%dx),%eax
  10321b:	66 83 f8 ff          	cmp    $0xffff,%ax
  10321f:	0f 85 9b 00 00 00    	jne    1032c0 <pci_enum+0x150>
  103225:	bf 03 00 00 00       	mov    $0x3,%edi
  10322a:	e8 d1 fc ff ff       	call   102f00 <pci_enum_bus>
  10322f:	b9 00 04 00 80       	mov    $0x80000400,%ecx
  103234:	b8 00 04 00 80       	mov    $0x80000400,%eax
  103239:	66 ba f8 0c          	mov    $0xcf8,%dx
  10323d:	ef                   	out    %eax,(%dx)
  10323e:	66 ba fc 0c          	mov    $0xcfc,%dx
  103242:	ed                   	in     (%dx),%eax
  103243:	66 83 f8 ff          	cmp    $0xffff,%ax
  103247:	75 77                	jne    1032c0 <pci_enum+0x150>
  103249:	bf 04 00 00 00       	mov    $0x4,%edi
  10324e:	e8 ad fc ff ff       	call   102f00 <pci_enum_bus>
  103253:	b9 00 05 00 80       	mov    $0x80000500,%ecx
  103258:	b8 00 05 00 80       	mov    $0x80000500,%eax
  10325d:	66 ba f8 0c          	mov    $0xcf8,%dx
  103261:	ef                   	out    %eax,(%dx)
  103262:	66 ba fc 0c          	mov    $0xcfc,%dx
  103266:	ed                   	in     (%dx),%eax
  103267:	66 83 f8 ff          	cmp    $0xffff,%ax
  10326b:	75 53                	jne    1032c0 <pci_enum+0x150>
  10326d:	bf 05 00 00 00       	mov    $0x5,%edi
  103272:	e8 89 fc ff ff       	call   102f00 <pci_enum_bus>
  103277:	b9 00 06 00 80       	mov    $0x80000600,%ecx
  10327c:	b8 00 06 00 80       	mov    $0x80000600,%eax
  103281:	66 ba f8 0c          	mov    $0xcf8,%dx
  103285:	ef                   	out    %eax,(%dx)
  103286:	66 ba fc 0c          	mov    $0xcfc,%dx
  10328a:	ed                   	in     (%dx),%eax
  10328b:	66 83 f8 ff          	cmp    $0xffff,%ax
  10328f:	75 2f                	jne    1032c0 <pci_enum+0x150>
  103291:	bf 06 00 00 00       	mov    $0x6,%edi
  103296:	e8 65 fc ff ff       	call   102f00 <pci_enum_bus>
  10329b:	b9 00 07 00 80       	mov    $0x80000700,%ecx
  1032a0:	b8 00 07 00 80       	mov    $0x80000700,%eax
  1032a5:	66 ba f8 0c          	mov    $0xcf8,%dx
  1032a9:	ef                   	out    %eax,(%dx)
  1032aa:	66 ba fc 0c          	mov    $0xcfc,%dx
  1032ae:	ed                   	in     (%dx),%eax
  1032af:	66 83 f8 ff          	cmp    $0xffff,%ax
  1032b3:	75 0b                	jne    1032c0 <pci_enum+0x150>
  1032b5:	bf 07 00 00 00       	mov    $0x7,%edi
  1032ba:	5d                   	pop    %rbp
  1032bb:	e9 40 fc ff ff       	jmp    102f00 <pci_enum_bus>
  1032c0:	89 c8                	mov    %ecx,%eax
  1032c2:	66 ba f8 0c          	mov    $0xcf8,%dx
  1032c6:	ef                   	out    %eax,(%dx)
  1032c7:	66 ba fc 0c          	mov    $0xcfc,%dx
  1032cb:	ed                   	in     (%dx),%eax
  1032cc:	5d                   	pop    %rbp
  1032cd:	c3                   	ret
  1032ce:	66 2e 0f 1f 84 00 00 	cs nopw 0x0(%rax,%rax,1)
  1032d5:	00 00 00 
  1032d8:	66 2e 0f 1f 84 00 00 	cs nopw 0x0(%rax,%rax,1)
  1032df:	00 00 00 
  1032e2:	66 2e 0f 1f 84 00 00 	cs nopw 0x0(%rax,%rax,1)
  1032e9:	00 00 00 
  1032ec:	66 2e 0f 1f 84 00 00 	cs nopw 0x0(%rax,%rax,1)
  1032f3:	00 00 00 
  1032f6:	66 2e 0f 1f 84 00 00 	cs nopw 0x0(%rax,%rax,1)
  1032fd:	00 00 00 
  103300:	66 2e 0f 1f 84 00 00 	cs nopw 0x0(%rax,%rax,1)
  103307:	00 00 00 
  10330a:	66 2e 0f 1f 84 00 00 	cs nopw 0x0(%rax,%rax,1)
  103311:	00 00 00 
  103314:	66 2e 0f 1f 84 00 00 	cs nopw 0x0(%rax,%rax,1)
  10331b:	00 00 00 
  10331e:	66 2e 0f 1f 84 00 00 	cs nopw 0x0(%rax,%rax,1)
  103325:	00 00 00 
  103328:	66 2e 0f 1f 84 00 00 	cs nopw 0x0(%rax,%rax,1)
  10332f:	00 00 00 
  103332:	66 2e 0f 1f 84 00 00 	cs nopw 0x0(%rax,%rax,1)
  103339:	00 00 00 
  10333c:	66 2e 0f 1f 84 00 00 	cs nopw 0x0(%rax,%rax,1)
  103343:	00 00 00 
  103346:	66 2e 0f 1f 84 00 00 	cs nopw 0x0(%rax,%rax,1)
  10334d:	00 00 00 
  103350:	66 2e 0f 1f 84 00 00 	cs nopw 0x0(%rax,%rax,1)
  103357:	00 00 00 
  10335a:	66 2e 0f 1f 84 00 00 	cs nopw 0x0(%rax,%rax,1)
  103361:	00 00 00 
  103364:	66 2e 0f 1f 84 00 00 	cs nopw 0x0(%rax,%rax,1)
  10336b:	00 00 00 
  10336e:	66 2e 0f 1f 84 00 00 	cs nopw 0x0(%rax,%rax,1)
  103375:	00 00 00 
  103378:	66 2e 0f 1f 84 00 00 	cs nopw 0x0(%rax,%rax,1)
  10337f:	00 00 00 
  103382:	66 2e 0f 1f 84 00 00 	cs nopw 0x0(%rax,%rax,1)
  103389:	00 00 00 
  10338c:	66 2e 0f 1f 84 00 00 	cs nopw 0x0(%rax,%rax,1)
  103393:	00 00 00 
  103396:	66 2e 0f 1f 84 00 00 	cs nopw 0x0(%rax,%rax,1)
  10339d:	00 00 00 
  1033a0:	66 2e 0f 1f 84 00 00 	cs nopw 0x0(%rax,%rax,1)
  1033a7:	00 00 00 
  1033aa:	66 2e 0f 1f 84 00 00 	cs nopw 0x0(%rax,%rax,1)
  1033b1:	00 00 00 
  1033b4:	66 2e 0f 1f 84 00 00 	cs nopw 0x0(%rax,%rax,1)
  1033bb:	00 00 00 
  1033be:	66 2e 0f 1f 84 00 00 	cs nopw 0x0(%rax,%rax,1)
  1033c5:	00 00 00 
  1033c8:	66 2e 0f 1f 84 00 00 	cs nopw 0x0(%rax,%rax,1)
  1033cf:	00 00 00 
  1033d2:	66 2e 0f 1f 84 00 00 	cs nopw 0x0(%rax,%rax,1)
  1033d9:	00 00 00 
  1033dc:	66 2e 0f 1f 84 00 00 	cs nopw 0x0(%rax,%rax,1)
  1033e3:	00 00 00 
  1033e6:	66 2e 0f 1f 84 00 00 	cs nopw 0x0(%rax,%rax,1)
  1033ed:	00 00 00 
  1033f0:	66 2e 0f 1f 84 00 00 	cs nopw 0x0(%rax,%rax,1)
  1033f7:	00 00 00 
  1033fa:	66 2e 0f 1f 84 00 00 	cs nopw 0x0(%rax,%rax,1)
  103401:	00 00 00 
  103404:	66 2e 0f 1f 84 00 00 	cs nopw 0x0(%rax,%rax,1)
  10340b:	00 00 00 
  10340e:	66 2e 0f 1f 84 00 00 	cs nopw 0x0(%rax,%rax,1)
  103415:	00 00 00 
  103418:	66 2e 0f 1f 84 00 00 	cs nopw 0x0(%rax,%rax,1)
  10341f:	00 00 00 
  103422:	66 2e 0f 1f 84 00 00 	cs nopw 0x0(%rax,%rax,1)
  103429:	00 00 00 
  10342c:	66 2e 0f 1f 84 00 00 	cs nopw 0x0(%rax,%rax,1)
  103433:	00 00 00 
  103436:	66 2e 0f 1f 84 00 00 	cs nopw 0x0(%rax,%rax,1)
  10343d:	00 00 00 
  103440:	66 2e 0f 1f 84 00 00 	cs nopw 0x0(%rax,%rax,1)
  103447:	00 00 00 
  10344a:	66 2e 0f 1f 84 00 00 	cs nopw 0x0(%rax,%rax,1)
  103451:	00 00 00 
  103454:	66 2e 0f 1f 84 00 00 	cs nopw 0x0(%rax,%rax,1)
  10345b:	00 00 00 
  10345e:	66 2e 0f 1f 84 00 00 	cs nopw 0x0(%rax,%rax,1)
  103465:	00 00 00 
  103468:	66 2e 0f 1f 84 00 00 	cs nopw 0x0(%rax,%rax,1)
  10346f:	00 00 00 
  103472:	66 2e 0f 1f 84 00 00 	cs nopw 0x0(%rax,%rax,1)
  103479:	00 00 00 
  10347c:	66 2e 0f 1f 84 00 00 	cs nopw 0x0(%rax,%rax,1)
  103483:	00 00 00 
  103486:	66 2e 0f 1f 84 00 00 	cs nopw 0x0(%rax,%rax,1)
  10348d:	00 00 00 
  103490:	66 2e 0f 1f 84 00 00 	cs nopw 0x0(%rax,%rax,1)
  103497:	00 00 00 
  10349a:	66 2e 0f 1f 84 00 00 	cs nopw 0x0(%rax,%rax,1)
  1034a1:	00 00 00 
  1034a4:	66 2e 0f 1f 84 00 00 	cs nopw 0x0(%rax,%rax,1)
  1034ab:	00 00 00 
  1034ae:	66 2e 0f 1f 84 00 00 	cs nopw 0x0(%rax,%rax,1)
  1034b5:	00 00 00 
  1034b8:	66 2e 0f 1f 84 00 00 	cs nopw 0x0(%rax,%rax,1)
  1034bf:	00 00 00 
  1034c2:	66 2e 0f 1f 84 00 00 	cs nopw 0x0(%rax,%rax,1)
  1034c9:	00 00 00 
  1034cc:	66 2e 0f 1f 84 00 00 	cs nopw 0x0(%rax,%rax,1)
  1034d3:	00 00 00 
  1034d6:	66 2e 0f 1f 84 00 00 	cs nopw 0x0(%rax,%rax,1)
  1034dd:	00 00 00 
  1034e0:	66 2e 0f 1f 84 00 00 	cs nopw 0x0(%rax,%rax,1)
  1034e7:	00 00 00 
  1034ea:	66 2e 0f 1f 84 00 00 	cs nopw 0x0(%rax,%rax,1)
  1034f1:	00 00 00 
  1034f4:	66 2e 0f 1f 84 00 00 	cs nopw 0x0(%rax,%rax,1)
  1034fb:	00 00 00 
  1034fe:	66 2e 0f 1f 84 00 00 	cs nopw 0x0(%rax,%rax,1)
  103505:	00 00 00 
  103508:	66 2e 0f 1f 84 00 00 	cs nopw 0x0(%rax,%rax,1)
  10350f:	00 00 00 
  103512:	66 2e 0f 1f 84 00 00 	cs nopw 0x0(%rax,%rax,1)
  103519:	00 00 00 
  10351c:	66 2e 0f 1f 84 00 00 	cs nopw 0x0(%rax,%rax,1)
  103523:	00 00 00 
  103526:	66 2e 0f 1f 84 00 00 	cs nopw 0x0(%rax,%rax,1)
  10352d:	00 00 00 
  103530:	66 2e 0f 1f 84 00 00 	cs nopw 0x0(%rax,%rax,1)
  103537:	00 00 00 
  10353a:	66 2e 0f 1f 84 00 00 	cs nopw 0x0(%rax,%rax,1)
  103541:	00 00 00 
  103544:	66 2e 0f 1f 84 00 00 	cs nopw 0x0(%rax,%rax,1)
  10354b:	00 00 00 
  10354e:	66 2e 0f 1f 84 00 00 	cs nopw 0x0(%rax,%rax,1)
  103555:	00 00 00 
  103558:	66 2e 0f 1f 84 00 00 	cs nopw 0x0(%rax,%rax,1)
  10355f:	00 00 00 
  103562:	66 2e 0f 1f 84 00 00 	cs nopw 0x0(%rax,%rax,1)
  103569:	00 00 00 
  10356c:	66 2e 0f 1f 84 00 00 	cs nopw 0x0(%rax,%rax,1)
  103573:	00 00 00 
  103576:	66 2e 0f 1f 84 00 00 	cs nopw 0x0(%rax,%rax,1)
  10357d:	00 00 00 
  103580:	66 2e 0f 1f 84 00 00 	cs nopw 0x0(%rax,%rax,1)
  103587:	00 00 00 
  10358a:	66 2e 0f 1f 84 00 00 	cs nopw 0x0(%rax,%rax,1)
  103591:	00 00 00 
  103594:	66 2e 0f 1f 84 00 00 	cs nopw 0x0(%rax,%rax,1)
  10359b:	00 00 00 
  10359e:	66 2e 0f 1f 84 00 00 	cs nopw 0x0(%rax,%rax,1)
  1035a5:	00 00 00 
  1035a8:	66 2e 0f 1f 84 00 00 	cs nopw 0x0(%rax,%rax,1)
  1035af:	00 00 00 
  1035b2:	66 2e 0f 1f 84 00 00 	cs nopw 0x0(%rax,%rax,1)
  1035b9:	00 00 00 
  1035bc:	66 2e 0f 1f 84 00 00 	cs nopw 0x0(%rax,%rax,1)
  1035c3:	00 00 00 
  1035c6:	66 2e 0f 1f 84 00 00 	cs nopw 0x0(%rax,%rax,1)
  1035cd:	00 00 00 
  1035d0:	66 2e 0f 1f 84 00 00 	cs nopw 0x0(%rax,%rax,1)
  1035d7:	00 00 00 
  1035da:	66 2e 0f 1f 84 00 00 	cs nopw 0x0(%rax,%rax,1)
  1035e1:	00 00 00 
  1035e4:	66 2e 0f 1f 84 00 00 	cs nopw 0x0(%rax,%rax,1)
  1035eb:	00 00 00 
  1035ee:	66 2e 0f 1f 84 00 00 	cs nopw 0x0(%rax,%rax,1)
  1035f5:	00 00 00 
  1035f8:	66 2e 0f 1f 84 00 00 	cs nopw 0x0(%rax,%rax,1)
  1035ff:	00 00 00 
  103602:	66 2e 0f 1f 84 00 00 	cs nopw 0x0(%rax,%rax,1)
  103609:	00 00 00 
  10360c:	66 2e 0f 1f 84 00 00 	cs nopw 0x0(%rax,%rax,1)
  103613:	00 00 00 
  103616:	66 2e 0f 1f 84 00 00 	cs nopw 0x0(%rax,%rax,1)
  10361d:	00 00 00 
  103620:	66 2e 0f 1f 84 00 00 	cs nopw 0x0(%rax,%rax,1)
  103627:	00 00 00 
  10362a:	66 2e 0f 1f 84 00 00 	cs nopw 0x0(%rax,%rax,1)
  103631:	00 00 00 
  103634:	66 2e 0f 1f 84 00 00 	cs nopw 0x0(%rax,%rax,1)
  10363b:	00 00 00 
  10363e:	66 2e 0f 1f 84 00 00 	cs nopw 0x0(%rax,%rax,1)
  103645:	00 00 00 
  103648:	66 2e 0f 1f 84 00 00 	cs nopw 0x0(%rax,%rax,1)
  10364f:	00 00 00 
  103652:	66 2e 0f 1f 84 00 00 	cs nopw 0x0(%rax,%rax,1)
  103659:	00 00 00 
  10365c:	66 2e 0f 1f 84 00 00 	cs nopw 0x0(%rax,%rax,1)
  103663:	00 00 00 
  103666:	66 2e 0f 1f 84 00 00 	cs nopw 0x0(%rax,%rax,1)
  10366d:	00 00 00 
  103670:	66 2e 0f 1f 84 00 00 	cs nopw 0x0(%rax,%rax,1)
  103677:	00 00 00 
  10367a:	66 2e 0f 1f 84 00 00 	cs nopw 0x0(%rax,%rax,1)
  103681:	00 00 00 
  103684:	66 2e 0f 1f 84 00 00 	cs nopw 0x0(%rax,%rax,1)
  10368b:	00 00 00 
  10368e:	66 2e 0f 1f 84 00 00 	cs nopw 0x0(%rax,%rax,1)
  103695:	00 00 00 
  103698:	66 2e 0f 1f 84 00 00 	cs nopw 0x0(%rax,%rax,1)
  10369f:	00 00 00 
  1036a2:	66 2e 0f 1f 84 00 00 	cs nopw 0x0(%rax,%rax,1)
  1036a9:	00 00 00 
  1036ac:	66 2e 0f 1f 84 00 00 	cs nopw 0x0(%rax,%rax,1)
  1036b3:	00 00 00 
  1036b6:	66 2e 0f 1f 84 00 00 	cs nopw 0x0(%rax,%rax,1)
  1036bd:	00 00 00 
  1036c0:	66 2e 0f 1f 84 00 00 	cs nopw 0x0(%rax,%rax,1)
  1036c7:	00 00 00 
  1036ca:	66 2e 0f 1f 84 00 00 	cs nopw 0x0(%rax,%rax,1)
  1036d1:	00 00 00 
  1036d4:	66 2e 0f 1f 84 00 00 	cs nopw 0x0(%rax,%rax,1)
  1036db:	00 00 00 
  1036de:	66 2e 0f 1f 84 00 00 	cs nopw 0x0(%rax,%rax,1)
  1036e5:	00 00 00 
  1036e8:	66 2e 0f 1f 84 00 00 	cs nopw 0x0(%rax,%rax,1)
  1036ef:	00 00 00 
  1036f2:	66 2e 0f 1f 84 00 00 	cs nopw 0x0(%rax,%rax,1)
  1036f9:	00 00 00 
  1036fc:	66 2e 0f 1f 84 00 00 	cs nopw 0x0(%rax,%rax,1)
  103703:	00 00 00 
  103706:	66 2e 0f 1f 84 00 00 	cs nopw 0x0(%rax,%rax,1)
  10370d:	00 00 00 
  103710:	66 2e 0f 1f 84 00 00 	cs nopw 0x0(%rax,%rax,1)
  103717:	00 00 00 
  10371a:	66 2e 0f 1f 84 00 00 	cs nopw 0x0(%rax,%rax,1)
  103721:	00 00 00 
  103724:	66 2e 0f 1f 84 00 00 	cs nopw 0x0(%rax,%rax,1)
  10372b:	00 00 00 
  10372e:	66 2e 0f 1f 84 00 00 	cs nopw 0x0(%rax,%rax,1)
  103735:	00 00 00 
  103738:	66 2e 0f 1f 84 00 00 	cs nopw 0x0(%rax,%rax,1)
  10373f:	00 00 00 
  103742:	66 2e 0f 1f 84 00 00 	cs nopw 0x0(%rax,%rax,1)
  103749:	00 00 00 
  10374c:	66 2e 0f 1f 84 00 00 	cs nopw 0x0(%rax,%rax,1)
  103753:	00 00 00 
  103756:	66 2e 0f 1f 84 00 00 	cs nopw 0x0(%rax,%rax,1)
  10375d:	00 00 00 
  103760:	66 2e 0f 1f 84 00 00 	cs nopw 0x0(%rax,%rax,1)
  103767:	00 00 00 
  10376a:	66 2e 0f 1f 84 00 00 	cs nopw 0x0(%rax,%rax,1)
  103771:	00 00 00 
  103774:	66 2e 0f 1f 84 00 00 	cs nopw 0x0(%rax,%rax,1)
  10377b:	00 00 00 
  10377e:	66 2e 0f 1f 84 00 00 	cs nopw 0x0(%rax,%rax,1)
  103785:	00 00 00 
  103788:	66 2e 0f 1f 84 00 00 	cs nopw 0x0(%rax,%rax,1)
  10378f:	00 00 00 
  103792:	66 2e 0f 1f 84 00 00 	cs nopw 0x0(%rax,%rax,1)
  103799:	00 00 00 
  10379c:	66 2e 0f 1f 84 00 00 	cs nopw 0x0(%rax,%rax,1)
  1037a3:	00 00 00 
  1037a6:	66 2e 0f 1f 84 00 00 	cs nopw 0x0(%rax,%rax,1)
  1037ad:	00 00 00 
  1037b0:	66 2e 0f 1f 84 00 00 	cs nopw 0x0(%rax,%rax,1)
  1037b7:	00 00 00 
  1037ba:	66 2e 0f 1f 84 00 00 	cs nopw 0x0(%rax,%rax,1)
  1037c1:	00 00 00 
  1037c4:	66 2e 0f 1f 84 00 00 	cs nopw 0x0(%rax,%rax,1)
  1037cb:	00 00 00 
  1037ce:	66 2e 0f 1f 84 00 00 	cs nopw 0x0(%rax,%rax,1)
  1037d5:	00 00 00 
  1037d8:	66 2e 0f 1f 84 00 00 	cs nopw 0x0(%rax,%rax,1)
  1037df:	00 00 00 
  1037e2:	66 2e 0f 1f 84 00 00 	cs nopw 0x0(%rax,%rax,1)
  1037e9:	00 00 00 
  1037ec:	66 2e 0f 1f 84 00 00 	cs nopw 0x0(%rax,%rax,1)
  1037f3:	00 00 00 
  1037f6:	66 2e 0f 1f 84 00 00 	cs nopw 0x0(%rax,%rax,1)
  1037fd:	00 00 00 
  103800:	66 2e 0f 1f 84 00 00 	cs nopw 0x0(%rax,%rax,1)
  103807:	00 00 00 
  10380a:	66 2e 0f 1f 84 00 00 	cs nopw 0x0(%rax,%rax,1)
  103811:	00 00 00 
  103814:	66 2e 0f 1f 84 00 00 	cs nopw 0x0(%rax,%rax,1)
  10381b:	00 00 00 
  10381e:	66 2e 0f 1f 84 00 00 	cs nopw 0x0(%rax,%rax,1)
  103825:	00 00 00 
  103828:	66 2e 0f 1f 84 00 00 	cs nopw 0x0(%rax,%rax,1)
  10382f:	00 00 00 
  103832:	66 2e 0f 1f 84 00 00 	cs nopw 0x0(%rax,%rax,1)
  103839:	00 00 00 
  10383c:	66 2e 0f 1f 84 00 00 	cs nopw 0x0(%rax,%rax,1)
  103843:	00 00 00 
  103846:	66 2e 0f 1f 84 00 00 	cs nopw 0x0(%rax,%rax,1)
  10384d:	00 00 00 
  103850:	66 2e 0f 1f 84 00 00 	cs nopw 0x0(%rax,%rax,1)
  103857:	00 00 00 
  10385a:	66 2e 0f 1f 84 00 00 	cs nopw 0x0(%rax,%rax,1)
  103861:	00 00 00 
  103864:	66 2e 0f 1f 84 00 00 	cs nopw 0x0(%rax,%rax,1)
  10386b:	00 00 00 
  10386e:	66 2e 0f 1f 84 00 00 	cs nopw 0x0(%rax,%rax,1)
  103875:	00 00 00 
  103878:	66 2e 0f 1f 84 00 00 	cs nopw 0x0(%rax,%rax,1)
  10387f:	00 00 00 
  103882:	66 2e 0f 1f 84 00 00 	cs nopw 0x0(%rax,%rax,1)
  103889:	00 00 00 
  10388c:	66 2e 0f 1f 84 00 00 	cs nopw 0x0(%rax,%rax,1)
  103893:	00 00 00 
  103896:	66 2e 0f 1f 84 00 00 	cs nopw 0x0(%rax,%rax,1)
  10389d:	00 00 00 
  1038a0:	66 2e 0f 1f 84 00 00 	cs nopw 0x0(%rax,%rax,1)
  1038a7:	00 00 00 
  1038aa:	66 2e 0f 1f 84 00 00 	cs nopw 0x0(%rax,%rax,1)
  1038b1:	00 00 00 
  1038b4:	66 2e 0f 1f 84 00 00 	cs nopw 0x0(%rax,%rax,1)
  1038bb:	00 00 00 
  1038be:	66 2e 0f 1f 84 00 00 	cs nopw 0x0(%rax,%rax,1)
  1038c5:	00 00 00 
  1038c8:	66 2e 0f 1f 84 00 00 	cs nopw 0x0(%rax,%rax,1)
  1038cf:	00 00 00 
  1038d2:	66 2e 0f 1f 84 00 00 	cs nopw 0x0(%rax,%rax,1)
  1038d9:	00 00 00 
  1038dc:	66 2e 0f 1f 84 00 00 	cs nopw 0x0(%rax,%rax,1)
  1038e3:	00 00 00 
  1038e6:	66 2e 0f 1f 84 00 00 	cs nopw 0x0(%rax,%rax,1)
  1038ed:	00 00 00 
  1038f0:	66 2e 0f 1f 84 00 00 	cs nopw 0x0(%rax,%rax,1)
  1038f7:	00 00 00 
  1038fa:	66 2e 0f 1f 84 00 00 	cs nopw 0x0(%rax,%rax,1)
  103901:	00 00 00 
  103904:	66 2e 0f 1f 84 00 00 	cs nopw 0x0(%rax,%rax,1)
  10390b:	00 00 00 
  10390e:	66 2e 0f 1f 84 00 00 	cs nopw 0x0(%rax,%rax,1)
  103915:	00 00 00 
  103918:	66 2e 0f 1f 84 00 00 	cs nopw 0x0(%rax,%rax,1)
  10391f:	00 00 00 
  103922:	66 2e 0f 1f 84 00 00 	cs nopw 0x0(%rax,%rax,1)
  103929:	00 00 00 
  10392c:	66 2e 0f 1f 84 00 00 	cs nopw 0x0(%rax,%rax,1)
  103933:	00 00 00 
  103936:	66 2e 0f 1f 84 00 00 	cs nopw 0x0(%rax,%rax,1)
  10393d:	00 00 00 
  103940:	66 2e 0f 1f 84 00 00 	cs nopw 0x0(%rax,%rax,1)
  103947:	00 00 00 
  10394a:	66 2e 0f 1f 84 00 00 	cs nopw 0x0(%rax,%rax,1)
  103951:	00 00 00 
  103954:	66 2e 0f 1f 84 00 00 	cs nopw 0x0(%rax,%rax,1)
  10395b:	00 00 00 
  10395e:	66 2e 0f 1f 84 00 00 	cs nopw 0x0(%rax,%rax,1)
  103965:	00 00 00 
  103968:	66 2e 0f 1f 84 00 00 	cs nopw 0x0(%rax,%rax,1)
  10396f:	00 00 00 
  103972:	66 2e 0f 1f 84 00 00 	cs nopw 0x0(%rax,%rax,1)
  103979:	00 00 00 
  10397c:	66 2e 0f 1f 84 00 00 	cs nopw 0x0(%rax,%rax,1)
  103983:	00 00 00 
  103986:	66 2e 0f 1f 84 00 00 	cs nopw 0x0(%rax,%rax,1)
  10398d:	00 00 00 
  103990:	66 2e 0f 1f 84 00 00 	cs nopw 0x0(%rax,%rax,1)
  103997:	00 00 00 
  10399a:	66 2e 0f 1f 84 00 00 	cs nopw 0x0(%rax,%rax,1)
  1039a1:	00 00 00 
  1039a4:	66 2e 0f 1f 84 00 00 	cs nopw 0x0(%rax,%rax,1)
  1039ab:	00 00 00 
  1039ae:	66 2e 0f 1f 84 00 00 	cs nopw 0x0(%rax,%rax,1)
  1039b5:	00 00 00 
  1039b8:	66 2e 0f 1f 84 00 00 	cs nopw 0x0(%rax,%rax,1)
  1039bf:	00 00 00 
  1039c2:	66 2e 0f 1f 84 00 00 	cs nopw 0x0(%rax,%rax,1)
  1039c9:	00 00 00 
  1039cc:	66 2e 0f 1f 84 00 00 	cs nopw 0x0(%rax,%rax,1)
  1039d3:	00 00 00 
  1039d6:	66 2e 0f 1f 84 00 00 	cs nopw 0x0(%rax,%rax,1)
  1039dd:	00 00 00 
  1039e0:	66 2e 0f 1f 84 00 00 	cs nopw 0x0(%rax,%rax,1)
  1039e7:	00 00 00 
  1039ea:	66 2e 0f 1f 84 00 00 	cs nopw 0x0(%rax,%rax,1)
  1039f1:	00 00 00 
  1039f4:	66 2e 0f 1f 84 00 00 	cs nopw 0x0(%rax,%rax,1)
  1039fb:	00 00 00 
  1039fe:	66 2e 0f 1f 84 00 00 	cs nopw 0x0(%rax,%rax,1)
  103a05:	00 00 00 
  103a08:	66 2e 0f 1f 84 00 00 	cs nopw 0x0(%rax,%rax,1)
  103a0f:	00 00 00 
  103a12:	66 2e 0f 1f 84 00 00 	cs nopw 0x0(%rax,%rax,1)
  103a19:	00 00 00 
  103a1c:	66 2e 0f 1f 84 00 00 	cs nopw 0x0(%rax,%rax,1)
  103a23:	00 00 00 
  103a26:	66 2e 0f 1f 84 00 00 	cs nopw 0x0(%rax,%rax,1)
  103a2d:	00 00 00 
  103a30:	66 2e 0f 1f 84 00 00 	cs nopw 0x0(%rax,%rax,1)
  103a37:	00 00 00 
  103a3a:	66 2e 0f 1f 84 00 00 	cs nopw 0x0(%rax,%rax,1)
  103a41:	00 00 00 
  103a44:	66 2e 0f 1f 84 00 00 	cs nopw 0x0(%rax,%rax,1)
  103a4b:	00 00 00 
  103a4e:	66 2e 0f 1f 84 00 00 	cs nopw 0x0(%rax,%rax,1)
  103a55:	00 00 00 
  103a58:	66 2e 0f 1f 84 00 00 	cs nopw 0x0(%rax,%rax,1)
  103a5f:	00 00 00 
  103a62:	66 2e 0f 1f 84 00 00 	cs nopw 0x0(%rax,%rax,1)
  103a69:	00 00 00 
  103a6c:	66 2e 0f 1f 84 00 00 	cs nopw 0x0(%rax,%rax,1)
  103a73:	00 00 00 
  103a76:	66 2e 0f 1f 84 00 00 	cs nopw 0x0(%rax,%rax,1)
  103a7d:	00 00 00 
  103a80:	66 2e 0f 1f 84 00 00 	cs nopw 0x0(%rax,%rax,1)
  103a87:	00 00 00 
  103a8a:	66 2e 0f 1f 84 00 00 	cs nopw 0x0(%rax,%rax,1)
  103a91:	00 00 00 
  103a94:	66 2e 0f 1f 84 00 00 	cs nopw 0x0(%rax,%rax,1)
  103a9b:	00 00 00 
  103a9e:	66 2e 0f 1f 84 00 00 	cs nopw 0x0(%rax,%rax,1)
  103aa5:	00 00 00 
  103aa8:	66 2e 0f 1f 84 00 00 	cs nopw 0x0(%rax,%rax,1)
  103aaf:	00 00 00 
  103ab2:	66 2e 0f 1f 84 00 00 	cs nopw 0x0(%rax,%rax,1)
  103ab9:	00 00 00 
  103abc:	66 2e 0f 1f 84 00 00 	cs nopw 0x0(%rax,%rax,1)
  103ac3:	00 00 00 
  103ac6:	66 2e 0f 1f 84 00 00 	cs nopw 0x0(%rax,%rax,1)
  103acd:	00 00 00 
  103ad0:	66 2e 0f 1f 84 00 00 	cs nopw 0x0(%rax,%rax,1)
  103ad7:	00 00 00 
  103ada:	66 2e 0f 1f 84 00 00 	cs nopw 0x0(%rax,%rax,1)
  103ae1:	00 00 00 
  103ae4:	66 2e 0f 1f 84 00 00 	cs nopw 0x0(%rax,%rax,1)
  103aeb:	00 00 00 
  103aee:	66 2e 0f 1f 84 00 00 	cs nopw 0x0(%rax,%rax,1)
  103af5:	00 00 00 
  103af8:	66 2e 0f 1f 84 00 00 	cs nopw 0x0(%rax,%rax,1)
  103aff:	00 00 00 
  103b02:	66 2e 0f 1f 84 00 00 	cs nopw 0x0(%rax,%rax,1)
  103b09:	00 00 00 
  103b0c:	66 2e 0f 1f 84 00 00 	cs nopw 0x0(%rax,%rax,1)
  103b13:	00 00 00 
  103b16:	66 2e 0f 1f 84 00 00 	cs nopw 0x0(%rax,%rax,1)
  103b1d:	00 00 00 
  103b20:	66 2e 0f 1f 84 00 00 	cs nopw 0x0(%rax,%rax,1)
  103b27:	00 00 00 
  103b2a:	66 2e 0f 1f 84 00 00 	cs nopw 0x0(%rax,%rax,1)
  103b31:	00 00 00 
  103b34:	66 2e 0f 1f 84 00 00 	cs nopw 0x0(%rax,%rax,1)
  103b3b:	00 00 00 
  103b3e:	66 2e 0f 1f 84 00 00 	cs nopw 0x0(%rax,%rax,1)
  103b45:	00 00 00 
  103b48:	66 2e 0f 1f 84 00 00 	cs nopw 0x0(%rax,%rax,1)
  103b4f:	00 00 00 
  103b52:	66 2e 0f 1f 84 00 00 	cs nopw 0x0(%rax,%rax,1)
  103b59:	00 00 00 
  103b5c:	66 2e 0f 1f 84 00 00 	cs nopw 0x0(%rax,%rax,1)
  103b63:	00 00 00 
  103b66:	66 2e 0f 1f 84 00 00 	cs nopw 0x0(%rax,%rax,1)
  103b6d:	00 00 00 
  103b70:	66 2e 0f 1f 84 00 00 	cs nopw 0x0(%rax,%rax,1)
  103b77:	00 00 00 
  103b7a:	66 2e 0f 1f 84 00 00 	cs nopw 0x0(%rax,%rax,1)
  103b81:	00 00 00 
  103b84:	66 2e 0f 1f 84 00 00 	cs nopw 0x0(%rax,%rax,1)
  103b8b:	00 00 00 
  103b8e:	66 2e 0f 1f 84 00 00 	cs nopw 0x0(%rax,%rax,1)
  103b95:	00 00 00 
  103b98:	66 2e 0f 1f 84 00 00 	cs nopw 0x0(%rax,%rax,1)
  103b9f:	00 00 00 
  103ba2:	66 2e 0f 1f 84 00 00 	cs nopw 0x0(%rax,%rax,1)
  103ba9:	00 00 00 
  103bac:	66 2e 0f 1f 84 00 00 	cs nopw 0x0(%rax,%rax,1)
  103bb3:	00 00 00 
  103bb6:	66 2e 0f 1f 84 00 00 	cs nopw 0x0(%rax,%rax,1)
  103bbd:	00 00 00 
  103bc0:	66 2e 0f 1f 84 00 00 	cs nopw 0x0(%rax,%rax,1)
  103bc7:	00 00 00 
  103bca:	66 2e 0f 1f 84 00 00 	cs nopw 0x0(%rax,%rax,1)
  103bd1:	00 00 00 
  103bd4:	66 2e 0f 1f 84 00 00 	cs nopw 0x0(%rax,%rax,1)
  103bdb:	00 00 00 
  103bde:	66 2e 0f 1f 84 00 00 	cs nopw 0x0(%rax,%rax,1)
  103be5:	00 00 00 
  103be8:	66 2e 0f 1f 84 00 00 	cs nopw 0x0(%rax,%rax,1)
  103bef:	00 00 00 
  103bf2:	66 2e 0f 1f 84 00 00 	cs nopw 0x0(%rax,%rax,1)
  103bf9:	00 00 00 
  103bfc:	66 2e 0f 1f 84 00 00 	cs nopw 0x0(%rax,%rax,1)
  103c03:	00 00 00 
  103c06:	66 2e 0f 1f 84 00 00 	cs nopw 0x0(%rax,%rax,1)
  103c0d:	00 00 00 
  103c10:	66 2e 0f 1f 84 00 00 	cs nopw 0x0(%rax,%rax,1)
  103c17:	00 00 00 
  103c1a:	66 2e 0f 1f 84 00 00 	cs nopw 0x0(%rax,%rax,1)
  103c21:	00 00 00 
  103c24:	66 2e 0f 1f 84 00 00 	cs nopw 0x0(%rax,%rax,1)
  103c2b:	00 00 00 
  103c2e:	66 2e 0f 1f 84 00 00 	cs nopw 0x0(%rax,%rax,1)
  103c35:	00 00 00 
  103c38:	66 2e 0f 1f 84 00 00 	cs nopw 0x0(%rax,%rax,1)
  103c3f:	00 00 00 
  103c42:	66 2e 0f 1f 84 00 00 	cs nopw 0x0(%rax,%rax,1)
  103c49:	00 00 00 
  103c4c:	66 2e 0f 1f 84 00 00 	cs nopw 0x0(%rax,%rax,1)
  103c53:	00 00 00 
  103c56:	66 2e 0f 1f 84 00 00 	cs nopw 0x0(%rax,%rax,1)
  103c5d:	00 00 00 
  103c60:	66 2e 0f 1f 84 00 00 	cs nopw 0x0(%rax,%rax,1)
  103c67:	00 00 00 
  103c6a:	66 2e 0f 1f 84 00 00 	cs nopw 0x0(%rax,%rax,1)
  103c71:	00 00 00 
  103c74:	66 2e 0f 1f 84 00 00 	cs nopw 0x0(%rax,%rax,1)
  103c7b:	00 00 00 
  103c7e:	66 2e 0f 1f 84 00 00 	cs nopw 0x0(%rax,%rax,1)
  103c85:	00 00 00 
  103c88:	66 2e 0f 1f 84 00 00 	cs nopw 0x0(%rax,%rax,1)
  103c8f:	00 00 00 
  103c92:	66 2e 0f 1f 84 00 00 	cs nopw 0x0(%rax,%rax,1)
  103c99:	00 00 00 
  103c9c:	66 2e 0f 1f 84 00 00 	cs nopw 0x0(%rax,%rax,1)
  103ca3:	00 00 00 
  103ca6:	66 2e 0f 1f 84 00 00 	cs nopw 0x0(%rax,%rax,1)
  103cad:	00 00 00 
  103cb0:	66 2e 0f 1f 84 00 00 	cs nopw 0x0(%rax,%rax,1)
  103cb7:	00 00 00 
  103cba:	66 2e 0f 1f 84 00 00 	cs nopw 0x0(%rax,%rax,1)
  103cc1:	00 00 00 
  103cc4:	66 2e 0f 1f 84 00 00 	cs nopw 0x0(%rax,%rax,1)
  103ccb:	00 00 00 
  103cce:	66 2e 0f 1f 84 00 00 	cs nopw 0x0(%rax,%rax,1)
  103cd5:	00 00 00 
  103cd8:	66 2e 0f 1f 84 00 00 	cs nopw 0x0(%rax,%rax,1)
  103cdf:	00 00 00 
  103ce2:	66 2e 0f 1f 84 00 00 	cs nopw 0x0(%rax,%rax,1)
  103ce9:	00 00 00 
  103cec:	66 2e 0f 1f 84 00 00 	cs nopw 0x0(%rax,%rax,1)
  103cf3:	00 00 00 
  103cf6:	66 2e 0f 1f 84 00 00 	cs nopw 0x0(%rax,%rax,1)
  103cfd:	00 00 00 
  103d00:	66 2e 0f 1f 84 00 00 	cs nopw 0x0(%rax,%rax,1)
  103d07:	00 00 00 
  103d0a:	66 2e 0f 1f 84 00 00 	cs nopw 0x0(%rax,%rax,1)
  103d11:	00 00 00 
  103d14:	66 2e 0f 1f 84 00 00 	cs nopw 0x0(%rax,%rax,1)
  103d1b:	00 00 00 
  103d1e:	66 2e 0f 1f 84 00 00 	cs nopw 0x0(%rax,%rax,1)
  103d25:	00 00 00 
  103d28:	66 2e 0f 1f 84 00 00 	cs nopw 0x0(%rax,%rax,1)
  103d2f:	00 00 00 
  103d32:	66 2e 0f 1f 84 00 00 	cs nopw 0x0(%rax,%rax,1)
  103d39:	00 00 00 
  103d3c:	66 2e 0f 1f 84 00 00 	cs nopw 0x0(%rax,%rax,1)
  103d43:	00 00 00 
  103d46:	66 2e 0f 1f 84 00 00 	cs nopw 0x0(%rax,%rax,1)
  103d4d:	00 00 00 
  103d50:	66 2e 0f 1f 84 00 00 	cs nopw 0x0(%rax,%rax,1)
  103d57:	00 00 00 
  103d5a:	66 2e 0f 1f 84 00 00 	cs nopw 0x0(%rax,%rax,1)
  103d61:	00 00 00 
  103d64:	66 2e 0f 1f 84 00 00 	cs nopw 0x0(%rax,%rax,1)
  103d6b:	00 00 00 
  103d6e:	66 2e 0f 1f 84 00 00 	cs nopw 0x0(%rax,%rax,1)
  103d75:	00 00 00 
  103d78:	66 2e 0f 1f 84 00 00 	cs nopw 0x0(%rax,%rax,1)
  103d7f:	00 00 00 
  103d82:	66 2e 0f 1f 84 00 00 	cs nopw 0x0(%rax,%rax,1)
  103d89:	00 00 00 
  103d8c:	66 2e 0f 1f 84 00 00 	cs nopw 0x0(%rax,%rax,1)
  103d93:	00 00 00 
  103d96:	66 2e 0f 1f 84 00 00 	cs nopw 0x0(%rax,%rax,1)
  103d9d:	00 00 00 
  103da0:	66 2e 0f 1f 84 00 00 	cs nopw 0x0(%rax,%rax,1)
  103da7:	00 00 00 
  103daa:	66 2e 0f 1f 84 00 00 	cs nopw 0x0(%rax,%rax,1)
  103db1:	00 00 00 
  103db4:	66 2e 0f 1f 84 00 00 	cs nopw 0x0(%rax,%rax,1)
  103dbb:	00 00 00 
  103dbe:	66 2e 0f 1f 84 00 00 	cs nopw 0x0(%rax,%rax,1)
  103dc5:	00 00 00 
  103dc8:	66 2e 0f 1f 84 00 00 	cs nopw 0x0(%rax,%rax,1)
  103dcf:	00 00 00 
  103dd2:	66 2e 0f 1f 84 00 00 	cs nopw 0x0(%rax,%rax,1)
  103dd9:	00 00 00 
  103ddc:	66 2e 0f 1f 84 00 00 	cs nopw 0x0(%rax,%rax,1)
  103de3:	00 00 00 
  103de6:	66 2e 0f 1f 84 00 00 	cs nopw 0x0(%rax,%rax,1)
  103ded:	00 00 00 
  103df0:	66 2e 0f 1f 84 00 00 	cs nopw 0x0(%rax,%rax,1)
  103df7:	00 00 00 
  103dfa:	66 2e 0f 1f 84 00 00 	cs nopw 0x0(%rax,%rax,1)
  103e01:	00 00 00 
  103e04:	66 2e 0f 1f 84 00 00 	cs nopw 0x0(%rax,%rax,1)
  103e0b:	00 00 00 
  103e0e:	66 2e 0f 1f 84 00 00 	cs nopw 0x0(%rax,%rax,1)
  103e15:	00 00 00 
  103e18:	66 2e 0f 1f 84 00 00 	cs nopw 0x0(%rax,%rax,1)
  103e1f:	00 00 00 
  103e22:	66 2e 0f 1f 84 00 00 	cs nopw 0x0(%rax,%rax,1)
  103e29:	00 00 00 
  103e2c:	66 2e 0f 1f 84 00 00 	cs nopw 0x0(%rax,%rax,1)
  103e33:	00 00 00 
  103e36:	66 2e 0f 1f 84 00 00 	cs nopw 0x0(%rax,%rax,1)
  103e3d:	00 00 00 
  103e40:	66 2e 0f 1f 84 00 00 	cs nopw 0x0(%rax,%rax,1)
  103e47:	00 00 00 
  103e4a:	66 2e 0f 1f 84 00 00 	cs nopw 0x0(%rax,%rax,1)
  103e51:	00 00 00 
  103e54:	66 2e 0f 1f 84 00 00 	cs nopw 0x0(%rax,%rax,1)
  103e5b:	00 00 00 
  103e5e:	66 2e 0f 1f 84 00 00 	cs nopw 0x0(%rax,%rax,1)
  103e65:	00 00 00 
  103e68:	66 2e 0f 1f 84 00 00 	cs nopw 0x0(%rax,%rax,1)
  103e6f:	00 00 00 
  103e72:	66 2e 0f 1f 84 00 00 	cs nopw 0x0(%rax,%rax,1)
  103e79:	00 00 00 
  103e7c:	66 2e 0f 1f 84 00 00 	cs nopw 0x0(%rax,%rax,1)
  103e83:	00 00 00 
  103e86:	66 2e 0f 1f 84 00 00 	cs nopw 0x0(%rax,%rax,1)
  103e8d:	00 00 00 
  103e90:	66 2e 0f 1f 84 00 00 	cs nopw 0x0(%rax,%rax,1)
  103e97:	00 00 00 
  103e9a:	66 2e 0f 1f 84 00 00 	cs nopw 0x0(%rax,%rax,1)
  103ea1:	00 00 00 
  103ea4:	66 2e 0f 1f 84 00 00 	cs nopw 0x0(%rax,%rax,1)
  103eab:	00 00 00 
  103eae:	66 2e 0f 1f 84 00 00 	cs nopw 0x0(%rax,%rax,1)
  103eb5:	00 00 00 
  103eb8:	66 2e 0f 1f 84 00 00 	cs nopw 0x0(%rax,%rax,1)
  103ebf:	00 00 00 
  103ec2:	66 2e 0f 1f 84 00 00 	cs nopw 0x0(%rax,%rax,1)
  103ec9:	00 00 00 
  103ecc:	66 2e 0f 1f 84 00 00 	cs nopw 0x0(%rax,%rax,1)
  103ed3:	00 00 00 
  103ed6:	66 2e 0f 1f 84 00 00 	cs nopw 0x0(%rax,%rax,1)
  103edd:	00 00 00 
  103ee0:	66 2e 0f 1f 84 00 00 	cs nopw 0x0(%rax,%rax,1)
  103ee7:	00 00 00 
  103eea:	66 2e 0f 1f 84 00 00 	cs nopw 0x0(%rax,%rax,1)
  103ef1:	00 00 00 
  103ef4:	66 2e 0f 1f 84 00 00 	cs nopw 0x0(%rax,%rax,1)
  103efb:	00 00 00 
  103efe:	66 2e 0f 1f 84 00 00 	cs nopw 0x0(%rax,%rax,1)
  103f05:	00 00 00 
  103f08:	66 2e 0f 1f 84 00 00 	cs nopw 0x0(%rax,%rax,1)
  103f0f:	00 00 00 
  103f12:	66 2e 0f 1f 84 00 00 	cs nopw 0x0(%rax,%rax,1)
  103f19:	00 00 00 
  103f1c:	66 2e 0f 1f 84 00 00 	cs nopw 0x0(%rax,%rax,1)
  103f23:	00 00 00 
  103f26:	66 2e 0f 1f 84 00 00 	cs nopw 0x0(%rax,%rax,1)
  103f2d:	00 00 00 
  103f30:	66 2e 0f 1f 84 00 00 	cs nopw 0x0(%rax,%rax,1)
  103f37:	00 00 00 
  103f3a:	66 2e 0f 1f 84 00 00 	cs nopw 0x0(%rax,%rax,1)
  103f41:	00 00 00 
  103f44:	66 2e 0f 1f 84 00 00 	cs nopw 0x0(%rax,%rax,1)
  103f4b:	00 00 00 
  103f4e:	66 2e 0f 1f 84 00 00 	cs nopw 0x0(%rax,%rax,1)
  103f55:	00 00 00 
  103f58:	66 2e 0f 1f 84 00 00 	cs nopw 0x0(%rax,%rax,1)
  103f5f:	00 00 00 
  103f62:	66 2e 0f 1f 84 00 00 	cs nopw 0x0(%rax,%rax,1)
  103f69:	00 00 00 
  103f6c:	66 2e 0f 1f 84 00 00 	cs nopw 0x0(%rax,%rax,1)
  103f73:	00 00 00 
  103f76:	66 2e 0f 1f 84 00 00 	cs nopw 0x0(%rax,%rax,1)
  103f7d:	00 00 00 
  103f80:	66 2e 0f 1f 84 00 00 	cs nopw 0x0(%rax,%rax,1)
  103f87:	00 00 00 
  103f8a:	66 2e 0f 1f 84 00 00 	cs nopw 0x0(%rax,%rax,1)
  103f91:	00 00 00 
  103f94:	66 2e 0f 1f 84 00 00 	cs nopw 0x0(%rax,%rax,1)
  103f9b:	00 00 00 
  103f9e:	66 2e 0f 1f 84 00 00 	cs nopw 0x0(%rax,%rax,1)
  103fa5:	00 00 00 
  103fa8:	66 2e 0f 1f 84 00 00 	cs nopw 0x0(%rax,%rax,1)
  103faf:	00 00 00 
  103fb2:	66 2e 0f 1f 84 00 00 	cs nopw 0x0(%rax,%rax,1)
  103fb9:	00 00 00 
  103fbc:	66 2e 0f 1f 84 00 00 	cs nopw 0x0(%rax,%rax,1)
  103fc3:	00 00 00 
  103fc6:	66 2e 0f 1f 84 00 00 	cs nopw 0x0(%rax,%rax,1)
  103fcd:	00 00 00 
  103fd0:	66 2e 0f 1f 84 00 00 	cs nopw 0x0(%rax,%rax,1)
  103fd7:	00 00 00 
  103fda:	66 2e 0f 1f 84 00 00 	cs nopw 0x0(%rax,%rax,1)
  103fe1:	00 00 00 
  103fe4:	66 2e 0f 1f 84 00 00 	cs nopw 0x0(%rax,%rax,1)
  103feb:	00 00 00 
  103fee:	66 2e 0f 1f 84 00 00 	cs nopw 0x0(%rax,%rax,1)
  103ff5:	00 00 00 
  103ff8:	0f 1f 84 00 00 00 00 	nopl   0x0(%rax,%rax,1)
  103fff:	00 

0000000000104000 <tss>:
	...

0000000000104064 <gdtr>:
  104064:	35 00 6e 40 10       	xor    $0x10406e00,%eax
  104069:	00 00                	add    %al,(%rax)
  10406b:	00 00                	add    %al,(%rax)
	...

000000000010406e <gdt_start>:
	...

0000000000104076 <.krnlT_sd>:
  104076:	ff                   	(bad)
  104077:	ff 00                	incl   (%rax)
  104079:	00 00                	add    %al,(%rax)
  10407b:	9a                   	(bad)
  10407c:	af                   	scas   %es:(%rdi),%eax
	...

000000000010407e <.krnlD_sd>:
  10407e:	ff                   	(bad)
  10407f:	ff 00                	incl   (%rax)
  104081:	00 00                	add    %al,(%rax)
  104083:	92                   	xchg   %eax,%edx
  104084:	cf                   	iret
	...

0000000000104086 <.userT_sd>:
  104086:	ff                   	(bad)
  104087:	ff 00                	incl   (%rax)
  104089:	00 00                	add    %al,(%rax)
  10408b:	00 fa                	add    %bh,%dl
  10408d:	af                   	scas   %es:(%rdi),%eax
	...

000000000010408f <.userD_sd>:
  10408f:	ff                   	(bad)
  104090:	ff 00                	incl   (%rax)
  104092:	00 00                	add    %al,(%rax)
  104094:	00 f2                	add    %dh,%dl
  104096:	cf                   	iret
	...

0000000000104098 <.tss_sd>:
  104098:	64 00              	add    %al,%fs:(%rax)

000000000010409a <.tss_addr_w16>:
	...

000000000010409c <.tss_addr_b24>:
  10409c:	00 89 00       	add    %cl,0x0(%rcx)

000000000010409f <.tss_addr_b32>:
	...

00000000001040a0 <.tss_addr_i64>:
  1040a0:	00 00                	add    %al,(%rax)
	...

00000000001040a4 <eax_keep>:
	...

00000000001040ac <ebx_keep>:
	...
  1040b4:	66 2e 0f 1f 84 00 00 	cs nopw 0x0(%rax,%rax,1)
  1040bb:	00 00 00 
  1040be:	66 2e 0f 1f 84 00 00 	cs nopw 0x0(%rax,%rax,1)
  1040c5:	00 00 00 
  1040c8:	66 2e 0f 1f 84 00 00 	cs nopw 0x0(%rax,%rax,1)
  1040cf:	00 00 00 
  1040d2:	66 2e 0f 1f 84 00 00 	cs nopw 0x0(%rax,%rax,1)
  1040d9:	00 00 00 
  1040dc:	66 2e 0f 1f 84 00 00 	cs nopw 0x0(%rax,%rax,1)
  1040e3:	00 00 00 
  1040e6:	66 2e 0f 1f 84 00 00 	cs nopw 0x0(%rax,%rax,1)
  1040ed:	00 00 00 
  1040f0:	66 2e 0f 1f 84 00 00 	cs nopw 0x0(%rax,%rax,1)
  1040f7:	00 00 00 
  1040fa:	66 2e 0f 1f 84 00 00 	cs nopw 0x0(%rax,%rax,1)
  104101:	00 00 00 
  104104:	66 2e 0f 1f 84 00 00 	cs nopw 0x0(%rax,%rax,1)
  10410b:	00 00 00 
  10410e:	66 2e 0f 1f 84 00 00 	cs nopw 0x0(%rax,%rax,1)
  104115:	00 00 00 
  104118:	66 2e 0f 1f 84 00 00 	cs nopw 0x0(%rax,%rax,1)
  10411f:	00 00 00 
  104122:	66 2e 0f 1f 84 00 00 	cs nopw 0x0(%rax,%rax,1)
  104129:	00 00 00 
  10412c:	66 2e 0f 1f 84 00 00 	cs nopw 0x0(%rax,%rax,1)
  104133:	00 00 00 
  104136:	66 2e 0f 1f 84 00 00 	cs nopw 0x0(%rax,%rax,1)
  10413d:	00 00 00 
  104140:	66 2e 0f 1f 84 00 00 	cs nopw 0x0(%rax,%rax,1)
  104147:	00 00 00 
  10414a:	66 2e 0f 1f 84 00 00 	cs nopw 0x0(%rax,%rax,1)
  104151:	00 00 00 
  104154:	66 2e 0f 1f 84 00 00 	cs nopw 0x0(%rax,%rax,1)
  10415b:	00 00 00 
  10415e:	66 2e 0f 1f 84 00 00 	cs nopw 0x0(%rax,%rax,1)
  104165:	00 00 00 
  104168:	66 2e 0f 1f 84 00 00 	cs nopw 0x0(%rax,%rax,1)
  10416f:	00 00 00 
  104172:	66 2e 0f 1f 84 00 00 	cs nopw 0x0(%rax,%rax,1)
  104179:	00 00 00 
  10417c:	66 2e 0f 1f 84 00 00 	cs nopw 0x0(%rax,%rax,1)
  104183:	00 00 00 
  104186:	66 2e 0f 1f 84 00 00 	cs nopw 0x0(%rax,%rax,1)
  10418d:	00 00 00 
  104190:	66 2e 0f 1f 84 00 00 	cs nopw 0x0(%rax,%rax,1)
  104197:	00 00 00 
  10419a:	66 2e 0f 1f 84 00 00 	cs nopw 0x0(%rax,%rax,1)
  1041a1:	00 00 00 
  1041a4:	66 2e 0f 1f 84 00 00 	cs nopw 0x0(%rax,%rax,1)
  1041ab:	00 00 00 
  1041ae:	66 2e 0f 1f 84 00 00 	cs nopw 0x0(%rax,%rax,1)
  1041b5:	00 00 00 
  1041b8:	66 2e 0f 1f 84 00 00 	cs nopw 0x0(%rax,%rax,1)
  1041bf:	00 00 00 
  1041c2:	66 2e 0f 1f 84 00 00 	cs nopw 0x0(%rax,%rax,1)
  1041c9:	00 00 00 
  1041cc:	66 2e 0f 1f 84 00 00 	cs nopw 0x0(%rax,%rax,1)
  1041d3:	00 00 00 
  1041d6:	66 2e 0f 1f 84 00 00 	cs nopw 0x0(%rax,%rax,1)
  1041dd:	00 00 00 
  1041e0:	66 2e 0f 1f 84 00 00 	cs nopw 0x0(%rax,%rax,1)
  1041e7:	00 00 00 
  1041ea:	66 2e 0f 1f 84 00 00 	cs nopw 0x0(%rax,%rax,1)
  1041f1:	00 00 00 
  1041f4:	66 2e 0f 1f 84 00 00 	cs nopw 0x0(%rax,%rax,1)
  1041fb:	00 00 00 
  1041fe:	66 2e 0f 1f 84 00 00 	cs nopw 0x0(%rax,%rax,1)
  104205:	00 00 00 
  104208:	66 2e 0f 1f 84 00 00 	cs nopw 0x0(%rax,%rax,1)
  10420f:	00 00 00 
  104212:	66 2e 0f 1f 84 00 00 	cs nopw 0x0(%rax,%rax,1)
  104219:	00 00 00 
  10421c:	66 2e 0f 1f 84 00 00 	cs nopw 0x0(%rax,%rax,1)
  104223:	00 00 00 
  104226:	66 2e 0f 1f 84 00 00 	cs nopw 0x0(%rax,%rax,1)
  10422d:	00 00 00 
  104230:	66 2e 0f 1f 84 00 00 	cs nopw 0x0(%rax,%rax,1)
  104237:	00 00 00 
  10423a:	66 2e 0f 1f 84 00 00 	cs nopw 0x0(%rax,%rax,1)
  104241:	00 00 00 
  104244:	66 2e 0f 1f 84 00 00 	cs nopw 0x0(%rax,%rax,1)
  10424b:	00 00 00 
  10424e:	66 2e 0f 1f 84 00 00 	cs nopw 0x0(%rax,%rax,1)
  104255:	00 00 00 
  104258:	66 2e 0f 1f 84 00 00 	cs nopw 0x0(%rax,%rax,1)
  10425f:	00 00 00 
  104262:	66 2e 0f 1f 84 00 00 	cs nopw 0x0(%rax,%rax,1)
  104269:	00 00 00 
  10426c:	66 2e 0f 1f 84 00 00 	cs nopw 0x0(%rax,%rax,1)
  104273:	00 00 00 
  104276:	66 2e 0f 1f 84 00 00 	cs nopw 0x0(%rax,%rax,1)
  10427d:	00 00 00 
  104280:	66 2e 0f 1f 84 00 00 	cs nopw 0x0(%rax,%rax,1)
  104287:	00 00 00 
  10428a:	66 2e 0f 1f 84 00 00 	cs nopw 0x0(%rax,%rax,1)
  104291:	00 00 00 
  104294:	66 2e 0f 1f 84 00 00 	cs nopw 0x0(%rax,%rax,1)
  10429b:	00 00 00 
  10429e:	66 2e 0f 1f 84 00 00 	cs nopw 0x0(%rax,%rax,1)
  1042a5:	00 00 00 
  1042a8:	66 2e 0f 1f 84 00 00 	cs nopw 0x0(%rax,%rax,1)
  1042af:	00 00 00 
  1042b2:	66 2e 0f 1f 84 00 00 	cs nopw 0x0(%rax,%rax,1)
  1042b9:	00 00 00 
  1042bc:	66 2e 0f 1f 84 00 00 	cs nopw 0x0(%rax,%rax,1)
  1042c3:	00 00 00 
  1042c6:	66 2e 0f 1f 84 00 00 	cs nopw 0x0(%rax,%rax,1)
  1042cd:	00 00 00 
  1042d0:	66 2e 0f 1f 84 00 00 	cs nopw 0x0(%rax,%rax,1)
  1042d7:	00 00 00 
  1042da:	66 2e 0f 1f 84 00 00 	cs nopw 0x0(%rax,%rax,1)
  1042e1:	00 00 00 
  1042e4:	66 2e 0f 1f 84 00 00 	cs nopw 0x0(%rax,%rax,1)
  1042eb:	00 00 00 
  1042ee:	66 2e 0f 1f 84 00 00 	cs nopw 0x0(%rax,%rax,1)
  1042f5:	00 00 00 
  1042f8:	66 2e 0f 1f 84 00 00 	cs nopw 0x0(%rax,%rax,1)
  1042ff:	00 00 00 
  104302:	66 2e 0f 1f 84 00 00 	cs nopw 0x0(%rax,%rax,1)
  104309:	00 00 00 
  10430c:	66 2e 0f 1f 84 00 00 	cs nopw 0x0(%rax,%rax,1)
  104313:	00 00 00 
  104316:	66 2e 0f 1f 84 00 00 	cs nopw 0x0(%rax,%rax,1)
  10431d:	00 00 00 
  104320:	66 2e 0f 1f 84 00 00 	cs nopw 0x0(%rax,%rax,1)
  104327:	00 00 00 
  10432a:	66 2e 0f 1f 84 00 00 	cs nopw 0x0(%rax,%rax,1)
  104331:	00 00 00 
  104334:	66 2e 0f 1f 84 00 00 	cs nopw 0x0(%rax,%rax,1)
  10433b:	00 00 00 
  10433e:	66 2e 0f 1f 84 00 00 	cs nopw 0x0(%rax,%rax,1)
  104345:	00 00 00 
  104348:	66 2e 0f 1f 84 00 00 	cs nopw 0x0(%rax,%rax,1)
  10434f:	00 00 00 
  104352:	66 2e 0f 1f 84 00 00 	cs nopw 0x0(%rax,%rax,1)
  104359:	00 00 00 
  10435c:	66 2e 0f 1f 84 00 00 	cs nopw 0x0(%rax,%rax,1)
  104363:	00 00 00 
  104366:	66 2e 0f 1f 84 00 00 	cs nopw 0x0(%rax,%rax,1)
  10436d:	00 00 00 
  104370:	66 2e 0f 1f 84 00 00 	cs nopw 0x0(%rax,%rax,1)
  104377:	00 00 00 
  10437a:	66 2e 0f 1f 84 00 00 	cs nopw 0x0(%rax,%rax,1)
  104381:	00 00 00 
  104384:	66 2e 0f 1f 84 00 00 	cs nopw 0x0(%rax,%rax,1)
  10438b:	00 00 00 
  10438e:	66 2e 0f 1f 84 00 00 	cs nopw 0x0(%rax,%rax,1)
  104395:	00 00 00 
  104398:	66 2e 0f 1f 84 00 00 	cs nopw 0x0(%rax,%rax,1)
  10439f:	00 00 00 
  1043a2:	66 2e 0f 1f 84 00 00 	cs nopw 0x0(%rax,%rax,1)
  1043a9:	00 00 00 
  1043ac:	66 2e 0f 1f 84 00 00 	cs nopw 0x0(%rax,%rax,1)
  1043b3:	00 00 00 
  1043b6:	66 2e 0f 1f 84 00 00 	cs nopw 0x0(%rax,%rax,1)
  1043bd:	00 00 00 
  1043c0:	66 2e 0f 1f 84 00 00 	cs nopw 0x0(%rax,%rax,1)
  1043c7:	00 00 00 
  1043ca:	66 2e 0f 1f 84 00 00 	cs nopw 0x0(%rax,%rax,1)
  1043d1:	00 00 00 
  1043d4:	66 2e 0f 1f 84 00 00 	cs nopw 0x0(%rax,%rax,1)
  1043db:	00 00 00 
  1043de:	66 2e 0f 1f 84 00 00 	cs nopw 0x0(%rax,%rax,1)
  1043e5:	00 00 00 
  1043e8:	66 2e 0f 1f 84 00 00 	cs nopw 0x0(%rax,%rax,1)
  1043ef:	00 00 00 
  1043f2:	66 2e 0f 1f 84 00 00 	cs nopw 0x0(%rax,%rax,1)
  1043f9:	00 00 00 
  1043fc:	66 2e 0f 1f 84 00 00 	cs nopw 0x0(%rax,%rax,1)
  104403:	00 00 00 
  104406:	66 2e 0f 1f 84 00 00 	cs nopw 0x0(%rax,%rax,1)
  10440d:	00 00 00 
  104410:	66 2e 0f 1f 84 00 00 	cs nopw 0x0(%rax,%rax,1)
  104417:	00 00 00 
  10441a:	66 2e 0f 1f 84 00 00 	cs nopw 0x0(%rax,%rax,1)
  104421:	00 00 00 
  104424:	66 2e 0f 1f 84 00 00 	cs nopw 0x0(%rax,%rax,1)
  10442b:	00 00 00 
  10442e:	66 2e 0f 1f 84 00 00 	cs nopw 0x0(%rax,%rax,1)
  104435:	00 00 00 
  104438:	66 2e 0f 1f 84 00 00 	cs nopw 0x0(%rax,%rax,1)
  10443f:	00 00 00 
  104442:	66 2e 0f 1f 84 00 00 	cs nopw 0x0(%rax,%rax,1)
  104449:	00 00 00 
  10444c:	66 2e 0f 1f 84 00 00 	cs nopw 0x0(%rax,%rax,1)
  104453:	00 00 00 
  104456:	66 2e 0f 1f 84 00 00 	cs nopw 0x0(%rax,%rax,1)
  10445d:	00 00 00 
  104460:	66 2e 0f 1f 84 00 00 	cs nopw 0x0(%rax,%rax,1)
  104467:	00 00 00 
  10446a:	66 2e 0f 1f 84 00 00 	cs nopw 0x0(%rax,%rax,1)
  104471:	00 00 00 
  104474:	66 2e 0f 1f 84 00 00 	cs nopw 0x0(%rax,%rax,1)
  10447b:	00 00 00 
  10447e:	66 2e 0f 1f 84 00 00 	cs nopw 0x0(%rax,%rax,1)
  104485:	00 00 00 
  104488:	66 2e 0f 1f 84 00 00 	cs nopw 0x0(%rax,%rax,1)
  10448f:	00 00 00 
  104492:	66 2e 0f 1f 84 00 00 	cs nopw 0x0(%rax,%rax,1)
  104499:	00 00 00 
  10449c:	66 2e 0f 1f 84 00 00 	cs nopw 0x0(%rax,%rax,1)
  1044a3:	00 00 00 
  1044a6:	66 2e 0f 1f 84 00 00 	cs nopw 0x0(%rax,%rax,1)
  1044ad:	00 00 00 
  1044b0:	66 2e 0f 1f 84 00 00 	cs nopw 0x0(%rax,%rax,1)
  1044b7:	00 00 00 
  1044ba:	66 2e 0f 1f 84 00 00 	cs nopw 0x0(%rax,%rax,1)
  1044c1:	00 00 00 
  1044c4:	66 2e 0f 1f 84 00 00 	cs nopw 0x0(%rax,%rax,1)
  1044cb:	00 00 00 
  1044ce:	66 2e 0f 1f 84 00 00 	cs nopw 0x0(%rax,%rax,1)
  1044d5:	00 00 00 
  1044d8:	66 2e 0f 1f 84 00 00 	cs nopw 0x0(%rax,%rax,1)
  1044df:	00 00 00 
  1044e2:	66 2e 0f 1f 84 00 00 	cs nopw 0x0(%rax,%rax,1)
  1044e9:	00 00 00 
  1044ec:	66 2e 0f 1f 84 00 00 	cs nopw 0x0(%rax,%rax,1)
  1044f3:	00 00 00 
  1044f6:	66 2e 0f 1f 84 00 00 	cs nopw 0x0(%rax,%rax,1)
  1044fd:	00 00 00 
  104500:	66 2e 0f 1f 84 00 00 	cs nopw 0x0(%rax,%rax,1)
  104507:	00 00 00 
  10450a:	66 2e 0f 1f 84 00 00 	cs nopw 0x0(%rax,%rax,1)
  104511:	00 00 00 
  104514:	66 2e 0f 1f 84 00 00 	cs nopw 0x0(%rax,%rax,1)
  10451b:	00 00 00 
  10451e:	66 2e 0f 1f 84 00 00 	cs nopw 0x0(%rax,%rax,1)
  104525:	00 00 00 
  104528:	66 2e 0f 1f 84 00 00 	cs nopw 0x0(%rax,%rax,1)
  10452f:	00 00 00 
  104532:	66 2e 0f 1f 84 00 00 	cs nopw 0x0(%rax,%rax,1)
  104539:	00 00 00 
  10453c:	66 2e 0f 1f 84 00 00 	cs nopw 0x0(%rax,%rax,1)
  104543:	00 00 00 
  104546:	66 2e 0f 1f 84 00 00 	cs nopw 0x0(%rax,%rax,1)
  10454d:	00 00 00 
  104550:	66 2e 0f 1f 84 00 00 	cs nopw 0x0(%rax,%rax,1)
  104557:	00 00 00 
  10455a:	66 2e 0f 1f 84 00 00 	cs nopw 0x0(%rax,%rax,1)
  104561:	00 00 00 
  104564:	66 2e 0f 1f 84 00 00 	cs nopw 0x0(%rax,%rax,1)
  10456b:	00 00 00 
  10456e:	66 2e 0f 1f 84 00 00 	cs nopw 0x0(%rax,%rax,1)
  104575:	00 00 00 
  104578:	66 2e 0f 1f 84 00 00 	cs nopw 0x0(%rax,%rax,1)
  10457f:	00 00 00 
  104582:	66 2e 0f 1f 84 00 00 	cs nopw 0x0(%rax,%rax,1)
  104589:	00 00 00 
  10458c:	66 2e 0f 1f 84 00 00 	cs nopw 0x0(%rax,%rax,1)
  104593:	00 00 00 
  104596:	66 2e 0f 1f 84 00 00 	cs nopw 0x0(%rax,%rax,1)
  10459d:	00 00 00 
  1045a0:	66 2e 0f 1f 84 00 00 	cs nopw 0x0(%rax,%rax,1)
  1045a7:	00 00 00 
  1045aa:	66 2e 0f 1f 84 00 00 	cs nopw 0x0(%rax,%rax,1)
  1045b1:	00 00 00 
  1045b4:	66 2e 0f 1f 84 00 00 	cs nopw 0x0(%rax,%rax,1)
  1045bb:	00 00 00 
  1045be:	66 2e 0f 1f 84 00 00 	cs nopw 0x0(%rax,%rax,1)
  1045c5:	00 00 00 
  1045c8:	66 2e 0f 1f 84 00 00 	cs nopw 0x0(%rax,%rax,1)
  1045cf:	00 00 00 
  1045d2:	66 2e 0f 1f 84 00 00 	cs nopw 0x0(%rax,%rax,1)
  1045d9:	00 00 00 
  1045dc:	66 2e 0f 1f 84 00 00 	cs nopw 0x0(%rax,%rax,1)
  1045e3:	00 00 00 
  1045e6:	66 2e 0f 1f 84 00 00 	cs nopw 0x0(%rax,%rax,1)
  1045ed:	00 00 00 
  1045f0:	66 2e 0f 1f 84 00 00 	cs nopw 0x0(%rax,%rax,1)
  1045f7:	00 00 00 
  1045fa:	66 2e 0f 1f 84 00 00 	cs nopw 0x0(%rax,%rax,1)
  104601:	00 00 00 
  104604:	66 2e 0f 1f 84 00 00 	cs nopw 0x0(%rax,%rax,1)
  10460b:	00 00 00 
  10460e:	66 2e 0f 1f 84 00 00 	cs nopw 0x0(%rax,%rax,1)
  104615:	00 00 00 
  104618:	66 2e 0f 1f 84 00 00 	cs nopw 0x0(%rax,%rax,1)
  10461f:	00 00 00 
  104622:	66 2e 0f 1f 84 00 00 	cs nopw 0x0(%rax,%rax,1)
  104629:	00 00 00 
  10462c:	66 2e 0f 1f 84 00 00 	cs nopw 0x0(%rax,%rax,1)
  104633:	00 00 00 
  104636:	66 2e 0f 1f 84 00 00 	cs nopw 0x0(%rax,%rax,1)
  10463d:	00 00 00 
  104640:	66 2e 0f 1f 84 00 00 	cs nopw 0x0(%rax,%rax,1)
  104647:	00 00 00 
  10464a:	66 2e 0f 1f 84 00 00 	cs nopw 0x0(%rax,%rax,1)
  104651:	00 00 00 
  104654:	66 2e 0f 1f 84 00 00 	cs nopw 0x0(%rax,%rax,1)
  10465b:	00 00 00 
  10465e:	66 2e 0f 1f 84 00 00 	cs nopw 0x0(%rax,%rax,1)
  104665:	00 00 00 
  104668:	66 2e 0f 1f 84 00 00 	cs nopw 0x0(%rax,%rax,1)
  10466f:	00 00 00 
  104672:	66 2e 0f 1f 84 00 00 	cs nopw 0x0(%rax,%rax,1)
  104679:	00 00 00 
  10467c:	66 2e 0f 1f 84 00 00 	cs nopw 0x0(%rax,%rax,1)
  104683:	00 00 00 
  104686:	66 2e 0f 1f 84 00 00 	cs nopw 0x0(%rax,%rax,1)
  10468d:	00 00 00 
  104690:	66 2e 0f 1f 84 00 00 	cs nopw 0x0(%rax,%rax,1)
  104697:	00 00 00 
  10469a:	66 2e 0f 1f 84 00 00 	cs nopw 0x0(%rax,%rax,1)
  1046a1:	00 00 00 
  1046a4:	66 2e 0f 1f 84 00 00 	cs nopw 0x0(%rax,%rax,1)
  1046ab:	00 00 00 
  1046ae:	66 2e 0f 1f 84 00 00 	cs nopw 0x0(%rax,%rax,1)
  1046b5:	00 00 00 
  1046b8:	66 2e 0f 1f 84 00 00 	cs nopw 0x0(%rax,%rax,1)
  1046bf:	00 00 00 
  1046c2:	66 2e 0f 1f 84 00 00 	cs nopw 0x0(%rax,%rax,1)
  1046c9:	00 00 00 
  1046cc:	66 2e 0f 1f 84 00 00 	cs nopw 0x0(%rax,%rax,1)
  1046d3:	00 00 00 
  1046d6:	66 2e 0f 1f 84 00 00 	cs nopw 0x0(%rax,%rax,1)
  1046dd:	00 00 00 
  1046e0:	66 2e 0f 1f 84 00 00 	cs nopw 0x0(%rax,%rax,1)
  1046e7:	00 00 00 
  1046ea:	66 2e 0f 1f 84 00 00 	cs nopw 0x0(%rax,%rax,1)
  1046f1:	00 00 00 
  1046f4:	66 2e 0f 1f 84 00 00 	cs nopw 0x0(%rax,%rax,1)
  1046fb:	00 00 00 
  1046fe:	66 2e 0f 1f 84 00 00 	cs nopw 0x0(%rax,%rax,1)
  104705:	00 00 00 
  104708:	66 2e 0f 1f 84 00 00 	cs nopw 0x0(%rax,%rax,1)
  10470f:	00 00 00 
  104712:	66 2e 0f 1f 84 00 00 	cs nopw 0x0(%rax,%rax,1)
  104719:	00 00 00 
  10471c:	66 2e 0f 1f 84 00 00 	cs nopw 0x0(%rax,%rax,1)
  104723:	00 00 00 
  104726:	66 2e 0f 1f 84 00 00 	cs nopw 0x0(%rax,%rax,1)
  10472d:	00 00 00 
  104730:	66 2e 0f 1f 84 00 00 	cs nopw 0x0(%rax,%rax,1)
  104737:	00 00 00 
  10473a:	66 2e 0f 1f 84 00 00 	cs nopw 0x0(%rax,%rax,1)
  104741:	00 00 00 
  104744:	66 2e 0f 1f 84 00 00 	cs nopw 0x0(%rax,%rax,1)
  10474b:	00 00 00 
  10474e:	66 2e 0f 1f 84 00 00 	cs nopw 0x0(%rax,%rax,1)
  104755:	00 00 00 
  104758:	66 2e 0f 1f 84 00 00 	cs nopw 0x0(%rax,%rax,1)
  10475f:	00 00 00 
  104762:	66 2e 0f 1f 84 00 00 	cs nopw 0x0(%rax,%rax,1)
  104769:	00 00 00 
  10476c:	66 2e 0f 1f 84 00 00 	cs nopw 0x0(%rax,%rax,1)
  104773:	00 00 00 
  104776:	66 2e 0f 1f 84 00 00 	cs nopw 0x0(%rax,%rax,1)
  10477d:	00 00 00 
  104780:	66 2e 0f 1f 84 00 00 	cs nopw 0x0(%rax,%rax,1)
  104787:	00 00 00 
  10478a:	66 2e 0f 1f 84 00 00 	cs nopw 0x0(%rax,%rax,1)
  104791:	00 00 00 
  104794:	66 2e 0f 1f 84 00 00 	cs nopw 0x0(%rax,%rax,1)
  10479b:	00 00 00 
  10479e:	66 2e 0f 1f 84 00 00 	cs nopw 0x0(%rax,%rax,1)
  1047a5:	00 00 00 
  1047a8:	66 2e 0f 1f 84 00 00 	cs nopw 0x0(%rax,%rax,1)
  1047af:	00 00 00 
  1047b2:	66 2e 0f 1f 84 00 00 	cs nopw 0x0(%rax,%rax,1)
  1047b9:	00 00 00 
  1047bc:	66 2e 0f 1f 84 00 00 	cs nopw 0x0(%rax,%rax,1)
  1047c3:	00 00 00 
  1047c6:	66 2e 0f 1f 84 00 00 	cs nopw 0x0(%rax,%rax,1)
  1047cd:	00 00 00 
  1047d0:	66 2e 0f 1f 84 00 00 	cs nopw 0x0(%rax,%rax,1)
  1047d7:	00 00 00 
  1047da:	66 2e 0f 1f 84 00 00 	cs nopw 0x0(%rax,%rax,1)
  1047e1:	00 00 00 
  1047e4:	66 2e 0f 1f 84 00 00 	cs nopw 0x0(%rax,%rax,1)
  1047eb:	00 00 00 
  1047ee:	66 2e 0f 1f 84 00 00 	cs nopw 0x0(%rax,%rax,1)
  1047f5:	00 00 00 
  1047f8:	66 2e 0f 1f 84 00 00 	cs nopw 0x0(%rax,%rax,1)
  1047ff:	00 00 00 
  104802:	66 2e 0f 1f 84 00 00 	cs nopw 0x0(%rax,%rax,1)
  104809:	00 00 00 
  10480c:	66 2e 0f 1f 84 00 00 	cs nopw 0x0(%rax,%rax,1)
  104813:	00 00 00 
  104816:	66 2e 0f 1f 84 00 00 	cs nopw 0x0(%rax,%rax,1)
  10481d:	00 00 00 
  104820:	66 2e 0f 1f 84 00 00 	cs nopw 0x0(%rax,%rax,1)
  104827:	00 00 00 
  10482a:	66 2e 0f 1f 84 00 00 	cs nopw 0x0(%rax,%rax,1)
  104831:	00 00 00 
  104834:	66 2e 0f 1f 84 00 00 	cs nopw 0x0(%rax,%rax,1)
  10483b:	00 00 00 
  10483e:	66 2e 0f 1f 84 00 00 	cs nopw 0x0(%rax,%rax,1)
  104845:	00 00 00 
  104848:	66 2e 0f 1f 84 00 00 	cs nopw 0x0(%rax,%rax,1)
  10484f:	00 00 00 
  104852:	66 2e 0f 1f 84 00 00 	cs nopw 0x0(%rax,%rax,1)
  104859:	00 00 00 
  10485c:	66 2e 0f 1f 84 00 00 	cs nopw 0x0(%rax,%rax,1)
  104863:	00 00 00 
  104866:	66 2e 0f 1f 84 00 00 	cs nopw 0x0(%rax,%rax,1)
  10486d:	00 00 00 
  104870:	66 2e 0f 1f 84 00 00 	cs nopw 0x0(%rax,%rax,1)
  104877:	00 00 00 
  10487a:	66 2e 0f 1f 84 00 00 	cs nopw 0x0(%rax,%rax,1)
  104881:	00 00 00 
  104884:	66 2e 0f 1f 84 00 00 	cs nopw 0x0(%rax,%rax,1)
  10488b:	00 00 00 
  10488e:	66 2e 0f 1f 84 00 00 	cs nopw 0x0(%rax,%rax,1)
  104895:	00 00 00 
  104898:	66 2e 0f 1f 84 00 00 	cs nopw 0x0(%rax,%rax,1)
  10489f:	00 00 00 
  1048a2:	66 2e 0f 1f 84 00 00 	cs nopw 0x0(%rax,%rax,1)
  1048a9:	00 00 00 
  1048ac:	66 2e 0f 1f 84 00 00 	cs nopw 0x0(%rax,%rax,1)
  1048b3:	00 00 00 
  1048b6:	66 2e 0f 1f 84 00 00 	cs nopw 0x0(%rax,%rax,1)
  1048bd:	00 00 00 
  1048c0:	66 2e 0f 1f 84 00 00 	cs nopw 0x0(%rax,%rax,1)
  1048c7:	00 00 00 
  1048ca:	66 2e 0f 1f 84 00 00 	cs nopw 0x0(%rax,%rax,1)
  1048d1:	00 00 00 
  1048d4:	66 2e 0f 1f 84 00 00 	cs nopw 0x0(%rax,%rax,1)
  1048db:	00 00 00 
  1048de:	66 2e 0f 1f 84 00 00 	cs nopw 0x0(%rax,%rax,1)
  1048e5:	00 00 00 
  1048e8:	66 2e 0f 1f 84 00 00 	cs nopw 0x0(%rax,%rax,1)
  1048ef:	00 00 00 
  1048f2:	66 2e 0f 1f 84 00 00 	cs nopw 0x0(%rax,%rax,1)
  1048f9:	00 00 00 
  1048fc:	66 2e 0f 1f 84 00 00 	cs nopw 0x0(%rax,%rax,1)
  104903:	00 00 00 
  104906:	66 2e 0f 1f 84 00 00 	cs nopw 0x0(%rax,%rax,1)
  10490d:	00 00 00 
  104910:	66 2e 0f 1f 84 00 00 	cs nopw 0x0(%rax,%rax,1)
  104917:	00 00 00 
  10491a:	66 2e 0f 1f 84 00 00 	cs nopw 0x0(%rax,%rax,1)
  104921:	00 00 00 
  104924:	66 2e 0f 1f 84 00 00 	cs nopw 0x0(%rax,%rax,1)
  10492b:	00 00 00 
  10492e:	66 2e 0f 1f 84 00 00 	cs nopw 0x0(%rax,%rax,1)
  104935:	00 00 00 
  104938:	66 2e 0f 1f 84 00 00 	cs nopw 0x0(%rax,%rax,1)
  10493f:	00 00 00 
  104942:	66 2e 0f 1f 84 00 00 	cs nopw 0x0(%rax,%rax,1)
  104949:	00 00 00 
  10494c:	66 2e 0f 1f 84 00 00 	cs nopw 0x0(%rax,%rax,1)
  104953:	00 00 00 
  104956:	66 2e 0f 1f 84 00 00 	cs nopw 0x0(%rax,%rax,1)
  10495d:	00 00 00 
  104960:	66 2e 0f 1f 84 00 00 	cs nopw 0x0(%rax,%rax,1)
  104967:	00 00 00 
  10496a:	66 2e 0f 1f 84 00 00 	cs nopw 0x0(%rax,%rax,1)
  104971:	00 00 00 
  104974:	66 2e 0f 1f 84 00 00 	cs nopw 0x0(%rax,%rax,1)
  10497b:	00 00 00 
  10497e:	66 2e 0f 1f 84 00 00 	cs nopw 0x0(%rax,%rax,1)
  104985:	00 00 00 
  104988:	66 2e 0f 1f 84 00 00 	cs nopw 0x0(%rax,%rax,1)
  10498f:	00 00 00 
  104992:	66 2e 0f 1f 84 00 00 	cs nopw 0x0(%rax,%rax,1)
  104999:	00 00 00 
  10499c:	66 2e 0f 1f 84 00 00 	cs nopw 0x0(%rax,%rax,1)
  1049a3:	00 00 00 
  1049a6:	66 2e 0f 1f 84 00 00 	cs nopw 0x0(%rax,%rax,1)
  1049ad:	00 00 00 
  1049b0:	66 2e 0f 1f 84 00 00 	cs nopw 0x0(%rax,%rax,1)
  1049b7:	00 00 00 
  1049ba:	66 2e 0f 1f 84 00 00 	cs nopw 0x0(%rax,%rax,1)
  1049c1:	00 00 00 
  1049c4:	66 2e 0f 1f 84 00 00 	cs nopw 0x0(%rax,%rax,1)
  1049cb:	00 00 00 
  1049ce:	66 2e 0f 1f 84 00 00 	cs nopw 0x0(%rax,%rax,1)
  1049d5:	00 00 00 
  1049d8:	66 2e 0f 1f 84 00 00 	cs nopw 0x0(%rax,%rax,1)
  1049df:	00 00 00 
  1049e2:	66 2e 0f 1f 84 00 00 	cs nopw 0x0(%rax,%rax,1)
  1049e9:	00 00 00 
  1049ec:	66 2e 0f 1f 84 00 00 	cs nopw 0x0(%rax,%rax,1)
  1049f3:	00 00 00 
  1049f6:	66 2e 0f 1f 84 00 00 	cs nopw 0x0(%rax,%rax,1)
  1049fd:	00 00 00 
  104a00:	66 2e 0f 1f 84 00 00 	cs nopw 0x0(%rax,%rax,1)
  104a07:	00 00 00 
  104a0a:	66 2e 0f 1f 84 00 00 	cs nopw 0x0(%rax,%rax,1)
  104a11:	00 00 00 
  104a14:	66 2e 0f 1f 84 00 00 	cs nopw 0x0(%rax,%rax,1)
  104a1b:	00 00 00 
  104a1e:	66 2e 0f 1f 84 00 00 	cs nopw 0x0(%rax,%rax,1)
  104a25:	00 00 00 
  104a28:	66 2e 0f 1f 84 00 00 	cs nopw 0x0(%rax,%rax,1)
  104a2f:	00 00 00 
  104a32:	66 2e 0f 1f 84 00 00 	cs nopw 0x0(%rax,%rax,1)
  104a39:	00 00 00 
  104a3c:	66 2e 0f 1f 84 00 00 	cs nopw 0x0(%rax,%rax,1)
  104a43:	00 00 00 
  104a46:	66 2e 0f 1f 84 00 00 	cs nopw 0x0(%rax,%rax,1)
  104a4d:	00 00 00 
  104a50:	66 2e 0f 1f 84 00 00 	cs nopw 0x0(%rax,%rax,1)
  104a57:	00 00 00 
  104a5a:	66 2e 0f 1f 84 00 00 	cs nopw 0x0(%rax,%rax,1)
  104a61:	00 00 00 
  104a64:	66 2e 0f 1f 84 00 00 	cs nopw 0x0(%rax,%rax,1)
  104a6b:	00 00 00 
  104a6e:	66 2e 0f 1f 84 00 00 	cs nopw 0x0(%rax,%rax,1)
  104a75:	00 00 00 
  104a78:	66 2e 0f 1f 84 00 00 	cs nopw 0x0(%rax,%rax,1)
  104a7f:	00 00 00 
  104a82:	66 2e 0f 1f 84 00 00 	cs nopw 0x0(%rax,%rax,1)
  104a89:	00 00 00 
  104a8c:	66 2e 0f 1f 84 00 00 	cs nopw 0x0(%rax,%rax,1)
  104a93:	00 00 00 
  104a96:	66 2e 0f 1f 84 00 00 	cs nopw 0x0(%rax,%rax,1)
  104a9d:	00 00 00 
  104aa0:	66 2e 0f 1f 84 00 00 	cs nopw 0x0(%rax,%rax,1)
  104aa7:	00 00 00 
  104aaa:	66 2e 0f 1f 84 00 00 	cs nopw 0x0(%rax,%rax,1)
  104ab1:	00 00 00 
  104ab4:	66 2e 0f 1f 84 00 00 	cs nopw 0x0(%rax,%rax,1)
  104abb:	00 00 00 
  104abe:	66 2e 0f 1f 84 00 00 	cs nopw 0x0(%rax,%rax,1)
  104ac5:	00 00 00 
  104ac8:	66 2e 0f 1f 84 00 00 	cs nopw 0x0(%rax,%rax,1)
  104acf:	00 00 00 
  104ad2:	66 2e 0f 1f 84 00 00 	cs nopw 0x0(%rax,%rax,1)
  104ad9:	00 00 00 
  104adc:	66 2e 0f 1f 84 00 00 	cs nopw 0x0(%rax,%rax,1)
  104ae3:	00 00 00 
  104ae6:	66 2e 0f 1f 84 00 00 	cs nopw 0x0(%rax,%rax,1)
  104aed:	00 00 00 
  104af0:	66 2e 0f 1f 84 00 00 	cs nopw 0x0(%rax,%rax,1)
  104af7:	00 00 00 
  104afa:	66 2e 0f 1f 84 00 00 	cs nopw 0x0(%rax,%rax,1)
  104b01:	00 00 00 
  104b04:	66 2e 0f 1f 84 00 00 	cs nopw 0x0(%rax,%rax,1)
  104b0b:	00 00 00 
  104b0e:	66 2e 0f 1f 84 00 00 	cs nopw 0x0(%rax,%rax,1)
  104b15:	00 00 00 
  104b18:	66 2e 0f 1f 84 00 00 	cs nopw 0x0(%rax,%rax,1)
  104b1f:	00 00 00 
  104b22:	66 2e 0f 1f 84 00 00 	cs nopw 0x0(%rax,%rax,1)
  104b29:	00 00 00 
  104b2c:	66 2e 0f 1f 84 00 00 	cs nopw 0x0(%rax,%rax,1)
  104b33:	00 00 00 
  104b36:	66 2e 0f 1f 84 00 00 	cs nopw 0x0(%rax,%rax,1)
  104b3d:	00 00 00 
  104b40:	66 2e 0f 1f 84 00 00 	cs nopw 0x0(%rax,%rax,1)
  104b47:	00 00 00 
  104b4a:	66 2e 0f 1f 84 00 00 	cs nopw 0x0(%rax,%rax,1)
  104b51:	00 00 00 
  104b54:	66 2e 0f 1f 84 00 00 	cs nopw 0x0(%rax,%rax,1)
  104b5b:	00 00 00 
  104b5e:	66 2e 0f 1f 84 00 00 	cs nopw 0x0(%rax,%rax,1)
  104b65:	00 00 00 
  104b68:	66 2e 0f 1f 84 00 00 	cs nopw 0x0(%rax,%rax,1)
  104b6f:	00 00 00 
  104b72:	66 2e 0f 1f 84 00 00 	cs nopw 0x0(%rax,%rax,1)
  104b79:	00 00 00 
  104b7c:	66 2e 0f 1f 84 00 00 	cs nopw 0x0(%rax,%rax,1)
  104b83:	00 00 00 
  104b86:	66 2e 0f 1f 84 00 00 	cs nopw 0x0(%rax,%rax,1)
  104b8d:	00 00 00 
  104b90:	66 2e 0f 1f 84 00 00 	cs nopw 0x0(%rax,%rax,1)
  104b97:	00 00 00 
  104b9a:	66 2e 0f 1f 84 00 00 	cs nopw 0x0(%rax,%rax,1)
  104ba1:	00 00 00 
  104ba4:	66 2e 0f 1f 84 00 00 	cs nopw 0x0(%rax,%rax,1)
  104bab:	00 00 00 
  104bae:	66 2e 0f 1f 84 00 00 	cs nopw 0x0(%rax,%rax,1)
  104bb5:	00 00 00 
  104bb8:	66 2e 0f 1f 84 00 00 	cs nopw 0x0(%rax,%rax,1)
  104bbf:	00 00 00 
  104bc2:	66 2e 0f 1f 84 00 00 	cs nopw 0x0(%rax,%rax,1)
  104bc9:	00 00 00 
  104bcc:	66 2e 0f 1f 84 00 00 	cs nopw 0x0(%rax,%rax,1)
  104bd3:	00 00 00 
  104bd6:	66 2e 0f 1f 84 00 00 	cs nopw 0x0(%rax,%rax,1)
  104bdd:	00 00 00 
  104be0:	66 2e 0f 1f 84 00 00 	cs nopw 0x0(%rax,%rax,1)
  104be7:	00 00 00 
  104bea:	66 2e 0f 1f 84 00 00 	cs nopw 0x0(%rax,%rax,1)
  104bf1:	00 00 00 
  104bf4:	66 2e 0f 1f 84 00 00 	cs nopw 0x0(%rax,%rax,1)
  104bfb:	00 00 00 
  104bfe:	66 2e 0f 1f 84 00 00 	cs nopw 0x0(%rax,%rax,1)
  104c05:	00 00 00 
  104c08:	66 2e 0f 1f 84 00 00 	cs nopw 0x0(%rax,%rax,1)
  104c0f:	00 00 00 
  104c12:	66 2e 0f 1f 84 00 00 	cs nopw 0x0(%rax,%rax,1)
  104c19:	00 00 00 
  104c1c:	66 2e 0f 1f 84 00 00 	cs nopw 0x0(%rax,%rax,1)
  104c23:	00 00 00 
  104c26:	66 2e 0f 1f 84 00 00 	cs nopw 0x0(%rax,%rax,1)
  104c2d:	00 00 00 
  104c30:	66 2e 0f 1f 84 00 00 	cs nopw 0x0(%rax,%rax,1)
  104c37:	00 00 00 
  104c3a:	66 2e 0f 1f 84 00 00 	cs nopw 0x0(%rax,%rax,1)
  104c41:	00 00 00 
  104c44:	66 2e 0f 1f 84 00 00 	cs nopw 0x0(%rax,%rax,1)
  104c4b:	00 00 00 
  104c4e:	66 2e 0f 1f 84 00 00 	cs nopw 0x0(%rax,%rax,1)
  104c55:	00 00 00 
  104c58:	66 2e 0f 1f 84 00 00 	cs nopw 0x0(%rax,%rax,1)
  104c5f:	00 00 00 
  104c62:	66 2e 0f 1f 84 00 00 	cs nopw 0x0(%rax,%rax,1)
  104c69:	00 00 00 
  104c6c:	66 2e 0f 1f 84 00 00 	cs nopw 0x0(%rax,%rax,1)
  104c73:	00 00 00 
  104c76:	66 2e 0f 1f 84 00 00 	cs nopw 0x0(%rax,%rax,1)
  104c7d:	00 00 00 
  104c80:	66 2e 0f 1f 84 00 00 	cs nopw 0x0(%rax,%rax,1)
  104c87:	00 00 00 
  104c8a:	66 2e 0f 1f 84 00 00 	cs nopw 0x0(%rax,%rax,1)
  104c91:	00 00 00 
  104c94:	66 2e 0f 1f 84 00 00 	cs nopw 0x0(%rax,%rax,1)
  104c9b:	00 00 00 
  104c9e:	66 2e 0f 1f 84 00 00 	cs nopw 0x0(%rax,%rax,1)
  104ca5:	00 00 00 
  104ca8:	66 2e 0f 1f 84 00 00 	cs nopw 0x0(%rax,%rax,1)
  104caf:	00 00 00 
  104cb2:	66 2e 0f 1f 84 00 00 	cs nopw 0x0(%rax,%rax,1)
  104cb9:	00 00 00 
  104cbc:	66 2e 0f 1f 84 00 00 	cs nopw 0x0(%rax,%rax,1)
  104cc3:	00 00 00 
  104cc6:	66 2e 0f 1f 84 00 00 	cs nopw 0x0(%rax,%rax,1)
  104ccd:	00 00 00 
  104cd0:	66 2e 0f 1f 84 00 00 	cs nopw 0x0(%rax,%rax,1)
  104cd7:	00 00 00 
  104cda:	66 2e 0f 1f 84 00 00 	cs nopw 0x0(%rax,%rax,1)
  104ce1:	00 00 00 
  104ce4:	66 2e 0f 1f 84 00 00 	cs nopw 0x0(%rax,%rax,1)
  104ceb:	00 00 00 
  104cee:	66 2e 0f 1f 84 00 00 	cs nopw 0x0(%rax,%rax,1)
  104cf5:	00 00 00 
  104cf8:	66 2e 0f 1f 84 00 00 	cs nopw 0x0(%rax,%rax,1)
  104cff:	00 00 00 
  104d02:	66 2e 0f 1f 84 00 00 	cs nopw 0x0(%rax,%rax,1)
  104d09:	00 00 00 
  104d0c:	66 2e 0f 1f 84 00 00 	cs nopw 0x0(%rax,%rax,1)
  104d13:	00 00 00 
  104d16:	66 2e 0f 1f 84 00 00 	cs nopw 0x0(%rax,%rax,1)
  104d1d:	00 00 00 
  104d20:	66 2e 0f 1f 84 00 00 	cs nopw 0x0(%rax,%rax,1)
  104d27:	00 00 00 
  104d2a:	66 2e 0f 1f 84 00 00 	cs nopw 0x0(%rax,%rax,1)
  104d31:	00 00 00 
  104d34:	66 2e 0f 1f 84 00 00 	cs nopw 0x0(%rax,%rax,1)
  104d3b:	00 00 00 
  104d3e:	66 2e 0f 1f 84 00 00 	cs nopw 0x0(%rax,%rax,1)
  104d45:	00 00 00 
  104d48:	66 2e 0f 1f 84 00 00 	cs nopw 0x0(%rax,%rax,1)
  104d4f:	00 00 00 
  104d52:	66 2e 0f 1f 84 00 00 	cs nopw 0x0(%rax,%rax,1)
  104d59:	00 00 00 
  104d5c:	66 2e 0f 1f 84 00 00 	cs nopw 0x0(%rax,%rax,1)
  104d63:	00 00 00 
  104d66:	66 2e 0f 1f 84 00 00 	cs nopw 0x0(%rax,%rax,1)
  104d6d:	00 00 00 
  104d70:	66 2e 0f 1f 84 00 00 	cs nopw 0x0(%rax,%rax,1)
  104d77:	00 00 00 
  104d7a:	66 2e 0f 1f 84 00 00 	cs nopw 0x0(%rax,%rax,1)
  104d81:	00 00 00 
  104d84:	66 2e 0f 1f 84 00 00 	cs nopw 0x0(%rax,%rax,1)
  104d8b:	00 00 00 
  104d8e:	66 2e 0f 1f 84 00 00 	cs nopw 0x0(%rax,%rax,1)
  104d95:	00 00 00 
  104d98:	66 2e 0f 1f 84 00 00 	cs nopw 0x0(%rax,%rax,1)
  104d9f:	00 00 00 
  104da2:	66 2e 0f 1f 84 00 00 	cs nopw 0x0(%rax,%rax,1)
  104da9:	00 00 00 
  104dac:	66 2e 0f 1f 84 00 00 	cs nopw 0x0(%rax,%rax,1)
  104db3:	00 00 00 
  104db6:	66 2e 0f 1f 84 00 00 	cs nopw 0x0(%rax,%rax,1)
  104dbd:	00 00 00 
  104dc0:	66 2e 0f 1f 84 00 00 	cs nopw 0x0(%rax,%rax,1)
  104dc7:	00 00 00 
  104dca:	66 2e 0f 1f 84 00 00 	cs nopw 0x0(%rax,%rax,1)
  104dd1:	00 00 00 
  104dd4:	66 2e 0f 1f 84 00 00 	cs nopw 0x0(%rax,%rax,1)
  104ddb:	00 00 00 
  104dde:	66 2e 0f 1f 84 00 00 	cs nopw 0x0(%rax,%rax,1)
  104de5:	00 00 00 
  104de8:	66 2e 0f 1f 84 00 00 	cs nopw 0x0(%rax,%rax,1)
  104def:	00 00 00 
  104df2:	66 2e 0f 1f 84 00 00 	cs nopw 0x0(%rax,%rax,1)
  104df9:	00 00 00 
  104dfc:	66 2e 0f 1f 84 00 00 	cs nopw 0x0(%rax,%rax,1)
  104e03:	00 00 00 
  104e06:	66 2e 0f 1f 84 00 00 	cs nopw 0x0(%rax,%rax,1)
  104e0d:	00 00 00 
  104e10:	66 2e 0f 1f 84 00 00 	cs nopw 0x0(%rax,%rax,1)
  104e17:	00 00 00 
  104e1a:	66 2e 0f 1f 84 00 00 	cs nopw 0x0(%rax,%rax,1)
  104e21:	00 00 00 
  104e24:	66 2e 0f 1f 84 00 00 	cs nopw 0x0(%rax,%rax,1)
  104e2b:	00 00 00 
  104e2e:	66 2e 0f 1f 84 00 00 	cs nopw 0x0(%rax,%rax,1)
  104e35:	00 00 00 
  104e38:	66 2e 0f 1f 84 00 00 	cs nopw 0x0(%rax,%rax,1)
  104e3f:	00 00 00 
  104e42:	66 2e 0f 1f 84 00 00 	cs nopw 0x0(%rax,%rax,1)
  104e49:	00 00 00 
  104e4c:	66 2e 0f 1f 84 00 00 	cs nopw 0x0(%rax,%rax,1)
  104e53:	00 00 00 
  104e56:	66 2e 0f 1f 84 00 00 	cs nopw 0x0(%rax,%rax,1)
  104e5d:	00 00 00 
  104e60:	66 2e 0f 1f 84 00 00 	cs nopw 0x0(%rax,%rax,1)
  104e67:	00 00 00 
  104e6a:	66 2e 0f 1f 84 00 00 	cs nopw 0x0(%rax,%rax,1)
  104e71:	00 00 00 
  104e74:	66 2e 0f 1f 84 00 00 	cs nopw 0x0(%rax,%rax,1)
  104e7b:	00 00 00 
  104e7e:	66 2e 0f 1f 84 00 00 	cs nopw 0x0(%rax,%rax,1)
  104e85:	00 00 00 
  104e88:	66 2e 0f 1f 84 00 00 	cs nopw 0x0(%rax,%rax,1)
  104e8f:	00 00 00 
  104e92:	66 2e 0f 1f 84 00 00 	cs nopw 0x0(%rax,%rax,1)
  104e99:	00 00 00 
  104e9c:	66 2e 0f 1f 84 00 00 	cs nopw 0x0(%rax,%rax,1)
  104ea3:	00 00 00 
  104ea6:	66 2e 0f 1f 84 00 00 	cs nopw 0x0(%rax,%rax,1)
  104ead:	00 00 00 
  104eb0:	66 2e 0f 1f 84 00 00 	cs nopw 0x0(%rax,%rax,1)
  104eb7:	00 00 00 
  104eba:	66 2e 0f 1f 84 00 00 	cs nopw 0x0(%rax,%rax,1)
  104ec1:	00 00 00 
  104ec4:	66 2e 0f 1f 84 00 00 	cs nopw 0x0(%rax,%rax,1)
  104ecb:	00 00 00 
  104ece:	66 2e 0f 1f 84 00 00 	cs nopw 0x0(%rax,%rax,1)
  104ed5:	00 00 00 
  104ed8:	66 2e 0f 1f 84 00 00 	cs nopw 0x0(%rax,%rax,1)
  104edf:	00 00 00 
  104ee2:	66 2e 0f 1f 84 00 00 	cs nopw 0x0(%rax,%rax,1)
  104ee9:	00 00 00 
  104eec:	66 2e 0f 1f 84 00 00 	cs nopw 0x0(%rax,%rax,1)
  104ef3:	00 00 00 
  104ef6:	66 2e 0f 1f 84 00 00 	cs nopw 0x0(%rax,%rax,1)
  104efd:	00 00 00 
  104f00:	66 2e 0f 1f 84 00 00 	cs nopw 0x0(%rax,%rax,1)
  104f07:	00 00 00 
  104f0a:	66 2e 0f 1f 84 00 00 	cs nopw 0x0(%rax,%rax,1)
  104f11:	00 00 00 
  104f14:	66 2e 0f 1f 84 00 00 	cs nopw 0x0(%rax,%rax,1)
  104f1b:	00 00 00 
  104f1e:	66 2e 0f 1f 84 00 00 	cs nopw 0x0(%rax,%rax,1)
  104f25:	00 00 00 
  104f28:	66 2e 0f 1f 84 00 00 	cs nopw 0x0(%rax,%rax,1)
  104f2f:	00 00 00 
  104f32:	66 2e 0f 1f 84 00 00 	cs nopw 0x0(%rax,%rax,1)
  104f39:	00 00 00 
  104f3c:	66 2e 0f 1f 84 00 00 	cs nopw 0x0(%rax,%rax,1)
  104f43:	00 00 00 
  104f46:	66 2e 0f 1f 84 00 00 	cs nopw 0x0(%rax,%rax,1)
  104f4d:	00 00 00 
  104f50:	66 2e 0f 1f 84 00 00 	cs nopw 0x0(%rax,%rax,1)
  104f57:	00 00 00 
  104f5a:	66 2e 0f 1f 84 00 00 	cs nopw 0x0(%rax,%rax,1)
  104f61:	00 00 00 
  104f64:	66 2e 0f 1f 84 00 00 	cs nopw 0x0(%rax,%rax,1)
  104f6b:	00 00 00 
  104f6e:	66 2e 0f 1f 84 00 00 	cs nopw 0x0(%rax,%rax,1)
  104f75:	00 00 00 
  104f78:	66 2e 0f 1f 84 00 00 	cs nopw 0x0(%rax,%rax,1)
  104f7f:	00 00 00 
  104f82:	66 2e 0f 1f 84 00 00 	cs nopw 0x0(%rax,%rax,1)
  104f89:	00 00 00 
  104f8c:	66 2e 0f 1f 84 00 00 	cs nopw 0x0(%rax,%rax,1)
  104f93:	00 00 00 
  104f96:	66 2e 0f 1f 84 00 00 	cs nopw 0x0(%rax,%rax,1)
  104f9d:	00 00 00 
  104fa0:	66 2e 0f 1f 84 00 00 	cs nopw 0x0(%rax,%rax,1)
  104fa7:	00 00 00 
  104faa:	66 2e 0f 1f 84 00 00 	cs nopw 0x0(%rax,%rax,1)
  104fb1:	00 00 00 
  104fb4:	66 2e 0f 1f 84 00 00 	cs nopw 0x0(%rax,%rax,1)
  104fbb:	00 00 00 
  104fbe:	66 2e 0f 1f 84 00 00 	cs nopw 0x0(%rax,%rax,1)
  104fc5:	00 00 00 
  104fc8:	66 2e 0f 1f 84 00 00 	cs nopw 0x0(%rax,%rax,1)
  104fcf:	00 00 00 
  104fd2:	66 2e 0f 1f 84 00 00 	cs nopw 0x0(%rax,%rax,1)
  104fd9:	00 00 00 
  104fdc:	66 2e 0f 1f 84 00 00 	cs nopw 0x0(%rax,%rax,1)
  104fe3:	00 00 00 
  104fe6:	66 2e 0f 1f 84 00 00 	cs nopw 0x0(%rax,%rax,1)
  104fed:	00 00 00 
  104ff0:	66 2e 0f 1f 84 00 00 	cs nopw 0x0(%rax,%rax,1)
  104ff7:	00 00 00 
  104ffa:	66 0f 1f 44 00 00    	nopw   0x0(%rax,%rax,1)

0000000000105000 <dummy_page>:
	...

0000000000109000 <_start>:
  109000:	bc 00 40 13 01       	mov    $0x1134000,%esp
  109005:	a3 a4 40 10 00 89 1d 	movabs %eax,0x40ac1d89001040a4
  10900c:	ac 40 
  10900e:	10 00                	adc    %al,(%rax)
  109010:	b9 80 00 00 c0       	mov    $0xc0000080,%ecx
  109015:	0f 32                	rdmsr
  109017:	0d 00 01 00 00       	or     $0x100,%eax
  10901c:	0f 30                	wrmsr
  10901e:	b8 00 60 10 00       	mov    $0x106000,%eax
  109023:	83 c8 03             	or     $0x3,%eax
  109026:	a3 00 50 10 00 b8 00 	movabs %eax,0x107000b800105000
  10902d:	70 10 
  10902f:	00 83 c8 03 a3 00    	add    %al,0xa303c8(%rbx)
  109035:	60                   	(bad)
  109036:	10 00                	adc    %al,(%rax)
  109038:	b9 00 00 00 00       	mov    $0x0,%ecx
  10903d:	bf 00 70 10 00       	mov    $0x107000,%edi
  109042:	89 c8                	mov    %ecx,%eax
  109044:	0d 83 00 00 00       	or     $0x83,%eax
  109049:	89 07                	mov    %eax,(%rdi)
  10904b:	81 c1 00 00 20 00    	add    $0x200000,%ecx
  109051:	83 c7 08             	add    $0x8,%edi
  109054:	81 f9 00 00 00 08    	cmp    $0x8000000,%ecx
  10905a:	75 e6                	jne    109042 <_start+0x42>
  10905c:	0f 20 e0             	mov    %cr4,%rax
  10905f:	83 c8 20             	or     $0x20,%eax
  109062:	0f 22 e0             	mov    %rax,%cr4
  109065:	ba 00 50 10 00       	mov    $0x105000,%edx
  10906a:	0f 22 da             	mov    %rdx,%cr3
  10906d:	0f 20 c3             	mov    %cr0,%rbx
  109070:	81 cb 01 00 00 80    	or     $0x80000001,%ebx
  109076:	0f 22 c3             	mov    %rbx,%cr0
  109079:	ba 00 40 10 00       	mov    $0x104000,%edx
  10907e:	66 89 15 9a 40 10 00 	mov    %dx,0x10409a(%rip)        # 20d11f <phys_mem_map+0xea11f>
  109085:	c1 ea 10             	shr    $0x10,%edx
  109088:	88 15 9c 40 10 00    	mov    %dl,0x10409c(%rip)        # 20d12a <phys_mem_map+0xea12a>
  10908e:	c1 ea 08             	shr    $0x8,%edx
  109091:	88 15 9f 40 10 00    	mov    %dl,0x10409f(%rip)        # 20d136 <phys_mem_map+0xea136>
  109097:	c1 ea 08             	shr    $0x8,%edx
  10909a:	66 89 15 a0 40 10 00 	mov    %dx,0x1040a0(%rip)        # 20d141 <phys_mem_map+0xea141>
  1090a1:	0f 01 15 64 40 10 00 	lgdt   0x104064(%rip)        # 20d10c <phys_mem_map+0xea10c>
  1090a8:	66 ba 10 00          	mov    $0x10,%dx
  1090ac:	8e da                	mov    %edx,%ds
  1090ae:	8e c2                	mov    %edx,%es
  1090b0:	8e e2                	mov    %edx,%fs
  1090b2:	8e ea                	mov    %edx,%gs
  1090b4:	8e d2                	mov    %edx,%ss
  1090b6:	6a 10                	push   $0x10
  1090b8:	6a 08                	push   $0x8
  1090ba:	68 c0 90 10 00       	push   $0x1090c0
  1090bf:	cf                   	iret
  1090c0:	48 8b 3c 25 a4 40 10 	mov    0x1040a4,%rdi
  1090c7:	00 
  1090c8:	48 8b 34 25 ac 40 10 	mov    0x1040ac,%rsi
  1090cf:	00 
  1090d0:	e8 3b 86 ff ff       	call   101710 <krnl_main>
  1090d5:	eb fe                	jmp    1090d5 <_start+0xd5>
  1090d7:	90                   	nop

00000000001090d8 <tmp_r15>:
	...

00000000001090e0 <idt_pagefault_handler_s>:
  1090e0:	4c 89 3c 25 d8 90 10 	mov    %r15,0x1090d8
  1090e7:	00 
  1090e8:	41 0f 20 d7          	mov    %cr2,%r15
  1090ec:	41 57                	push   %r15
  1090ee:	4c 8b 3c 25 d8 90 10 	mov    0x1090d8,%r15
  1090f5:	00 
  1090f6:	41 57                	push   %r15
  1090f8:	41 56                	push   %r14
  1090fa:	41 55                	push   %r13
  1090fc:	41 54                	push   %r12
  1090fe:	41 53                	push   %r11
  109100:	41 52                	push   %r10
  109102:	55                   	push   %rbp
  109103:	54                   	push   %rsp
  109104:	53                   	push   %rbx
  109105:	50                   	push   %rax
  109106:	e8 45 84 ff ff       	call   101550 <idt_pagefault_handler>
  10910b:	eb fe                	jmp    10910b <idt_pagefault_handler_s+0x2b>

Disassembly of section .rodata.str1.16:

0000000000109110 <.rodata.str1.16>:
  109110:	30 31                	xor    %dh,(%rcx)
  109112:	32 33                	xor    (%rbx),%dh
  109114:	34 35                	xor    $0x35,%al
  109116:	36 37                	ss (bad)
  109118:	38 39                	cmp    %bh,(%rcx)
  10911a:	41                   	rex.B
  10911b:	42                   	rex.X
  10911c:	43                   	rex.XB
  10911d:	44                   	rex.R
  10911e:	45                   	rex.RB
  10911f:	46                   	rex.RX
	...

Disassembly of section .rodata.str1.1:

0000000000109121 <.rodata.str1.1>:
  109121:	50                   	push   %rax
  109122:	41                   	rex.B
  109123:	4e                   	rex.WRX
  109124:	49                   	rex.WB
  109125:	4b 3a 20             	rex.WXB cmp (%r8),%spl
  109128:	53                   	push   %rbx
  109129:	49 5a                	rex.WB pop %r10
  10912b:	45 20 49 53          	and    %r9b,0x53(%r9)
  10912f:	20 5a 45             	and    %bl,0x45(%rdx)
  109132:	52                   	push   %rdx
  109133:	4f 20 46 49          	rex.WRXB and %r8b,0x49(%r14)
  109137:	4c                   	rex.WR
  109138:	4c                   	rex.WR
  109139:	45                   	rex.RB
  10913a:	44 20 45 4e          	and    %r8b,0x4e(%rbp)
  10913e:	54                   	push   %rsp
  10913f:	49 52                	rex.WB push %r10
  109141:	45 20 52 41          	and    %r10b,0x41(%r10)
  109145:	4d 00 50 41          	rex.WRB add %r10b,0x41(%r8)
  109149:	4e                   	rex.WRX
  10914a:	49                   	rex.WB
  10914b:	4b 3a 20             	rex.WXB cmp (%r8),%spl
  10914e:	53                   	push   %rbx
  10914f:	4f                   	rex.WRXB
  109150:	4d                   	rex.WRB
  109151:	45                   	rex.RB
  109152:	48                   	rex.W
  109153:	4f 57                	rex.WRXB push %r15
  109155:	20 52 41             	and    %dl,0x41(%rdx)
  109158:	4e 20 4f 55          	rex.WRX and %r9b,0x55(%rdi)
  10915c:	54                   	push   %rsp
  10915d:	20 4f 46             	and    %cl,0x46(%rdi)
  109160:	20 52 41             	and    %dl,0x41(%rdx)
  109163:	4d 21 20             	and    %r12,(%r8)
  109166:	41                   	rex.B
  109167:	44                   	rex.R
  109168:	44 52                	rex.R push %rdx
  10916a:	3a 00                	cmp    (%rax),%al
  10916c:	42 20 49 53          	rex.X and %cl,0x53(%rcx)
  109170:	20 4e 55             	and    %cl,0x55(%rsi)
  109173:	4c                   	rex.WR
  109174:	4c 3a 20             	rex.WR cmp (%rax),%r12b
  109177:	00 54 48 49          	add    %dl,0x49(%rax,%rcx,2)
  10917b:	53                   	push   %rbx
  10917c:	0d 0a 00 50 41       	or     $0x4150000a,%eax
  109181:	47                   	rex.RXB
  109182:	45 20 46 41          	and    %r8b,0x41(%r14)
  109186:	55                   	push   %rbp
  109187:	4c 54                	rex.WR push %rsp
  109189:	3a 20                	cmp    (%rax),%ah
  10918b:	45 52                	rex.RB push %r10
  10918d:	52                   	push   %rdx
  10918e:	43                   	rex.XB
  10918f:	4f                   	rex.WRXB
  109190:	44                   	rex.R
  109191:	45 3d 00 52 49 50    	rex.RB cmp $0x50495200,%eax
  109197:	3a 20                	cmp    (%rax),%ah
  109199:	00 43 52             	add    %al,0x52(%rbx)
  10919c:	32 3a                	xor    (%rdx),%bh
  10919e:	20 00                	and    %al,(%rax)
  1091a0:	42                   	rex.X
  1091a1:	4f                   	rex.WRXB
  1091a2:	4f 54                	rex.WRXB push %r12
  1091a4:	4c                   	rex.WR
  1091a5:	4f                   	rex.WRXB
  1091a6:	41                   	rex.B
  1091a7:	44                   	rex.R
  1091a8:	45 52                	rex.RB push %r10
  1091aa:	20 4d 41             	and    %cl,0x41(%rbp)
  1091ad:	47                   	rex.RXB
  1091ae:	49                   	rex.WB
  1091af:	43 20 50 41          	rex.XB and %dl,0x41(%r8)
  1091b3:	53                   	push   %rbx
  1091b4:	53                   	push   %rbx
  1091b5:	0d 0a 00 42 4f       	or     $0x4f42000a,%eax
  1091ba:	4f 54                	rex.WRXB push %r12
  1091bc:	4c                   	rex.WR
  1091bd:	4f                   	rex.WRXB
  1091be:	41                   	rex.B
  1091bf:	44                   	rex.R
  1091c0:	45 52                	rex.RB push %r10
  1091c2:	20 4d 41             	and    %cl,0x41(%rbp)
  1091c5:	47                   	rex.RXB
  1091c6:	49                   	rex.WB
  1091c7:	43 20 46 41          	rex.XB and %al,0x41(%r14)
  1091cb:	49                   	rex.WB
  1091cc:	4c 0d 0a 00 52 45    	rex.WR or $0x4552000a,%rax
  1091d2:	41                   	rex.B
  1091d3:	43                   	rex.XB
  1091d4:	48                   	rex.W
  1091d5:	45                   	rex.RB
  1091d6:	44 20 45 4e          	and    %r8b,0x4e(%rbp)
  1091da:	44 20 4f 46          	and    %r9b,0x46(%rdi)
  1091de:	20 4b 52             	and    %cl,0x52(%rbx)
  1091e1:	4e                   	rex.WRX
  1091e2:	4c 20 4d 41          	rex.WR and %r9b,0x41(%rbp)
  1091e6:	49                   	rex.WB
  1091e7:	4e 0d 0a 00 70 64    	rex.WRX or $0x6470000a,%rax
  1091ed:	70 74                	jo     109263 <idt_pagefault_handler_s+0x183>
  1091ef:	5f                   	pop    %rdi
  1091f0:	74 61                	je     109253 <idt_pagefault_handler_s+0x173>
  1091f2:	62                   	(bad)
  1091f3:	6c                   	insb   (%dx),%es:(%rdi)
  1091f4:	65 20 69 73          	and    %ch,%gs:0x73(%rcx)
  1091f8:	20 30                	and    %dh,(%rax)
  1091fa:	00 5a 45             	add    %bl,0x45(%rdx)
  1091fd:	52                   	push   %rdx
  1091fe:	4f 20 45 4e          	rex.WRXB and %r8b,0x4e(%r13)
  109202:	54                   	push   %rsp
  109203:	52                   	push   %rdx
  109204:	59                   	pop    %rcx
  109205:	20 41 44             	and    %al,0x44(%rcx)
  109208:	44 52                	rex.R push %rdx
  10920a:	3a 20                	cmp    (%rax),%ah
	...

Disassembly of section .bss:

000000000010a000 <idt_table>:
	...

000000000010aff0 <idtr>:
	...

000000000010b000 <page_heap>:
	...

000000000010b010 <m_info>:
	...

000000000010b018 <fbaddr>:
	...

000000000010b020 <fbw>:
	...

000000000010b028 <fbh>:
	...

000000000010b030 <fbb>:
	...

000000000010b040 <addr>:
	...

0000000000122740 <l_initialized>:
	...

0000000000122750 <l_freePages>:
	...

0000000000122850 <l_completePages>:
	...

0000000000123000 <phys_mem_map>:
	...

0000000001123000 <pml4_table>:
	...

0000000001124000 <stack_bottom>:
	...

0000000001134000 <stack_top>:
	...

Disassembly of section .comment:

0000000000000000 <.comment>:
   0:	63 6c 61 6e          	movsxd 0x6e(%rcx,%riz,2),%ebp
   4:	67 20 76 65          	and    %dh,0x65(%esi)
   8:	72 73                	jb     7d <_krnl_start-0xfff83>
   a:	69 6f 6e 20 31 35 2e 	imul   $0x2e353120,0x6e(%rdi),%ebp
  11:	30 2e                	xor    %ch,(%rsi)
  13:	37                   	(bad)
	...
