
sfkrnl.elf:     file format elf64-x86-64


Disassembly of section .note.gnu.build-id:

0000000000100000 <_krnl_start>:
  100000:	04 00                	add    $0x0,%al
  100002:	00 00                	add    %al,(%rax)
  100004:	14 00                	adc    $0x0,%al
  100006:	00 00                	add    %al,(%rax)
  100008:	03 00                	add    (%rax),%eax
  10000a:	00 00                	add    %al,(%rax)
  10000c:	47                   	rex.RXB
  10000d:	4e 55                	rex.WRX push %rbp
  10000f:	00 b3 8b 2c a6 b5    	add    %dh,-0x4a59d375(%rbx)
  100015:	ea                   	(bad)
  100016:	4b 77 ad             	rex.WXB ja fffc6 <_krnl_start-0x3a>
  100019:	23 cc                	and    %esp,%ecx
  10001b:	cd 83                	int    $0x83
  10001d:	44 62                	rex.R (bad)
  10001f:	aa                   	stos   %al,%es:(%rdi)
  100020:	cf                   	iret
  100021:	e5 22                	in     $0x22,%eax
  100023:	c2                   	.byte 0xc2

Disassembly of section .text:

0000000000101000 <header>:
  101000:	d6                   	(bad)
  101001:	50                   	push   %rax
  101002:	52                   	push   %rdx
  101003:	e8 00 00 00 00       	call   101008 <header+0x8>
  101008:	50                   	push   %rax
  101009:	00 00                	add    %al,(%rax)
  10100b:	00 da                	add    %bl,%dl
  10100d:	ae                   	scas   %es:(%rdi),%al
  10100e:	ad                   	lods   %ds:(%rsi),%eax
  10100f:	17                   	(bad)

0000000000101010 <info_tag_start>:
  101010:	01 00                	add    %eax,(%rax)
  101012:	00 00                	add    %al,(%rax)
  101014:	1c 00                	sbb    $0x0,%al
  101016:	00 00                	add    %al,(%rax)
  101018:	02 00                	add    (%rax),%al
  10101a:	00 00                	add    %al,(%rax)
  10101c:	01 00                	add    %eax,(%rax)
  10101e:	00 00                	add    %al,(%rax)
  101020:	05 00 00 00 0f       	add    $0xf000000,%eax
  101025:	00 00                	add    %al,(%rax)
  101027:	00 08                	add    %cl,(%rax)
  101029:	00 00                	add    %al,(%rax)
	...

000000000010102c <info_tag_end>:
  10102c:	00 00                	add    %al,(%rax)
	...

0000000000101030 <fb_tag_start>:
  101030:	05 00 00 00 18       	add    $0x18000000,%eax
	...
  10103d:	00 00                	add    %al,(%rax)
  10103f:	00 20                	add    %ah,(%rax)
  101041:	00 00                	add    %al,(%rax)
  101043:	00 00                	add    %al,(%rax)
  101045:	00 00                	add    %al,(%rax)
	...

0000000000101048 <fb_tag_end>:
  101048:	00 00                	add    %al,(%rax)
  10104a:	00 00                	add    %al,(%rax)
  10104c:	08 00                	or     %al,(%rax)
	...

0000000000101050 <acpiman_isvalid>:
  101050:	48 85 f6             	test   %rsi,%rsi
  101053:	74 1b                	je     101070 <acpiman_isvalid+0x20>
  101055:	55                   	push   %rbp
  101056:	48 89 e5             	mov    %rsp,%rbp
  101059:	48 8d 4e ff          	lea    -0x1(%rsi),%rcx
  10105d:	41 89 f0             	mov    %esi,%r8d
  101060:	41 83 e0 07          	and    $0x7,%r8d
  101064:	48 83 f9 07          	cmp    $0x7,%rcx
  101068:	73 0c                	jae    101076 <acpiman_isvalid+0x26>
  10106a:	31 c9                	xor    %ecx,%ecx
  10106c:	31 d2                	xor    %edx,%edx
  10106e:	eb 58                	jmp    1010c8 <acpiman_isvalid+0x78>
  101070:	b8 01 00 00 00       	mov    $0x1,%eax
  101075:	c3                   	ret
  101076:	48 83 e6 f8          	and    $0xfffffffffffffff8,%rsi
  10107a:	31 c9                	xor    %ecx,%ecx
  10107c:	31 d2                	xor    %edx,%edx
  10107e:	66 90                	xchg   %ax,%ax
  101080:	0f b6 04 0f          	movzbl (%rdi,%rcx,1),%eax
  101084:	48 01 d0             	add    %rdx,%rax
  101087:	0f b6 54 0f 01       	movzbl 0x1(%rdi,%rcx,1),%edx
  10108c:	48 01 c2             	add    %rax,%rdx
  10108f:	0f b6 44 0f 02       	movzbl 0x2(%rdi,%rcx,1),%eax
  101094:	48 01 d0             	add    %rdx,%rax
  101097:	0f b6 54 0f 03       	movzbl 0x3(%rdi,%rcx,1),%edx
  10109c:	48 01 c2             	add    %rax,%rdx
  10109f:	0f b6 44 0f 04       	movzbl 0x4(%rdi,%rcx,1),%eax
  1010a4:	48 01 d0             	add    %rdx,%rax
  1010a7:	0f b6 54 0f 05       	movzbl 0x5(%rdi,%rcx,1),%edx
  1010ac:	48 01 c2             	add    %rax,%rdx
  1010af:	0f b6 44 0f 06       	movzbl 0x6(%rdi,%rcx,1),%eax
  1010b4:	48 01 d0             	add    %rdx,%rax
  1010b7:	0f b6 54 0f 07       	movzbl 0x7(%rdi,%rcx,1),%edx
  1010bc:	48 01 c2             	add    %rax,%rdx
  1010bf:	48 83 c1 08          	add    $0x8,%rcx
  1010c3:	48 39 ce             	cmp    %rcx,%rsi
  1010c6:	75 b8                	jne    101080 <acpiman_isvalid+0x30>
  1010c8:	4d 85 c0             	test   %r8,%r8
  1010cb:	74 22                	je     1010ef <acpiman_isvalid+0x9f>
  1010cd:	48 01 cf             	add    %rcx,%rdi
  1010d0:	31 c9                	xor    %ecx,%ecx
  1010d2:	66 66 66 66 66 2e 0f 	data16 data16 data16 data16 cs nopw 0x0(%rax,%rax,1)
  1010d9:	1f 84 00 00 00 00 00 
  1010e0:	0f b6 34 0f          	movzbl (%rdi,%rcx,1),%esi
  1010e4:	48 01 f2             	add    %rsi,%rdx
  1010e7:	48 ff c1             	inc    %rcx
  1010ea:	49 39 c8             	cmp    %rcx,%r8
  1010ed:	75 f1                	jne    1010e0 <acpiman_isvalid+0x90>
  1010ef:	31 c0                	xor    %eax,%eax
  1010f1:	84 d2                	test   %dl,%dl
  1010f3:	0f 94 c0             	sete   %al
  1010f6:	5d                   	pop    %rbp
  1010f7:	c3                   	ret
  1010f8:	0f 1f 84 00 00 00 00 	nopl   0x0(%rax,%rax,1)
  1010ff:	00 

0000000000101100 <acpiman_get_tab>:
  101100:	55                   	push   %rbp
  101101:	48 89 e5             	mov    %rsp,%rbp
  101104:	41 57                	push   %r15
  101106:	41 56                	push   %r14
  101108:	41 54                	push   %r12
  10110a:	53                   	push   %rbx
  10110b:	48 8b 05 ee ae 00 00 	mov    0xaeee(%rip),%rax        # 10c000 <sys_xsdt_addr>
  101112:	8b 40 04             	mov    0x4(%rax),%eax
  101115:	48 83 c0 dc          	add    $0xffffffffffffffdc,%rax
  101119:	41 be ad de 00 00    	mov    $0xdead,%r14d
  10111f:	48 83 f8 08          	cmp    $0x8,%rax
  101123:	72 4e                	jb     101173 <acpiman_get_tab+0x73>
  101125:	49 89 ff             	mov    %rdi,%r15
  101128:	48 c1 e8 03          	shr    $0x3,%rax
  10112c:	48 83 f8 02          	cmp    $0x2,%rax
  101130:	41 bc 01 00 00 00    	mov    $0x1,%r12d
  101136:	4c 0f 43 e0          	cmovae %rax,%r12
  10113a:	31 db                	xor    %ebx,%ebx
  10113c:	0f 1f 40 00          	nopl   0x0(%rax)
  101140:	48 8b 05 b9 ae 00 00 	mov    0xaeb9(%rip),%rax        # 10c000 <sys_xsdt_addr>
  101147:	48 8b 7c d8 24       	mov    0x24(%rax,%rbx,8),%rdi
  10114c:	ba 04 00 00 00       	mov    $0x4,%edx
  101151:	4c 89 fe             	mov    %r15,%rsi
  101154:	e8 57 18 00 00       	call   1029b0 <mem_cmp>
  101159:	85 c0                	test   %eax,%eax
  10115b:	75 0a                	jne    101167 <acpiman_get_tab+0x67>
  10115d:	48 ff c3             	inc    %rbx
  101160:	49 39 dc             	cmp    %rbx,%r12
  101163:	75 db                	jne    101140 <acpiman_get_tab+0x40>
  101165:	eb 0c                	jmp    101173 <acpiman_get_tab+0x73>
  101167:	48 8b 05 92 ae 00 00 	mov    0xae92(%rip),%rax        # 10c000 <sys_xsdt_addr>
  10116e:	4c 8b 74 d8 24       	mov    0x24(%rax,%rbx,8),%r14
  101173:	4c 89 f0             	mov    %r14,%rax
  101176:	5b                   	pop    %rbx
  101177:	41 5c                	pop    %r12
  101179:	41 5e                	pop    %r14
  10117b:	41 5f                	pop    %r15
  10117d:	5d                   	pop    %rbp
  10117e:	c3                   	ret
  10117f:	90                   	nop

0000000000101180 <acpiman_setup>:
  101180:	55                   	push   %rbp
  101181:	48 89 e5             	mov    %rsp,%rbp
  101184:	41 57                	push   %r15
  101186:	41 56                	push   %r14
  101188:	41 54                	push   %r12
  10118a:	53                   	push   %rbx
  10118b:	48 83 ec 10          	sub    $0x10,%rsp
  10118f:	48 89 fe             	mov    %rdi,%rsi
  101192:	bf 08 c0 10 00       	mov    $0x10c008,%edi
  101197:	ba 24 00 00 00       	mov    $0x24,%edx
  10119c:	e8 0f 14 00 00       	call   1025b0 <mem_cpy>
  1011a1:	bf 08 c0 10 00       	mov    $0x10c008,%edi
  1011a6:	be 00 b8 10 00       	mov    $0x10b800,%esi
  1011ab:	ba 08 00 00 00       	mov    $0x8,%edx
  1011b0:	e8 fb 17 00 00       	call   1029b0 <mem_cmp>
  1011b5:	85 c0                	test   %eax,%eax
  1011b7:	0f 84 cf 01 00 00    	je     10138c <acpiman_setup+0x20c>
  1011bd:	0f b6 05 44 ae 00 00 	movzbl 0xae44(%rip),%eax        # 10c008 <sys_rsdp_desc>
  1011c4:	0f b6 0d 3e ae 00 00 	movzbl 0xae3e(%rip),%ecx        # 10c009 <sys_rsdp_desc+0x1>
  1011cb:	48 01 c1             	add    %rax,%rcx
  1011ce:	0f b6 05 35 ae 00 00 	movzbl 0xae35(%rip),%eax        # 10c00a <sys_rsdp_desc+0x2>
  1011d5:	48 01 c8             	add    %rcx,%rax
  1011d8:	0f b6 0d 2c ae 00 00 	movzbl 0xae2c(%rip),%ecx        # 10c00b <sys_rsdp_desc+0x3>
  1011df:	48 01 c1             	add    %rax,%rcx
  1011e2:	0f b6 05 23 ae 00 00 	movzbl 0xae23(%rip),%eax        # 10c00c <sys_rsdp_desc+0x4>
  1011e9:	48 01 c8             	add    %rcx,%rax
  1011ec:	0f b6 0d 1a ae 00 00 	movzbl 0xae1a(%rip),%ecx        # 10c00d <sys_rsdp_desc+0x5>
  1011f3:	48 01 c1             	add    %rax,%rcx
  1011f6:	0f b6 05 11 ae 00 00 	movzbl 0xae11(%rip),%eax        # 10c00e <sys_rsdp_desc+0x6>
  1011fd:	48 01 c8             	add    %rcx,%rax
  101200:	0f b6 0d 08 ae 00 00 	movzbl 0xae08(%rip),%ecx        # 10c00f <sys_rsdp_desc+0x7>
  101207:	48 01 c1             	add    %rax,%rcx
  10120a:	0f b6 05 ff ad 00 00 	movzbl 0xadff(%rip),%eax        # 10c010 <sys_rsdp_desc+0x8>
  101211:	48 01 c8             	add    %rcx,%rax
  101214:	0f b6 0d f6 ad 00 00 	movzbl 0xadf6(%rip),%ecx        # 10c011 <sys_rsdp_desc+0x9>
  10121b:	48 01 c1             	add    %rax,%rcx
  10121e:	0f b6 05 ed ad 00 00 	movzbl 0xaded(%rip),%eax        # 10c012 <sys_rsdp_desc+0xa>
  101225:	48 01 c8             	add    %rcx,%rax
  101228:	0f b6 0d e4 ad 00 00 	movzbl 0xade4(%rip),%ecx        # 10c013 <sys_rsdp_desc+0xb>
  10122f:	48 01 c1             	add    %rax,%rcx
  101232:	0f b6 05 db ad 00 00 	movzbl 0xaddb(%rip),%eax        # 10c014 <sys_rsdp_desc+0xc>
  101239:	48 01 c8             	add    %rcx,%rax
  10123c:	0f b6 0d d2 ad 00 00 	movzbl 0xadd2(%rip),%ecx        # 10c015 <sys_rsdp_desc+0xd>
  101243:	48 01 c1             	add    %rax,%rcx
  101246:	0f b6 05 c9 ad 00 00 	movzbl 0xadc9(%rip),%eax        # 10c016 <sys_rsdp_desc+0xe>
  10124d:	48 01 c8             	add    %rcx,%rax
  101250:	0f b6 0d c0 ad 00 00 	movzbl 0xadc0(%rip),%ecx        # 10c017 <sys_rsdp_desc+0xf>
  101257:	48 01 c1             	add    %rax,%rcx
  10125a:	0f b6 05 b7 ad 00 00 	movzbl 0xadb7(%rip),%eax        # 10c018 <sys_rsdp_desc+0x10>
  101261:	48 01 c8             	add    %rcx,%rax
  101264:	0f b6 0d ae ad 00 00 	movzbl 0xadae(%rip),%ecx        # 10c019 <sys_rsdp_desc+0x11>
  10126b:	48 01 c1             	add    %rax,%rcx
  10126e:	0f b6 05 a5 ad 00 00 	movzbl 0xada5(%rip),%eax        # 10c01a <sys_rsdp_desc+0x12>
  101275:	48 01 c8             	add    %rcx,%rax
  101278:	0f b6 0d 9c ad 00 00 	movzbl 0xad9c(%rip),%ecx        # 10c01b <sys_rsdp_desc+0x13>
  10127f:	48 01 c1             	add    %rax,%rcx
  101282:	b8 1a b8 10 00       	mov    $0x10b81a,%eax
  101287:	84 c9                	test   %cl,%cl
  101289:	0f 85 1d 01 00 00    	jne    1013ac <acpiman_setup+0x22c>
  10128f:	f3 0f 7e 05 85 ad 00 	movq   0xad85(%rip),%xmm0        # 10c01c <sys_rsdp_desc+0x14>
  101296:	00 
  101297:	0f b6 05 8a ad 00 00 	movzbl 0xad8a(%rip),%eax        # 10c028 <sys_rsdp_desc+0x20>
  10129e:	66 0f ef c9          	pxor   %xmm1,%xmm1
  1012a2:	66 0f f6 c1          	psadbw %xmm1,%xmm0
  1012a6:	66 0f 7e c2          	movd   %xmm0,%edx
  1012aa:	66 0f 6e 05 72 ad 00 	movd   0xad72(%rip),%xmm0        # 10c024 <sys_rsdp_desc+0x1c>
  1012b1:	00 
  1012b2:	66 0f f6 c1          	psadbw %xmm1,%xmm0
  1012b6:	66 0f 7e c6          	movd   %xmm0,%esi
  1012ba:	02 05 69 ad 00 00    	add    0xad69(%rip),%al        # 10c029 <sys_rsdp_desc+0x21>
  1012c0:	40 00 d6             	add    %dl,%sil
  1012c3:	02 0d 61 ad 00 00    	add    0xad61(%rip),%cl        # 10c02a <sys_rsdp_desc+0x22>
  1012c9:	00 c1                	add    %al,%cl
  1012cb:	40 00 f1             	add    %sil,%cl
  1012ce:	b8 3d b8 10 00       	mov    $0x10b83d,%eax
  1012d3:	02 0d 52 ad 00 00    	add    0xad52(%rip),%cl        # 10c02b <sys_rsdp_desc+0x23>
  1012d9:	0f 85 cd 00 00 00    	jne    1013ac <acpiman_setup+0x22c>
  1012df:	c6 05 30 ad 00 00 00 	movb   $0x0,0xad30(%rip)        # 10c016 <sys_rsdp_desc+0xe>
  1012e6:	bf 59 b8 10 00       	mov    $0x10b859,%edi
  1012eb:	e8 70 0d 00 00       	call   102060 <draw_string>
  1012f0:	bf 11 c0 10 00       	mov    $0x10c011,%edi
  1012f5:	e8 66 0d 00 00       	call   102060 <draw_string>
  1012fa:	bf b0 b9 10 00       	mov    $0x10b9b0,%edi
  1012ff:	e8 5c 0d 00 00       	call   102060 <draw_string>
  101304:	48 8b 3d 15 ad 00 00 	mov    0xad15(%rip),%rdi        # 10c020 <sys_rsdp_desc+0x18>
  10130b:	be 02 00 00 00       	mov    $0x2,%esi
  101310:	e8 5b 2a 00 00       	call   103d70 <page_map_paddr>
  101315:	48 89 05 e4 ac 00 00 	mov    %rax,0xace4(%rip)        # 10c000 <sys_xsdt_addr>
  10131c:	bf 64 b8 10 00       	mov    $0x10b864,%edi
  101321:	e8 3a 0d 00 00       	call   102060 <draw_string>
  101326:	48 8b 3d f3 ac 00 00 	mov    0xacf3(%rip),%rdi        # 10c020 <sys_rsdp_desc+0x18>
  10132d:	e8 de 0e 00 00       	call   102210 <draw_hex>
  101332:	bf 71 b8 10 00       	mov    $0x10b871,%edi
  101337:	e8 24 0d 00 00       	call   102060 <draw_string>
  10133c:	48 8b 3d bd ac 00 00 	mov    0xacbd(%rip),%rdi        # 10c000 <sys_xsdt_addr>
  101343:	e8 c8 0e 00 00       	call   102210 <draw_hex>
  101348:	bf 7e b8 10 00       	mov    $0x10b87e,%edi
  10134d:	e8 0e 0d 00 00       	call   102060 <draw_string>
  101352:	48 8b 05 a7 ac 00 00 	mov    0xaca7(%rip),%rax        # 10c000 <sys_xsdt_addr>
  101359:	8b 78 04             	mov    0x4(%rax),%edi
  10135c:	e8 af 0e 00 00       	call   102210 <draw_hex>
  101361:	48 8b 3d 98 ac 00 00 	mov    0xac98(%rip),%rdi        # 10c000 <sys_xsdt_addr>
  101368:	8b 57 04             	mov    0x4(%rdi),%edx
  10136b:	48 85 d2             	test   %rdx,%rdx
  10136e:	0f 84 d9 00 00 00    	je     10144d <acpiman_setup+0x2cd>
  101374:	48 8d 4a ff          	lea    -0x1(%rdx),%rcx
  101378:	89 d0                	mov    %edx,%eax
  10137a:	83 e0 07             	and    $0x7,%eax
  10137d:	48 83 f9 07          	cmp    $0x7,%rcx
  101381:	73 3d                	jae    1013c0 <acpiman_setup+0x240>
  101383:	31 c9                	xor    %ecx,%ecx
  101385:	31 f6                	xor    %esi,%esi
  101387:	e9 8c 00 00 00       	jmp    101418 <acpiman_setup+0x298>
  10138c:	bf 09 b8 10 00       	mov    $0x10b809,%edi
  101391:	e8 ca 0c 00 00       	call   102060 <draw_string>
  101396:	c6 05 72 ac 00 00 00 	movb   $0x0,0xac72(%rip)        # 10c00f <sys_rsdp_desc+0x7>
  10139d:	bf 08 c0 10 00       	mov    $0x10c008,%edi
  1013a2:	e8 b9 0c 00 00       	call   102060 <draw_string>
  1013a7:	b8 b0 b9 10 00       	mov    $0x10b9b0,%eax
  1013ac:	48 89 c7             	mov    %rax,%rdi
  1013af:	48 83 c4 10          	add    $0x10,%rsp
  1013b3:	5b                   	pop    %rbx
  1013b4:	41 5c                	pop    %r12
  1013b6:	41 5e                	pop    %r14
  1013b8:	41 5f                	pop    %r15
  1013ba:	5d                   	pop    %rbp
  1013bb:	e9 a0 0c 00 00       	jmp    102060 <draw_string>
  1013c0:	83 e2 f8             	and    $0xfffffff8,%edx
  1013c3:	31 c9                	xor    %ecx,%ecx
  1013c5:	31 f6                	xor    %esi,%esi
  1013c7:	66 0f 1f 84 00 00 00 	nopw   0x0(%rax,%rax,1)
  1013ce:	00 00 
  1013d0:	0f b6 1c 0f          	movzbl (%rdi,%rcx,1),%ebx
  1013d4:	48 01 f3             	add    %rsi,%rbx
  1013d7:	0f b6 74 0f 01       	movzbl 0x1(%rdi,%rcx,1),%esi
  1013dc:	48 01 de             	add    %rbx,%rsi
  1013df:	0f b6 5c 0f 02       	movzbl 0x2(%rdi,%rcx,1),%ebx
  1013e4:	48 01 f3             	add    %rsi,%rbx
  1013e7:	0f b6 74 0f 03       	movzbl 0x3(%rdi,%rcx,1),%esi
  1013ec:	48 01 de             	add    %rbx,%rsi
  1013ef:	0f b6 5c 0f 04       	movzbl 0x4(%rdi,%rcx,1),%ebx
  1013f4:	48 01 f3             	add    %rsi,%rbx
  1013f7:	0f b6 74 0f 05       	movzbl 0x5(%rdi,%rcx,1),%esi
  1013fc:	48 01 de             	add    %rbx,%rsi
  1013ff:	0f b6 5c 0f 06       	movzbl 0x6(%rdi,%rcx,1),%ebx
  101404:	48 01 f3             	add    %rsi,%rbx
  101407:	0f b6 74 0f 07       	movzbl 0x7(%rdi,%rcx,1),%esi
  10140c:	48 01 de             	add    %rbx,%rsi
  10140f:	48 83 c1 08          	add    $0x8,%rcx
  101413:	48 39 ca             	cmp    %rcx,%rdx
  101416:	75 b8                	jne    1013d0 <acpiman_setup+0x250>
  101418:	48 85 c0             	test   %rax,%rax
  10141b:	74 22                	je     10143f <acpiman_setup+0x2bf>
  10141d:	48 01 f9             	add    %rdi,%rcx
  101420:	31 d2                	xor    %edx,%edx
  101422:	66 66 66 66 66 2e 0f 	data16 data16 data16 data16 cs nopw 0x0(%rax,%rax,1)
  101429:	1f 84 00 00 00 00 00 
  101430:	0f b6 1c 11          	movzbl (%rcx,%rdx,1),%ebx
  101434:	48 01 de             	add    %rbx,%rsi
  101437:	48 ff c2             	inc    %rdx
  10143a:	48 39 d0             	cmp    %rdx,%rax
  10143d:	75 f1                	jne    101430 <acpiman_setup+0x2b0>
  10143f:	b8 88 b8 10 00       	mov    $0x10b888,%eax
  101444:	40 84 f6             	test   %sil,%sil
  101447:	0f 85 5f ff ff ff    	jne    1013ac <acpiman_setup+0x22c>
  10144d:	be a3 b8 10 00       	mov    $0x10b8a3,%esi
  101452:	ba 04 00 00 00       	mov    $0x4,%edx
  101457:	e8 54 15 00 00       	call   1029b0 <mem_cmp>
  10145c:	85 c0                	test   %eax,%eax
  10145e:	0f 84 d0 00 00 00    	je     101534 <acpiman_setup+0x3b4>
  101464:	48 8b 05 95 ab 00 00 	mov    0xab95(%rip),%rax        # 10c000 <sys_xsdt_addr>
  10146b:	44 8b 78 04          	mov    0x4(%rax),%r15d
  10146f:	49 83 c7 dc          	add    $0xffffffffffffffdc,%r15
  101473:	49 83 ff 08          	cmp    $0x8,%r15
  101477:	0f 82 aa 00 00 00    	jb     101527 <acpiman_setup+0x3a7>
  10147d:	49 c1 ef 03          	shr    $0x3,%r15
  101481:	45 31 e4             	xor    %r12d,%r12d
  101484:	4c 8d 75 d8          	lea    -0x28(%rbp),%r14
  101488:	0f 1f 84 00 00 00 00 	nopl   0x0(%rax,%rax,1)
  10148f:	00 
  101490:	48 8b 05 69 ab 00 00 	mov    0xab69(%rip),%rax        # 10c000 <sys_xsdt_addr>
  101497:	4a 8b 5c e0 24       	mov    0x24(%rax,%r12,8),%rbx
  10149c:	bf be b8 10 00       	mov    $0x10b8be,%edi
  1014a1:	e8 ba 0b 00 00       	call   102060 <draw_string>
  1014a6:	48 89 df             	mov    %rbx,%rdi
  1014a9:	e8 62 0d 00 00       	call   102210 <draw_hex>
  1014ae:	48 89 df             	mov    %rbx,%rdi
  1014b1:	e8 4a 02 00 00       	call   101700 <dbgnumout_hex>
  1014b6:	be 01 00 00 00       	mov    $0x1,%esi
  1014bb:	48 89 df             	mov    %rbx,%rdi
  1014be:	e8 ad 28 00 00       	call   103d70 <page_map_paddr>
  1014c3:	48 89 c3             	mov    %rax,%rbx
  1014c6:	48 8b 05 33 ab 00 00 	mov    0xab33(%rip),%rax        # 10c000 <sys_xsdt_addr>
  1014cd:	4a 89 5c e0 24       	mov    %rbx,0x24(%rax,%r12,8)
  1014d2:	bf 0c b9 10 00       	mov    $0x10b90c,%edi
  1014d7:	e8 84 0b 00 00       	call   102060 <draw_string>
  1014dc:	48 89 df             	mov    %rbx,%rdi
  1014df:	e8 2c 0d 00 00       	call   102210 <draw_hex>
  1014e4:	bf cc b8 10 00       	mov    $0x10b8cc,%edi
  1014e9:	e8 72 0b 00 00       	call   102060 <draw_string>
  1014ee:	c6 45 dc 00          	movb   $0x0,-0x24(%rbp)
  1014f2:	c7 45 d8 00 00 00 00 	movl   $0x0,-0x28(%rbp)
  1014f9:	ba 04 00 00 00       	mov    $0x4,%edx
  1014fe:	4c 89 f7             	mov    %r14,%rdi
  101501:	48 89 de             	mov    %rbx,%rsi
  101504:	e8 a7 10 00 00       	call   1025b0 <mem_cpy>
  101509:	4c 89 f7             	mov    %r14,%rdi
  10150c:	e8 4f 0b 00 00       	call   102060 <draw_string>
  101511:	bf d6 b8 10 00       	mov    $0x10b8d6,%edi
  101516:	e8 45 0b 00 00       	call   102060 <draw_string>
  10151b:	41 ff c4             	inc    %r12d
  10151e:	4d 39 e7             	cmp    %r12,%r15
  101521:	0f 87 69 ff ff ff    	ja     101490 <acpiman_setup+0x310>
  101527:	48 83 c4 10          	add    $0x10,%rsp
  10152b:	5b                   	pop    %rbx
  10152c:	41 5c                	pop    %r12
  10152e:	41 5e                	pop    %r14
  101530:	41 5f                	pop    %r15
  101532:	5d                   	pop    %rbp
  101533:	c3                   	ret
  101534:	b8 a8 b8 10 00       	mov    $0x10b8a8,%eax
  101539:	e9 6e fe ff ff       	jmp    1013ac <acpiman_setup+0x22c>
  10153e:	66 90                	xchg   %ax,%ax

0000000000101540 <apic_write_reg>:
  101540:	55                   	push   %rbp
  101541:	48 89 e5             	mov    %rsp,%rbp
  101544:	48 8b 05 e5 aa 00 00 	mov    0xaae5(%rip),%rax        # 10c030 <ioapic_addr>
  10154b:	89 38                	mov    %edi,(%rax)
  10154d:	89 70 10             	mov    %esi,0x10(%rax)
  101550:	5d                   	pop    %rbp
  101551:	c3                   	ret
  101552:	66 66 66 66 66 2e 0f 	data16 data16 data16 data16 cs nopw 0x0(%rax,%rax,1)
  101559:	1f 84 00 00 00 00 00 

0000000000101560 <apic_read_reg>:
  101560:	55                   	push   %rbp
  101561:	48 89 e5             	mov    %rsp,%rbp
  101564:	48 8b 05 c5 aa 00 00 	mov    0xaac5(%rip),%rax        # 10c030 <ioapic_addr>
  10156b:	89 38                	mov    %edi,(%rax)
  10156d:	8b 40 10             	mov    0x10(%rax),%eax
  101570:	5d                   	pop    %rbp
  101571:	c3                   	ret
  101572:	66 66 66 66 66 2e 0f 	data16 data16 data16 data16 cs nopw 0x0(%rax,%rax,1)
  101579:	1f 84 00 00 00 00 00 

0000000000101580 <apic_get_redir_ent>:
  101580:	55                   	push   %rbp
  101581:	48 89 e5             	mov    %rsp,%rbp
  101584:	40 00 ff             	add    %dil,%dil
  101587:	8d 47 10             	lea    0x10(%rdi),%eax
  10158a:	0f b6 c0             	movzbl %al,%eax
  10158d:	48 8b 0d 9c aa 00 00 	mov    0xaa9c(%rip),%rcx        # 10c030 <ioapic_addr>
  101594:	89 01                	mov    %eax,(%rcx)
  101596:	8b 41 10             	mov    0x10(%rcx),%eax
  101599:	89 06                	mov    %eax,(%rsi)
  10159b:	40 80 c7 11          	add    $0x11,%dil
  10159f:	40 0f b6 c7          	movzbl %dil,%eax
  1015a3:	48 8b 0d 86 aa 00 00 	mov    0xaa86(%rip),%rcx        # 10c030 <ioapic_addr>
  1015aa:	89 01                	mov    %eax,(%rcx)
  1015ac:	8b 41 10             	mov    0x10(%rcx),%eax
  1015af:	89 46 04             	mov    %eax,0x4(%rsi)
  1015b2:	5d                   	pop    %rbp
  1015b3:	c3                   	ret
  1015b4:	66 66 66 2e 0f 1f 84 	data16 data16 cs nopw 0x0(%rax,%rax,1)
  1015bb:	00 00 00 00 00 

00000000001015c0 <apic_setup>:
  1015c0:	55                   	push   %rbp
  1015c1:	48 89 e5             	mov    %rsp,%rbp
  1015c4:	41 56                	push   %r14
  1015c6:	53                   	push   %rbx
  1015c7:	b0 ff                	mov    $0xff,%al
  1015c9:	e6 a1                	out    %al,$0xa1
  1015cb:	b0 ff                	mov    $0xff,%al
  1015cd:	e6 21                	out    %al,$0x21
  1015cf:	bf dc b8 10 00       	mov    $0x10b8dc,%edi
  1015d4:	e8 27 fb ff ff       	call   101100 <acpiman_get_tab>
  1015d9:	48 89 05 58 aa 00 00 	mov    %rax,0xaa58(%rip)        # 10c038 <madt>
  1015e0:	bf e1 b8 10 00       	mov    $0x10b8e1,%edi
  1015e5:	e8 76 0a 00 00       	call   102060 <draw_string>
  1015ea:	48 8b 05 47 aa 00 00 	mov    0xaa47(%rip),%rax        # 10c038 <madt>
  1015f1:	8b 78 24             	mov    0x24(%rax),%edi
  1015f4:	e8 17 0c 00 00       	call   102210 <draw_hex>
  1015f9:	48 8b 1d 38 aa 00 00 	mov    0xaa38(%rip),%rbx        # 10c038 <madt>
  101600:	83 7b 04 2d          	cmpl   $0x2d,0x4(%rbx)
  101604:	0f 82 95 00 00 00    	jb     10169f <apic_setup+0xdf>
  10160a:	48 83 c3 2c          	add    $0x2c,%rbx
  10160e:	eb 1c                	jmp    10162c <apic_setup+0x6c>
  101610:	0f b6 43 01          	movzbl 0x1(%rbx),%eax
  101614:	48 01 c3             	add    %rax,%rbx
  101617:	48 8b 05 1a aa 00 00 	mov    0xaa1a(%rip),%rax        # 10c038 <madt>
  10161e:	48 89 d9             	mov    %rbx,%rcx
  101621:	48 29 c1             	sub    %rax,%rcx
  101624:	8b 40 04             	mov    0x4(%rax),%eax
  101627:	48 39 c1             	cmp    %rax,%rcx
  10162a:	73 73                	jae    10169f <apic_setup+0xdf>
  10162c:	bf ec b8 10 00       	mov    $0x10b8ec,%edi
  101631:	e8 2a 0a 00 00       	call   102060 <draw_string>
  101636:	0f b6 3b             	movzbl (%rbx),%edi
  101639:	e8 d2 0b 00 00       	call   102210 <draw_hex>
  10163e:	80 3b 01             	cmpb   $0x1,(%rbx)
  101641:	75 cd                	jne    101610 <apic_setup+0x50>
  101643:	83 7b 08 00          	cmpl   $0x0,0x8(%rbx)
  101647:	75 c7                	jne    101610 <apic_setup+0x50>
  101649:	be 01 00 00 00       	mov    $0x1,%esi
  10164e:	48 89 df             	mov    %rbx,%rdi
  101651:	e8 1a 27 00 00       	call   103d70 <page_map_paddr>
  101656:	48 89 05 d3 a9 00 00 	mov    %rax,0xa9d3(%rip)        # 10c030 <ioapic_addr>
  10165d:	bf 01 b9 10 00       	mov    $0x10b901,%edi
  101662:	e8 f9 09 00 00       	call   102060 <draw_string>
  101667:	48 8b 3d c2 a9 00 00 	mov    0xa9c2(%rip),%rdi        # 10c030 <ioapic_addr>
  10166e:	e8 9d 0b 00 00       	call   102210 <draw_hex>
  101673:	48 8b 05 b6 a9 00 00 	mov    0xa9b6(%rip),%rax        # 10c030 <ioapic_addr>
  10167a:	8b 78 10             	mov    0x10(%rax),%edi
  10167d:	49 89 fe             	mov    %rdi,%r14
  101680:	49 c1 e6 20          	shl    $0x20,%r14
  101684:	49 09 fe             	or     %rdi,%r14
  101687:	c7 00 00 00 00 00    	movl   $0x0,(%rax)
  10168d:	e8 7e 0b 00 00       	call   102210 <draw_hex>
  101692:	4c 89 f7             	mov    %r14,%rdi
  101695:	e8 76 0b 00 00       	call   102210 <draw_hex>
  10169a:	e9 71 ff ff ff       	jmp    101610 <apic_setup+0x50>
  10169f:	5b                   	pop    %rbx
  1016a0:	41 5e                	pop    %r14
  1016a2:	5d                   	pop    %rbp
  1016a3:	c3                   	ret
  1016a4:	66 2e 0f 1f 84 00 00 	cs nopw 0x0(%rax,%rax,1)
  1016ab:	00 00 00 
  1016ae:	66 90                	xchg   %ax,%ax

00000000001016b0 <dbgconchar>:
  1016b0:	55                   	push   %rbp
  1016b1:	48 89 e5             	mov    %rsp,%rbp
  1016b4:	89 f8                	mov    %edi,%eax
  1016b6:	e6 e9                	out    %al,$0xe9
  1016b8:	66 ba 79 03          	mov    $0x379,%dx
  1016bc:	ec                   	in     (%dx),%al
  1016bd:	89 f8                	mov    %edi,%eax
  1016bf:	66 ba 78 03          	mov    $0x378,%dx
  1016c3:	ee                   	out    %al,(%dx)
  1016c4:	66 ba 7a 03          	mov    $0x37a,%dx
  1016c8:	ec                   	in     (%dx),%al
  1016c9:	89 c1                	mov    %eax,%ecx
  1016cb:	0c 01                	or     $0x1,%al
  1016cd:	66 ba 7a 03          	mov    $0x37a,%dx
  1016d1:	ee                   	out    %al,(%dx)
  1016d2:	31 c0                	xor    %eax,%eax
  1016d4:	e6 80                	out    %al,$0x80
  1016d6:	89 c8                	mov    %ecx,%eax
  1016d8:	66 ba 7a 03          	mov    $0x37a,%dx
  1016dc:	ee                   	out    %al,(%dx)
  1016dd:	66 ba 79 03          	mov    $0x379,%dx
  1016e1:	ec                   	in     (%dx),%al
  1016e2:	5d                   	pop    %rbp
  1016e3:	c3                   	ret
  1016e4:	66 66 66 2e 0f 1f 84 	data16 data16 cs nopw 0x0(%rax,%rax,1)
  1016eb:	00 00 00 00 00 

00000000001016f0 <dbg_crash>:
  1016f0:	55                   	push   %rbp
  1016f1:	48 89 e5             	mov    %rsp,%rbp
  1016f4:	48 c7 c0 00 00 00 00 	mov    $0x0,%rax
  1016fb:	0f 22 d8             	mov    %rax,%cr3
  1016fe:	5d                   	pop    %rbp
  1016ff:	c3                   	ret

0000000000101700 <dbgnumout_hex>:
  101700:	55                   	push   %rbp
  101701:	48 89 e5             	mov    %rsp,%rbp
  101704:	b9 3c 00 00 00       	mov    $0x3c,%ecx
  101709:	0f 1f 80 00 00 00 00 	nopl   0x0(%rax)
  101710:	48 89 f8             	mov    %rdi,%rax
  101713:	48 d3 e8             	shr    %cl,%rax
  101716:	83 e0 0f             	and    $0xf,%eax
  101719:	0f b6 b0 80 ba 10 00 	movzbl 0x10ba80(%rax),%esi
  101720:	89 f0                	mov    %esi,%eax
  101722:	e6 e9                	out    %al,$0xe9
  101724:	66 ba 79 03          	mov    $0x379,%dx
  101728:	ec                   	in     (%dx),%al
  101729:	89 f0                	mov    %esi,%eax
  10172b:	66 ba 78 03          	mov    $0x378,%dx
  10172f:	ee                   	out    %al,(%dx)
  101730:	66 ba 7a 03          	mov    $0x37a,%dx
  101734:	ec                   	in     (%dx),%al
  101735:	89 c6                	mov    %eax,%esi
  101737:	0c 01                	or     $0x1,%al
  101739:	66 ba 7a 03          	mov    $0x37a,%dx
  10173d:	ee                   	out    %al,(%dx)
  10173e:	31 c0                	xor    %eax,%eax
  101740:	e6 80                	out    %al,$0x80
  101742:	89 f0                	mov    %esi,%eax
  101744:	66 ba 7a 03          	mov    $0x37a,%dx
  101748:	ee                   	out    %al,(%dx)
  101749:	66 ba 79 03          	mov    $0x379,%dx
  10174d:	ec                   	in     (%dx),%al
  10174e:	48 83 c1 fc          	add    $0xfffffffffffffffc,%rcx
  101752:	48 83 f9 fc          	cmp    $0xfffffffffffffffc,%rcx
  101756:	75 b8                	jne    101710 <dbgnumout_hex+0x10>
  101758:	b0 0d                	mov    $0xd,%al
  10175a:	e6 e9                	out    %al,$0xe9
  10175c:	66 ba 79 03          	mov    $0x379,%dx
  101760:	ec                   	in     (%dx),%al
  101761:	b0 0d                	mov    $0xd,%al
  101763:	66 ba 78 03          	mov    $0x378,%dx
  101767:	ee                   	out    %al,(%dx)
  101768:	66 ba 7a 03          	mov    $0x37a,%dx
  10176c:	ec                   	in     (%dx),%al
  10176d:	89 c1                	mov    %eax,%ecx
  10176f:	0c 01                	or     $0x1,%al
  101771:	66 ba 7a 03          	mov    $0x37a,%dx
  101775:	ee                   	out    %al,(%dx)
  101776:	31 c0                	xor    %eax,%eax
  101778:	e6 80                	out    %al,$0x80
  10177a:	89 c8                	mov    %ecx,%eax
  10177c:	66 ba 7a 03          	mov    $0x37a,%dx
  101780:	ee                   	out    %al,(%dx)
  101781:	66 ba 79 03          	mov    $0x379,%dx
  101785:	ec                   	in     (%dx),%al
  101786:	b0 0a                	mov    $0xa,%al
  101788:	e6 e9                	out    %al,$0xe9
  10178a:	66 ba 79 03          	mov    $0x379,%dx
  10178e:	ec                   	in     (%dx),%al
  10178f:	b0 0a                	mov    $0xa,%al
  101791:	66 ba 78 03          	mov    $0x378,%dx
  101795:	ee                   	out    %al,(%dx)
  101796:	66 ba 7a 03          	mov    $0x37a,%dx
  10179a:	ec                   	in     (%dx),%al
  10179b:	89 c1                	mov    %eax,%ecx
  10179d:	0c 01                	or     $0x1,%al
  10179f:	66 ba 7a 03          	mov    $0x37a,%dx
  1017a3:	ee                   	out    %al,(%dx)
  1017a4:	31 c0                	xor    %eax,%eax
  1017a6:	e6 80                	out    %al,$0x80
  1017a8:	89 c8                	mov    %ecx,%eax
  1017aa:	66 ba 7a 03          	mov    $0x37a,%dx
  1017ae:	ee                   	out    %al,(%dx)
  1017af:	66 ba 79 03          	mov    $0x379,%dx
  1017b3:	ec                   	in     (%dx),%al
  1017b4:	5d                   	pop    %rbp
  1017b5:	c3                   	ret
  1017b6:	66 2e 0f 1f 84 00 00 	cs nopw 0x0(%rax,%rax,1)
  1017bd:	00 00 00 

00000000001017c0 <dbgnumout_bin>:
  1017c0:	55                   	push   %rbp
  1017c1:	48 89 e5             	mov    %rsp,%rbp
  1017c4:	be 3f 00 00 00       	mov    $0x3f,%esi
  1017c9:	0f 1f 80 00 00 00 00 	nopl   0x0(%rax)
  1017d0:	48 0f a3 f7          	bt     %rsi,%rdi
  1017d4:	0f 92 c1             	setb   %cl
  1017d7:	80 c9 30             	or     $0x30,%cl
  1017da:	89 c8                	mov    %ecx,%eax
  1017dc:	e6 e9                	out    %al,$0xe9
  1017de:	66 ba 79 03          	mov    $0x379,%dx
  1017e2:	ec                   	in     (%dx),%al
  1017e3:	89 c8                	mov    %ecx,%eax
  1017e5:	66 ba 78 03          	mov    $0x378,%dx
  1017e9:	ee                   	out    %al,(%dx)
  1017ea:	66 ba 7a 03          	mov    $0x37a,%dx
  1017ee:	ec                   	in     (%dx),%al
  1017ef:	89 c1                	mov    %eax,%ecx
  1017f1:	0c 01                	or     $0x1,%al
  1017f3:	66 ba 7a 03          	mov    $0x37a,%dx
  1017f7:	ee                   	out    %al,(%dx)
  1017f8:	31 c0                	xor    %eax,%eax
  1017fa:	e6 80                	out    %al,$0x80
  1017fc:	89 c8                	mov    %ecx,%eax
  1017fe:	66 ba 7a 03          	mov    $0x37a,%dx
  101802:	ee                   	out    %al,(%dx)
  101803:	66 ba 79 03          	mov    $0x379,%dx
  101807:	ec                   	in     (%dx),%al
  101808:	48 83 c6 ff          	add    $0xffffffffffffffff,%rsi
  10180c:	72 c2                	jb     1017d0 <dbgnumout_bin+0x10>
  10180e:	b0 0d                	mov    $0xd,%al
  101810:	e6 e9                	out    %al,$0xe9
  101812:	66 ba 79 03          	mov    $0x379,%dx
  101816:	ec                   	in     (%dx),%al
  101817:	b0 0d                	mov    $0xd,%al
  101819:	66 ba 78 03          	mov    $0x378,%dx
  10181d:	ee                   	out    %al,(%dx)
  10181e:	66 ba 7a 03          	mov    $0x37a,%dx
  101822:	ec                   	in     (%dx),%al
  101823:	89 c1                	mov    %eax,%ecx
  101825:	0c 01                	or     $0x1,%al
  101827:	66 ba 7a 03          	mov    $0x37a,%dx
  10182b:	ee                   	out    %al,(%dx)
  10182c:	31 c0                	xor    %eax,%eax
  10182e:	e6 80                	out    %al,$0x80
  101830:	89 c8                	mov    %ecx,%eax
  101832:	66 ba 7a 03          	mov    $0x37a,%dx
  101836:	ee                   	out    %al,(%dx)
  101837:	66 ba 79 03          	mov    $0x379,%dx
  10183b:	ec                   	in     (%dx),%al
  10183c:	b0 0a                	mov    $0xa,%al
  10183e:	e6 e9                	out    %al,$0xe9
  101840:	66 ba 79 03          	mov    $0x379,%dx
  101844:	ec                   	in     (%dx),%al
  101845:	b0 0a                	mov    $0xa,%al
  101847:	66 ba 78 03          	mov    $0x378,%dx
  10184b:	ee                   	out    %al,(%dx)
  10184c:	66 ba 7a 03          	mov    $0x37a,%dx
  101850:	ec                   	in     (%dx),%al
  101851:	89 c1                	mov    %eax,%ecx
  101853:	0c 01                	or     $0x1,%al
  101855:	66 ba 7a 03          	mov    $0x37a,%dx
  101859:	ee                   	out    %al,(%dx)
  10185a:	31 c0                	xor    %eax,%eax
  10185c:	e6 80                	out    %al,$0x80
  10185e:	89 c8                	mov    %ecx,%eax
  101860:	66 ba 7a 03          	mov    $0x37a,%dx
  101864:	ee                   	out    %al,(%dx)
  101865:	66 ba 79 03          	mov    $0x379,%dx
  101869:	ec                   	in     (%dx),%al
  10186a:	5d                   	pop    %rbp
  10186b:	c3                   	ret
  10186c:	0f 1f 40 00          	nopl   0x0(%rax)

0000000000101870 <dbgconout>:
  101870:	55                   	push   %rbp
  101871:	48 89 e5             	mov    %rsp,%rbp
  101874:	0f b6 0f             	movzbl (%rdi),%ecx
  101877:	84 c9                	test   %cl,%cl
  101879:	74 3d                	je     1018b8 <dbgconout+0x48>
  10187b:	48 ff c7             	inc    %rdi
  10187e:	66 90                	xchg   %ax,%ax
  101880:	89 c8                	mov    %ecx,%eax
  101882:	e6 e9                	out    %al,$0xe9
  101884:	66 ba 79 03          	mov    $0x379,%dx
  101888:	ec                   	in     (%dx),%al
  101889:	89 c8                	mov    %ecx,%eax
  10188b:	66 ba 78 03          	mov    $0x378,%dx
  10188f:	ee                   	out    %al,(%dx)
  101890:	66 ba 7a 03          	mov    $0x37a,%dx
  101894:	ec                   	in     (%dx),%al
  101895:	89 c1                	mov    %eax,%ecx
  101897:	0c 01                	or     $0x1,%al
  101899:	66 ba 7a 03          	mov    $0x37a,%dx
  10189d:	ee                   	out    %al,(%dx)
  10189e:	31 c0                	xor    %eax,%eax
  1018a0:	e6 80                	out    %al,$0x80
  1018a2:	89 c8                	mov    %ecx,%eax
  1018a4:	66 ba 7a 03          	mov    $0x37a,%dx
  1018a8:	ee                   	out    %al,(%dx)
  1018a9:	66 ba 79 03          	mov    $0x379,%dx
  1018ad:	ec                   	in     (%dx),%al
  1018ae:	0f b6 0f             	movzbl (%rdi),%ecx
  1018b1:	48 ff c7             	inc    %rdi
  1018b4:	84 c9                	test   %cl,%cl
  1018b6:	75 c8                	jne    101880 <dbgconout+0x10>
  1018b8:	5d                   	pop    %rbp
  1018b9:	c3                   	ret
  1018ba:	66 0f 1f 44 00 00    	nopw   0x0(%rax,%rax,1)

00000000001018c0 <diskman_reg_disk>:
  1018c0:	55                   	push   %rbp
  1018c1:	48 89 e5             	mov    %rsp,%rbp
  1018c4:	5d                   	pop    %rbp
  1018c5:	c3                   	ret
  1018c6:	66 2e 0f 1f 84 00 00 	cs nopw 0x0(%rax,%rax,1)
  1018cd:	00 00 00 

00000000001018d0 <draw_char_at>:
  1018d0:	55                   	push   %rbp
  1018d1:	48 89 e5             	mov    %rsp,%rbp
  1018d4:	41 57                	push   %r15
  1018d6:	41 56                	push   %r14
  1018d8:	41 55                	push   %r13
  1018da:	41 54                	push   %r12
  1018dc:	53                   	push   %rbx
  1018dd:	48 83 ec 28          	sub    $0x28,%rsp
  1018e1:	8d 47 99             	lea    -0x67(%rdi),%eax
  1018e4:	83 f8 12             	cmp    $0x12,%eax
  1018e7:	77 10                	ja     1018f9 <draw_char_at+0x29>
  1018e9:	b9 01 06 04 00       	mov    $0x40601,%ecx
  1018ee:	0f a3 c1             	bt     %eax,%ecx
  1018f1:	73 06                	jae    1018f9 <draw_char_at+0x29>
  1018f3:	48 83 c2 03          	add    $0x3,%rdx
  1018f7:	eb 13                	jmp    10190c <draw_char_at+0x3c>
  1018f9:	85 ff                	test   %edi,%edi
  1018fb:	75 0f                	jne    10190c <draw_char_at+0x3c>
  1018fd:	48 83 c4 28          	add    $0x28,%rsp
  101901:	5b                   	pop    %rbx
  101902:	41 5c                	pop    %r12
  101904:	41 5d                	pop    %r13
  101906:	41 5e                	pop    %r14
  101908:	41 5f                	pop    %r15
  10190a:	5d                   	pop    %rbp
  10190b:	c3                   	ret
  10190c:	49 bb 00 00 00 00 e0 	movabs $0xfe000000000,%r11
  101913:	0f 00 00 
  101916:	41 89 fd             	mov    %edi,%r13d
  101919:	41 83 e5 07          	and    $0x7,%r13d
  10191d:	48 8d 46 01          	lea    0x1(%rsi),%rax
  101921:	48 89 45 b0          	mov    %rax,-0x50(%rbp)
  101925:	48 8d 46 02          	lea    0x2(%rsi),%rax
  101929:	48 89 45 b8          	mov    %rax,-0x48(%rbp)
  10192d:	48 8d 46 03          	lea    0x3(%rsi),%rax
  101931:	48 89 45 c0          	mov    %rax,-0x40(%rbp)
  101935:	48 8d 46 04          	lea    0x4(%rsi),%rax
  101939:	48 89 45 c8          	mov    %rax,-0x38(%rbp)
  10193d:	48 8d 46 05          	lea    0x5(%rsi),%rax
  101941:	48 89 45 d0          	mov    %rax,-0x30(%rbp)
  101945:	4c 8d 7e 06          	lea    0x6(%rsi),%r15
  101949:	4c 8d 66 07          	lea    0x7(%rsi),%r12
  10194d:	44 0f b6 f7          	movzbl %dil,%r14d
  101951:	41 c1 e6 03          	shl    $0x3,%r14d
  101955:	41 81 e6 c0 07 00 00 	and    $0x7c0,%r14d
  10195c:	31 db                	xor    %ebx,%ebx
  10195e:	eb 0d                	jmp    10196d <draw_char_at+0x9d>
  101960:	48 ff c3             	inc    %rbx
  101963:	49 83 c6 08          	add    $0x8,%r14
  101967:	48 83 fb 08          	cmp    $0x8,%rbx
  10196b:	74 90                	je     1018fd <draw_char_at+0x2d>
  10196d:	4c 89 f1             	mov    %r14,%rcx
  101970:	4c 09 e9             	or     %r13,%rcx
  101973:	44 0f b6 81 00 b0 10 	movzbl 0x10b000(%rcx),%r8d
  10197a:	00 
  10197b:	48 8d 0c 1a          	lea    (%rdx,%rbx,1),%rcx
  10197f:	41 f6 c0 01          	test   $0x1,%r8b
  101983:	74 4b                	je     1019d0 <draw_char_at+0x100>
  101985:	41 f6 c0 02          	test   $0x2,%r8b
  101989:	74 70                	je     1019fb <draw_char_at+0x12b>
  10198b:	41 f6 c0 04          	test   $0x4,%r8b
  10198f:	0f 84 96 00 00 00    	je     101a2b <draw_char_at+0x15b>
  101995:	41 f6 c0 08          	test   $0x8,%r8b
  101999:	0f 84 bc 00 00 00    	je     101a5b <draw_char_at+0x18b>
  10199f:	41 f6 c0 10          	test   $0x10,%r8b
  1019a3:	0f 84 e2 00 00 00    	je     101a8b <draw_char_at+0x1bb>
  1019a9:	41 f6 c0 20          	test   $0x20,%r8b
  1019ad:	0f 84 08 01 00 00    	je     101abb <draw_char_at+0x1eb>
  1019b3:	41 f6 c0 40          	test   $0x40,%r8b
  1019b7:	0f 84 2e 01 00 00    	je     101aeb <draw_char_at+0x21b>
  1019bd:	45 84 c0             	test   %r8b,%r8b
  1019c0:	0f 89 53 01 00 00    	jns    101b19 <draw_char_at+0x249>
  1019c6:	eb 98                	jmp    101960 <draw_char_at+0x90>
  1019c8:	0f 1f 84 00 00 00 00 	nopl   0x0(%rax,%rax,1)
  1019cf:	00 
  1019d0:	4c 8b 0d 91 a6 00 00 	mov    0xa691(%rip),%r9        # 10c068 <bb>
  1019d7:	4c 0f af ce          	imul   %rsi,%r9
  1019db:	49 c1 e9 03          	shr    $0x3,%r9
  1019df:	4c 8b 15 8a a6 00 00 	mov    0xa68a(%rip),%r10        # 10c070 <p>
  1019e6:	4c 0f af d1          	imul   %rcx,%r10
  1019ea:	4d 01 ca             	add    %r9,%r10
  1019ed:	43 c7 04 13 ff ff ff 	movl   $0xffffffff,(%r11,%r10,1)
  1019f4:	ff 
  1019f5:	41 f6 c0 02          	test   $0x2,%r8b
  1019f9:	75 90                	jne    10198b <draw_char_at+0xbb>
  1019fb:	48 8b 05 66 a6 00 00 	mov    0xa666(%rip),%rax        # 10c068 <bb>
  101a02:	48 0f af 45 b0       	imul   -0x50(%rbp),%rax
  101a07:	48 c1 e8 03          	shr    $0x3,%rax
  101a0b:	48 8b 3d 5e a6 00 00 	mov    0xa65e(%rip),%rdi        # 10c070 <p>
  101a12:	48 0f af f9          	imul   %rcx,%rdi
  101a16:	48 01 c7             	add    %rax,%rdi
  101a19:	41 c7 04 3b ff ff ff 	movl   $0xffffffff,(%r11,%rdi,1)
  101a20:	ff 
  101a21:	41 f6 c0 04          	test   $0x4,%r8b
  101a25:	0f 85 6a ff ff ff    	jne    101995 <draw_char_at+0xc5>
  101a2b:	48 8b 05 36 a6 00 00 	mov    0xa636(%rip),%rax        # 10c068 <bb>
  101a32:	48 0f af 45 b8       	imul   -0x48(%rbp),%rax
  101a37:	48 c1 e8 03          	shr    $0x3,%rax
  101a3b:	48 8b 3d 2e a6 00 00 	mov    0xa62e(%rip),%rdi        # 10c070 <p>
  101a42:	48 0f af f9          	imul   %rcx,%rdi
  101a46:	48 01 c7             	add    %rax,%rdi
  101a49:	41 c7 04 3b ff ff ff 	movl   $0xffffffff,(%r11,%rdi,1)
  101a50:	ff 
  101a51:	41 f6 c0 08          	test   $0x8,%r8b
  101a55:	0f 85 44 ff ff ff    	jne    10199f <draw_char_at+0xcf>
  101a5b:	48 8b 05 06 a6 00 00 	mov    0xa606(%rip),%rax        # 10c068 <bb>
  101a62:	48 0f af 45 c0       	imul   -0x40(%rbp),%rax
  101a67:	48 c1 e8 03          	shr    $0x3,%rax
  101a6b:	48 8b 3d fe a5 00 00 	mov    0xa5fe(%rip),%rdi        # 10c070 <p>
  101a72:	48 0f af f9          	imul   %rcx,%rdi
  101a76:	48 01 c7             	add    %rax,%rdi
  101a79:	41 c7 04 3b ff ff ff 	movl   $0xffffffff,(%r11,%rdi,1)
  101a80:	ff 
  101a81:	41 f6 c0 10          	test   $0x10,%r8b
  101a85:	0f 85 1e ff ff ff    	jne    1019a9 <draw_char_at+0xd9>
  101a8b:	48 8b 05 d6 a5 00 00 	mov    0xa5d6(%rip),%rax        # 10c068 <bb>
  101a92:	48 0f af 45 c8       	imul   -0x38(%rbp),%rax
  101a97:	48 c1 e8 03          	shr    $0x3,%rax
  101a9b:	48 8b 3d ce a5 00 00 	mov    0xa5ce(%rip),%rdi        # 10c070 <p>
  101aa2:	48 0f af f9          	imul   %rcx,%rdi
  101aa6:	48 01 c7             	add    %rax,%rdi
  101aa9:	41 c7 04 3b ff ff ff 	movl   $0xffffffff,(%r11,%rdi,1)
  101ab0:	ff 
  101ab1:	41 f6 c0 20          	test   $0x20,%r8b
  101ab5:	0f 85 f8 fe ff ff    	jne    1019b3 <draw_char_at+0xe3>
  101abb:	48 8b 05 a6 a5 00 00 	mov    0xa5a6(%rip),%rax        # 10c068 <bb>
  101ac2:	48 0f af 45 d0       	imul   -0x30(%rbp),%rax
  101ac7:	48 c1 e8 03          	shr    $0x3,%rax
  101acb:	48 8b 3d 9e a5 00 00 	mov    0xa59e(%rip),%rdi        # 10c070 <p>
  101ad2:	48 0f af f9          	imul   %rcx,%rdi
  101ad6:	48 01 c7             	add    %rax,%rdi
  101ad9:	41 c7 04 3b ff ff ff 	movl   $0xffffffff,(%r11,%rdi,1)
  101ae0:	ff 
  101ae1:	41 f6 c0 40          	test   $0x40,%r8b
  101ae5:	0f 85 d2 fe ff ff    	jne    1019bd <draw_char_at+0xed>
  101aeb:	48 8b 05 76 a5 00 00 	mov    0xa576(%rip),%rax        # 10c068 <bb>
  101af2:	49 0f af c7          	imul   %r15,%rax
  101af6:	48 c1 e8 03          	shr    $0x3,%rax
  101afa:	48 8b 3d 6f a5 00 00 	mov    0xa56f(%rip),%rdi        # 10c070 <p>
  101b01:	48 0f af f9          	imul   %rcx,%rdi
  101b05:	48 01 c7             	add    %rax,%rdi
  101b08:	41 c7 04 3b ff ff ff 	movl   $0xffffffff,(%r11,%rdi,1)
  101b0f:	ff 
  101b10:	45 84 c0             	test   %r8b,%r8b
  101b13:	0f 88 47 fe ff ff    	js     101960 <draw_char_at+0x90>
  101b19:	48 8b 05 48 a5 00 00 	mov    0xa548(%rip),%rax        # 10c068 <bb>
  101b20:	49 0f af c4          	imul   %r12,%rax
  101b24:	48 c1 e8 03          	shr    $0x3,%rax
  101b28:	48 0f af 0d 40 a5 00 	imul   0xa540(%rip),%rcx        # 10c070 <p>
  101b2f:	00 
  101b30:	48 01 c1             	add    %rax,%rcx
  101b33:	41 c7 04 0b ff ff ff 	movl   $0xffffffff,(%r11,%rcx,1)
  101b3a:	ff 
  101b3b:	e9 20 fe ff ff       	jmp    101960 <draw_char_at+0x90>

0000000000101b40 <draw_swap_textbuf>:
  101b40:	55                   	push   %rbp
  101b41:	48 89 e5             	mov    %rsp,%rbp
  101b44:	41 57                	push   %r15
  101b46:	41 56                	push   %r14
  101b48:	53                   	push   %rbx
  101b49:	50                   	push   %rax
  101b4a:	48 8b 05 ef a4 00 00 	mov    0xa4ef(%rip),%rax        # 10c040 <th>
  101b51:	48 8b 0d f0 a4 00 00 	mov    0xa4f0(%rip),%rcx        # 10c048 <tw>
  101b58:	48 89 ca             	mov    %rcx,%rdx
  101b5b:	48 0f af d0          	imul   %rax,%rdx
  101b5f:	48 85 d2             	test   %rdx,%rdx
  101b62:	0f 84 99 00 00 00    	je     101c01 <draw_swap_textbuf+0xc1>
  101b68:	45 31 f6             	xor    %r14d,%r14d
  101b6b:	eb 1f                	jmp    101b8c <draw_swap_textbuf+0x4c>
  101b6d:	0f 1f 00             	nopl   (%rax)
  101b70:	48 8b 05 c9 a4 00 00 	mov    0xa4c9(%rip),%rax        # 10c040 <th>
  101b77:	48 89 ca             	mov    %rcx,%rdx
  101b7a:	49 01 d6             	add    %rdx,%r14
  101b7d:	48 89 d6             	mov    %rdx,%rsi
  101b80:	48 0f af f0          	imul   %rax,%rsi
  101b84:	48 89 d1             	mov    %rdx,%rcx
  101b87:	49 39 f6             	cmp    %rsi,%r14
  101b8a:	73 75                	jae    101c01 <draw_swap_textbuf+0xc1>
  101b8c:	ba 00 00 00 00       	mov    $0x0,%edx
  101b91:	41 bf 00 00 00 00    	mov    $0x0,%r15d
  101b97:	bb 00 00 00 00       	mov    $0x0,%ebx
  101b9c:	48 85 c9             	test   %rcx,%rcx
  101b9f:	75 3d                	jne    101bde <draw_swap_textbuf+0x9e>
  101ba1:	eb d7                	jmp    101b7a <draw_swap_textbuf+0x3a>
  101ba3:	66 66 66 66 2e 0f 1f 	data16 data16 data16 cs nopw 0x0(%rax,%rax,1)
  101baa:	84 00 00 00 00 00 
  101bb0:	4c 89 f0             	mov    %r14,%rax
  101bb3:	31 d2                	xor    %edx,%edx
  101bb5:	48 f7 f1             	div    %rcx
  101bb8:	48 01 c0             	add    %rax,%rax
  101bbb:	48 8d 14 80          	lea    (%rax,%rax,4),%rdx
  101bbf:	40 0f b6 fe          	movzbl %sil,%edi
  101bc3:	4c 89 fe             	mov    %r15,%rsi
  101bc6:	e8 05 fd ff ff       	call   1018d0 <draw_char_at>
  101bcb:	48 ff c3             	inc    %rbx
  101bce:	48 8b 0d 73 a4 00 00 	mov    0xa473(%rip),%rcx        # 10c048 <tw>
  101bd5:	49 83 c7 08          	add    $0x8,%r15
  101bd9:	48 39 cb             	cmp    %rcx,%rbx
  101bdc:	73 92                	jae    101b70 <draw_swap_textbuf+0x30>
  101bde:	48 8b 05 6b a4 00 00 	mov    0xa46b(%rip),%rax        # 10c050 <text_buf>
  101be5:	4c 01 f0             	add    %r14,%rax
  101be8:	0f b6 34 03          	movzbl (%rbx,%rax,1),%esi
  101bec:	4c 89 f0             	mov    %r14,%rax
  101bef:	48 09 c8             	or     %rcx,%rax
  101bf2:	48 c1 e8 20          	shr    $0x20,%rax
  101bf6:	75 b8                	jne    101bb0 <draw_swap_textbuf+0x70>
  101bf8:	44 89 f0             	mov    %r14d,%eax
  101bfb:	31 d2                	xor    %edx,%edx
  101bfd:	f7 f1                	div    %ecx
  101bff:	eb b7                	jmp    101bb8 <draw_swap_textbuf+0x78>
  101c01:	48 83 c4 08          	add    $0x8,%rsp
  101c05:	5b                   	pop    %rbx
  101c06:	41 5e                	pop    %r14
  101c08:	41 5f                	pop    %r15
  101c0a:	5d                   	pop    %rbp
  101c0b:	c3                   	ret
  101c0c:	0f 1f 40 00          	nopl   0x0(%rax)

0000000000101c10 <draw_setup>:
  101c10:	55                   	push   %rbp
  101c11:	48 89 e5             	mov    %rsp,%rbp
  101c14:	41 57                	push   %r15
  101c16:	41 56                	push   %r14
  101c18:	41 54                	push   %r12
  101c1a:	53                   	push   %rbx
  101c1b:	49 89 d6             	mov    %rdx,%r14
  101c1e:	49 89 f7             	mov    %rsi,%r15
  101c21:	49 89 fc             	mov    %rdi,%r12
  101c24:	48 89 35 2d a4 00 00 	mov    %rsi,0xa42d(%rip)        # 10c058 <w>
  101c2b:	48 89 15 2e a4 00 00 	mov    %rdx,0xa42e(%rip)        # 10c060 <h>
  101c32:	48 89 0d 2f a4 00 00 	mov    %rcx,0xa42f(%rip)        # 10c068 <bb>
  101c39:	4c 89 05 30 a4 00 00 	mov    %r8,0xa430(%rip)        # 10c070 <p>
  101c40:	48 bb 00 00 00 00 e0 	movabs $0xfe000000000,%rbx
  101c47:	0f 00 00 
  101c4a:	48 89 de             	mov    %rbx,%rsi
  101c4d:	e8 ae 1d 00 00       	call   103a00 <page_alloc_dev>
  101c52:	49 8d bc 24 00 00 20 	lea    0x200000(%r12),%rdi
  101c59:	00 
  101c5a:	48 8d b3 00 00 20 00 	lea    0x200000(%rbx),%rsi
  101c61:	e8 9a 1d 00 00       	call   103a00 <page_alloc_dev>
  101c66:	49 8d bc 24 00 00 40 	lea    0x400000(%r12),%rdi
  101c6d:	00 
  101c6e:	48 8d b3 00 00 40 00 	lea    0x400000(%rbx),%rsi
  101c75:	e8 86 1d 00 00       	call   103a00 <page_alloc_dev>
  101c7a:	49 8d bc 24 00 00 60 	lea    0x600000(%r12),%rdi
  101c81:	00 
  101c82:	48 8d b3 00 00 60 00 	lea    0x600000(%rbx),%rsi
  101c89:	e8 72 1d 00 00       	call   103a00 <page_alloc_dev>
  101c8e:	49 8d bc 24 00 00 80 	lea    0x800000(%r12),%rdi
  101c95:	00 
  101c96:	48 8d b3 00 00 80 00 	lea    0x800000(%rbx),%rsi
  101c9d:	e8 5e 1d 00 00       	call   103a00 <page_alloc_dev>
  101ca2:	49 8d bc 24 00 00 a0 	lea    0xa00000(%r12),%rdi
  101ca9:	00 
  101caa:	48 8d b3 00 00 a0 00 	lea    0xa00000(%rbx),%rsi
  101cb1:	e8 4a 1d 00 00       	call   103a00 <page_alloc_dev>
  101cb6:	49 8d bc 24 00 00 c0 	lea    0xc00000(%r12),%rdi
  101cbd:	00 
  101cbe:	48 8d b3 00 00 c0 00 	lea    0xc00000(%rbx),%rsi
  101cc5:	e8 36 1d 00 00       	call   103a00 <page_alloc_dev>
  101cca:	49 8d bc 24 00 00 e0 	lea    0xe00000(%r12),%rdi
  101cd1:	00 
  101cd2:	48 8d b3 00 00 e0 00 	lea    0xe00000(%rbx),%rsi
  101cd9:	e8 22 1d 00 00       	call   103a00 <page_alloc_dev>
  101cde:	49 8d bc 24 00 00 00 	lea    0x1000000(%r12),%rdi
  101ce5:	01 
  101ce6:	48 8d b3 00 00 00 01 	lea    0x1000000(%rbx),%rsi
  101ced:	e8 0e 1d 00 00       	call   103a00 <page_alloc_dev>
  101cf2:	49 8d bc 24 00 00 20 	lea    0x1200000(%r12),%rdi
  101cf9:	01 
  101cfa:	48 8d b3 00 00 20 01 	lea    0x1200000(%rbx),%rsi
  101d01:	e8 fa 1c 00 00       	call   103a00 <page_alloc_dev>
  101d06:	49 8d bc 24 00 00 40 	lea    0x1400000(%r12),%rdi
  101d0d:	01 
  101d0e:	48 8d b3 00 00 40 01 	lea    0x1400000(%rbx),%rsi
  101d15:	e8 e6 1c 00 00       	call   103a00 <page_alloc_dev>
  101d1a:	49 8d bc 24 00 00 60 	lea    0x1600000(%r12),%rdi
  101d21:	01 
  101d22:	48 8d b3 00 00 60 01 	lea    0x1600000(%rbx),%rsi
  101d29:	e8 d2 1c 00 00       	call   103a00 <page_alloc_dev>
  101d2e:	49 8d bc 24 00 00 80 	lea    0x1800000(%r12),%rdi
  101d35:	01 
  101d36:	48 8d b3 00 00 80 01 	lea    0x1800000(%rbx),%rsi
  101d3d:	e8 be 1c 00 00       	call   103a00 <page_alloc_dev>
  101d42:	49 8d bc 24 00 00 a0 	lea    0x1a00000(%r12),%rdi
  101d49:	01 
  101d4a:	48 8d b3 00 00 a0 01 	lea    0x1a00000(%rbx),%rsi
  101d51:	e8 aa 1c 00 00       	call   103a00 <page_alloc_dev>
  101d56:	49 8d bc 24 00 00 c0 	lea    0x1c00000(%r12),%rdi
  101d5d:	01 
  101d5e:	48 8d b3 00 00 c0 01 	lea    0x1c00000(%rbx),%rsi
  101d65:	e8 96 1c 00 00       	call   103a00 <page_alloc_dev>
  101d6a:	49 81 c4 00 00 e0 01 	add    $0x1e00000,%r12
  101d71:	48 81 cb 00 00 e0 01 	or     $0x1e00000,%rbx
  101d78:	4c 89 e7             	mov    %r12,%rdi
  101d7b:	48 89 de             	mov    %rbx,%rsi
  101d7e:	e8 7d 1c 00 00       	call   103a00 <page_alloc_dev>
  101d83:	31 c0                	xor    %eax,%eax
  101d85:	e8 a6 22 00 00       	call   104030 <page_flush>
  101d8a:	48 8b 3d cf a2 00 00 	mov    0xa2cf(%rip),%rdi        # 10c060 <h>
  101d91:	48 0f af 3d bf a2 00 	imul   0xa2bf(%rip),%rdi        # 10c058 <w>
  101d98:	00 
  101d99:	48 c1 ef 03          	shr    $0x3,%rdi
  101d9d:	e8 5e f9 ff ff       	call   101700 <dbgnumout_hex>
  101da2:	48 8b 3d b7 a2 00 00 	mov    0xa2b7(%rip),%rdi        # 10c060 <h>
  101da9:	48 0f af 3d a7 a2 00 	imul   0xa2a7(%rip),%rdi        # 10c058 <w>
  101db0:	00 
  101db1:	48 c1 ef 03          	shr    $0x3,%rdi
  101db5:	e8 a6 0e 00 00       	call   102c60 <k_obj_alloc>
  101dba:	48 89 05 8f a2 00 00 	mov    %rax,0xa28f(%rip)        # 10c050 <text_buf>
  101dc1:	48 c7 05 ac a2 00 00 	movq   $0x0,0xa2ac(%rip)        # 10c078 <tcury>
  101dc8:	00 00 00 00 
  101dcc:	48 c7 05 a9 a2 00 00 	movq   $0x0,0xa2a9(%rip)        # 10c080 <tcurx>
  101dd3:	00 00 00 00 
  101dd7:	49 c1 ef 03          	shr    $0x3,%r15
  101ddb:	48 b9 cd cc cc cc cc 	movabs $0xcccccccccccccccd,%rcx
  101de2:	cc cc cc 
  101de5:	4c 89 f0             	mov    %r14,%rax
  101de8:	48 f7 e1             	mul    %rcx
  101deb:	4c 89 3d 56 a2 00 00 	mov    %r15,0xa256(%rip)        # 10c048 <tw>
  101df2:	48 c1 ea 03          	shr    $0x3,%rdx
  101df6:	48 89 15 43 a2 00 00 	mov    %rdx,0xa243(%rip)        # 10c040 <th>
  101dfd:	5b                   	pop    %rbx
  101dfe:	41 5c                	pop    %r12
  101e00:	41 5e                	pop    %r14
  101e02:	41 5f                	pop    %r15
  101e04:	5d                   	pop    %rbp
  101e05:	c3                   	ret
  101e06:	66 2e 0f 1f 84 00 00 	cs nopw 0x0(%rax,%rax,1)
  101e0d:	00 00 00 

0000000000101e10 <draw_scroll_text_buf>:
  101e10:	55                   	push   %rbp
  101e11:	48 89 e5             	mov    %rsp,%rbp
  101e14:	41 57                	push   %r15
  101e16:	41 56                	push   %r14
  101e18:	53                   	push   %rbx
  101e19:	50                   	push   %rax
  101e1a:	48 8b 3d 2f a2 00 00 	mov    0xa22f(%rip),%rdi        # 10c050 <text_buf>
  101e21:	48 8b 05 20 a2 00 00 	mov    0xa220(%rip),%rax        # 10c048 <tw>
  101e28:	48 8d 34 07          	lea    (%rdi,%rax,1),%rsi
  101e2c:	48 8b 15 0d a2 00 00 	mov    0xa20d(%rip),%rdx        # 10c040 <th>
  101e33:	48 ff ca             	dec    %rdx
  101e36:	48 0f af d0          	imul   %rax,%rdx
  101e3a:	e8 71 07 00 00       	call   1025b0 <mem_cpy>
  101e3f:	48 8b 15 02 a2 00 00 	mov    0xa202(%rip),%rdx        # 10c048 <tw>
  101e46:	48 8b 3d f3 a1 00 00 	mov    0xa1f3(%rip),%rdi        # 10c040 <th>
  101e4d:	48 ff cf             	dec    %rdi
  101e50:	48 0f af fa          	imul   %rdx,%rdi
  101e54:	48 03 3d f5 a1 00 00 	add    0xa1f5(%rip),%rdi        # 10c050 <text_buf>
  101e5b:	31 f6                	xor    %esi,%esi
  101e5d:	e8 0e 09 00 00       	call   102770 <mem_set>
  101e62:	48 8b 15 f7 a1 00 00 	mov    0xa1f7(%rip),%rdx        # 10c060 <h>
  101e69:	48 0f af 15 e7 a1 00 	imul   0xa1e7(%rip),%rdx        # 10c058 <w>
  101e70:	00 
  101e71:	48 0f af 15 ef a1 00 	imul   0xa1ef(%rip),%rdx        # 10c068 <bb>
  101e78:	00 
  101e79:	48 c1 ea 03          	shr    $0x3,%rdx
  101e7d:	48 bf 00 00 00 00 e0 	movabs $0xfe000000000,%rdi
  101e84:	0f 00 00 
  101e87:	31 f6                	xor    %esi,%esi
  101e89:	e8 e2 08 00 00       	call   102770 <mem_set>
  101e8e:	48 8b 05 ab a1 00 00 	mov    0xa1ab(%rip),%rax        # 10c040 <th>
  101e95:	48 8b 0d ac a1 00 00 	mov    0xa1ac(%rip),%rcx        # 10c048 <tw>
  101e9c:	48 89 ca             	mov    %rcx,%rdx
  101e9f:	48 0f af d0          	imul   %rax,%rdx
  101ea3:	48 85 d2             	test   %rdx,%rdx
  101ea6:	0f 84 a5 00 00 00    	je     101f51 <draw_scroll_text_buf+0x141>
  101eac:	45 31 f6             	xor    %r14d,%r14d
  101eaf:	eb 2b                	jmp    101edc <draw_scroll_text_buf+0xcc>
  101eb1:	66 66 66 66 66 66 2e 	data16 data16 data16 data16 data16 cs nopw 0x0(%rax,%rax,1)
  101eb8:	0f 1f 84 00 00 00 00 
  101ebf:	00 
  101ec0:	48 8b 05 79 a1 00 00 	mov    0xa179(%rip),%rax        # 10c040 <th>
  101ec7:	48 89 ca             	mov    %rcx,%rdx
  101eca:	49 01 d6             	add    %rdx,%r14
  101ecd:	48 89 c6             	mov    %rax,%rsi
  101ed0:	48 0f af f2          	imul   %rdx,%rsi
  101ed4:	48 89 d1             	mov    %rdx,%rcx
  101ed7:	49 39 f6             	cmp    %rsi,%r14
  101eda:	73 75                	jae    101f51 <draw_scroll_text_buf+0x141>
  101edc:	ba 00 00 00 00       	mov    $0x0,%edx
  101ee1:	41 bf 00 00 00 00    	mov    $0x0,%r15d
  101ee7:	bb 00 00 00 00       	mov    $0x0,%ebx
  101eec:	48 85 c9             	test   %rcx,%rcx
  101eef:	75 3d                	jne    101f2e <draw_scroll_text_buf+0x11e>
  101ef1:	eb d7                	jmp    101eca <draw_scroll_text_buf+0xba>
  101ef3:	66 66 66 66 2e 0f 1f 	data16 data16 data16 cs nopw 0x0(%rax,%rax,1)
  101efa:	84 00 00 00 00 00 
  101f00:	4c 89 f0             	mov    %r14,%rax
  101f03:	31 d2                	xor    %edx,%edx
  101f05:	48 f7 f1             	div    %rcx
  101f08:	48 01 c0             	add    %rax,%rax
  101f0b:	48 8d 14 80          	lea    (%rax,%rax,4),%rdx
  101f0f:	40 0f b6 fe          	movzbl %sil,%edi
  101f13:	4c 89 fe             	mov    %r15,%rsi
  101f16:	e8 b5 f9 ff ff       	call   1018d0 <draw_char_at>
  101f1b:	48 ff c3             	inc    %rbx
  101f1e:	48 8b 0d 23 a1 00 00 	mov    0xa123(%rip),%rcx        # 10c048 <tw>
  101f25:	49 83 c7 08          	add    $0x8,%r15
  101f29:	48 39 cb             	cmp    %rcx,%rbx
  101f2c:	73 92                	jae    101ec0 <draw_scroll_text_buf+0xb0>
  101f2e:	48 8b 05 1b a1 00 00 	mov    0xa11b(%rip),%rax        # 10c050 <text_buf>
  101f35:	4c 01 f0             	add    %r14,%rax
  101f38:	0f b6 34 03          	movzbl (%rbx,%rax,1),%esi
  101f3c:	4c 89 f0             	mov    %r14,%rax
  101f3f:	48 09 c8             	or     %rcx,%rax
  101f42:	48 c1 e8 20          	shr    $0x20,%rax
  101f46:	75 b8                	jne    101f00 <draw_scroll_text_buf+0xf0>
  101f48:	44 89 f0             	mov    %r14d,%eax
  101f4b:	31 d2                	xor    %edx,%edx
  101f4d:	f7 f1                	div    %ecx
  101f4f:	eb b7                	jmp    101f08 <draw_scroll_text_buf+0xf8>
  101f51:	48 83 c4 08          	add    $0x8,%rsp
  101f55:	5b                   	pop    %rbx
  101f56:	41 5e                	pop    %r14
  101f58:	41 5f                	pop    %r15
  101f5a:	5d                   	pop    %rbp
  101f5b:	c3                   	ret
  101f5c:	0f 1f 40 00          	nopl   0x0(%rax)

0000000000101f60 <draw_increment_line>:
  101f60:	55                   	push   %rbp
  101f61:	48 89 e5             	mov    %rsp,%rbp
  101f64:	48 c7 05 11 a1 00 00 	movq   $0x0,0xa111(%rip)        # 10c080 <tcurx>
  101f6b:	00 00 00 00 
  101f6f:	48 8b 05 02 a1 00 00 	mov    0xa102(%rip),%rax        # 10c078 <tcury>
  101f76:	48 ff c0             	inc    %rax
  101f79:	48 3b 05 c0 a0 00 00 	cmp    0xa0c0(%rip),%rax        # 10c040 <th>
  101f80:	73 09                	jae    101f8b <draw_increment_line+0x2b>
  101f82:	48 89 05 ef a0 00 00 	mov    %rax,0xa0ef(%rip)        # 10c078 <tcury>
  101f89:	5d                   	pop    %rbp
  101f8a:	c3                   	ret
  101f8b:	5d                   	pop    %rbp
  101f8c:	e9 7f fe ff ff       	jmp    101e10 <draw_scroll_text_buf>
  101f91:	66 66 66 66 66 66 2e 	data16 data16 data16 data16 data16 cs nopw 0x0(%rax,%rax,1)
  101f98:	0f 1f 84 00 00 00 00 
  101f9f:	00 

0000000000101fa0 <draw_append_text_buf>:
  101fa0:	55                   	push   %rbp
  101fa1:	48 89 e5             	mov    %rsp,%rbp
  101fa4:	53                   	push   %rbx
  101fa5:	50                   	push   %rax
  101fa6:	85 ff                	test   %edi,%edi
  101fa8:	0f 84 a4 00 00 00    	je     102052 <draw_append_text_buf+0xb2>
  101fae:	89 fb                	mov    %edi,%ebx
  101fb0:	83 ff 0a             	cmp    $0xa,%edi
  101fb3:	75 27                	jne    101fdc <draw_append_text_buf+0x3c>
  101fb5:	48 c7 05 c0 a0 00 00 	movq   $0x0,0xa0c0(%rip)        # 10c080 <tcurx>
  101fbc:	00 00 00 00 
  101fc0:	48 8b 05 b1 a0 00 00 	mov    0xa0b1(%rip),%rax        # 10c078 <tcury>
  101fc7:	48 ff c0             	inc    %rax
  101fca:	48 3b 05 6f a0 00 00 	cmp    0xa06f(%rip),%rax        # 10c040 <th>
  101fd1:	73 45                	jae    102018 <draw_append_text_buf+0x78>
  101fd3:	48 89 05 9e a0 00 00 	mov    %rax,0xa09e(%rip)        # 10c078 <tcury>
  101fda:	eb 76                	jmp    102052 <draw_append_text_buf+0xb2>
  101fdc:	48 8b 0d 9d a0 00 00 	mov    0xa09d(%rip),%rcx        # 10c080 <tcurx>
  101fe3:	48 8b 05 5e a0 00 00 	mov    0xa05e(%rip),%rax        # 10c048 <tw>
  101fea:	48 39 c1             	cmp    %rax,%rcx
  101fed:	72 47                	jb     102036 <draw_append_text_buf+0x96>
  101fef:	48 c7 05 86 a0 00 00 	movq   $0x0,0xa086(%rip)        # 10c080 <tcurx>
  101ff6:	00 00 00 00 
  101ffa:	48 8b 0d 77 a0 00 00 	mov    0xa077(%rip),%rcx        # 10c078 <tcury>
  102001:	48 ff c1             	inc    %rcx
  102004:	48 3b 0d 35 a0 00 00 	cmp    0xa035(%rip),%rcx        # 10c040 <th>
  10200b:	73 16                	jae    102023 <draw_append_text_buf+0x83>
  10200d:	48 89 0d 64 a0 00 00 	mov    %rcx,0xa064(%rip)        # 10c078 <tcury>
  102014:	31 c9                	xor    %ecx,%ecx
  102016:	eb 1e                	jmp    102036 <draw_append_text_buf+0x96>
  102018:	48 83 c4 08          	add    $0x8,%rsp
  10201c:	5b                   	pop    %rbx
  10201d:	5d                   	pop    %rbp
  10201e:	e9 ed fd ff ff       	jmp    101e10 <draw_scroll_text_buf>
  102023:	e8 e8 fd ff ff       	call   101e10 <draw_scroll_text_buf>
  102028:	48 8b 05 19 a0 00 00 	mov    0xa019(%rip),%rax        # 10c048 <tw>
  10202f:	48 8b 0d 4a a0 00 00 	mov    0xa04a(%rip),%rcx        # 10c080 <tcurx>
  102036:	48 0f af 05 3a a0 00 	imul   0xa03a(%rip),%rax        # 10c078 <tcury>
  10203d:	00 
  10203e:	48 01 c8             	add    %rcx,%rax
  102041:	48 8b 0d 08 a0 00 00 	mov    0xa008(%rip),%rcx        # 10c050 <text_buf>
  102048:	88 1c 01             	mov    %bl,(%rcx,%rax,1)
  10204b:	48 ff 05 2e a0 00 00 	incq   0xa02e(%rip)        # 10c080 <tcurx>
  102052:	48 83 c4 08          	add    $0x8,%rsp
  102056:	5b                   	pop    %rbx
  102057:	5d                   	pop    %rbp
  102058:	c3                   	ret
  102059:	0f 1f 80 00 00 00 00 	nopl   0x0(%rax)

0000000000102060 <draw_string>:
  102060:	55                   	push   %rbp
  102061:	48 89 e5             	mov    %rsp,%rbp
  102064:	41 57                	push   %r15
  102066:	41 56                	push   %r14
  102068:	53                   	push   %rbx
  102069:	50                   	push   %rax
  10206a:	44 0f b6 37          	movzbl (%rdi),%r14d
  10206e:	45 84 f6             	test   %r14b,%r14b
  102071:	0f 84 d0 00 00 00    	je     102147 <draw_string+0xe7>
  102077:	48 89 fb             	mov    %rdi,%rbx
  10207a:	48 ff c3             	inc    %rbx
  10207d:	eb 36                	jmp    1020b5 <draw_string+0x55>
  10207f:	48 89 0d f2 9f 00 00 	mov    %rcx,0x9ff2(%rip)        # 10c078 <tcury>
  102086:	31 c9                	xor    %ecx,%ecx
  102088:	48 0f af 05 e8 9f 00 	imul   0x9fe8(%rip),%rax        # 10c078 <tcury>
  10208f:	00 
  102090:	48 01 c8             	add    %rcx,%rax
  102093:	48 8b 0d b6 9f 00 00 	mov    0x9fb6(%rip),%rcx        # 10c050 <text_buf>
  10209a:	44 88 34 01          	mov    %r14b,(%rcx,%rax,1)
  10209e:	48 ff 05 db 9f 00 00 	incq   0x9fdb(%rip)        # 10c080 <tcurx>
  1020a5:	44 0f b6 33          	movzbl (%rbx),%r14d
  1020a9:	48 ff c3             	inc    %rbx
  1020ac:	45 84 f6             	test   %r14b,%r14b
  1020af:	0f 84 92 00 00 00    	je     102147 <draw_string+0xe7>
  1020b5:	41 0f be c6          	movsbl %r14b,%eax
  1020b9:	85 c0                	test   %eax,%eax
  1020bb:	74 e8                	je     1020a5 <draw_string+0x45>
  1020bd:	83 f8 0a             	cmp    $0xa,%eax
  1020c0:	75 2e                	jne    1020f0 <draw_string+0x90>
  1020c2:	48 c7 05 b3 9f 00 00 	movq   $0x0,0x9fb3(%rip)        # 10c080 <tcurx>
  1020c9:	00 00 00 00 
  1020cd:	48 8b 05 a4 9f 00 00 	mov    0x9fa4(%rip),%rax        # 10c078 <tcury>
  1020d4:	48 ff c0             	inc    %rax
  1020d7:	48 3b 05 62 9f 00 00 	cmp    0x9f62(%rip),%rax        # 10c040 <th>
  1020de:	73 5d                	jae    10213d <draw_string+0xdd>
  1020e0:	48 89 05 91 9f 00 00 	mov    %rax,0x9f91(%rip)        # 10c078 <tcury>
  1020e7:	eb bc                	jmp    1020a5 <draw_string+0x45>
  1020e9:	0f 1f 80 00 00 00 00 	nopl   0x0(%rax)
  1020f0:	48 8b 0d 89 9f 00 00 	mov    0x9f89(%rip),%rcx        # 10c080 <tcurx>
  1020f7:	48 8b 05 4a 9f 00 00 	mov    0x9f4a(%rip),%rax        # 10c048 <tw>
  1020fe:	48 39 c1             	cmp    %rax,%rcx
  102101:	72 85                	jb     102088 <draw_string+0x28>
  102103:	48 c7 05 72 9f 00 00 	movq   $0x0,0x9f72(%rip)        # 10c080 <tcurx>
  10210a:	00 00 00 00 
  10210e:	48 8b 0d 63 9f 00 00 	mov    0x9f63(%rip),%rcx        # 10c078 <tcury>
  102115:	48 ff c1             	inc    %rcx
  102118:	48 3b 0d 21 9f 00 00 	cmp    0x9f21(%rip),%rcx        # 10c040 <th>
  10211f:	0f 82 5a ff ff ff    	jb     10207f <draw_string+0x1f>
  102125:	e8 e6 fc ff ff       	call   101e10 <draw_scroll_text_buf>
  10212a:	48 8b 05 17 9f 00 00 	mov    0x9f17(%rip),%rax        # 10c048 <tw>
  102131:	48 8b 0d 48 9f 00 00 	mov    0x9f48(%rip),%rcx        # 10c080 <tcurx>
  102138:	e9 4b ff ff ff       	jmp    102088 <draw_string+0x28>
  10213d:	e8 ce fc ff ff       	call   101e10 <draw_scroll_text_buf>
  102142:	e9 5e ff ff ff       	jmp    1020a5 <draw_string+0x45>
  102147:	48 8b 05 f2 9e 00 00 	mov    0x9ef2(%rip),%rax        # 10c040 <th>
  10214e:	48 8b 0d f3 9e 00 00 	mov    0x9ef3(%rip),%rcx        # 10c048 <tw>
  102155:	48 89 ca             	mov    %rcx,%rdx
  102158:	48 0f af d0          	imul   %rax,%rdx
  10215c:	48 85 d2             	test   %rdx,%rdx
  10215f:	0f 84 9c 00 00 00    	je     102201 <draw_string+0x1a1>
  102165:	45 31 f6             	xor    %r14d,%r14d
  102168:	eb 22                	jmp    10218c <draw_string+0x12c>
  10216a:	66 0f 1f 44 00 00    	nopw   0x0(%rax,%rax,1)
  102170:	48 8b 05 c9 9e 00 00 	mov    0x9ec9(%rip),%rax        # 10c040 <th>
  102177:	48 89 ca             	mov    %rcx,%rdx
  10217a:	49 01 d6             	add    %rdx,%r14
  10217d:	48 89 c6             	mov    %rax,%rsi
  102180:	48 0f af f2          	imul   %rdx,%rsi
  102184:	48 89 d1             	mov    %rdx,%rcx
  102187:	49 39 f6             	cmp    %rsi,%r14
  10218a:	73 75                	jae    102201 <draw_string+0x1a1>
  10218c:	ba 00 00 00 00       	mov    $0x0,%edx
  102191:	41 bf 00 00 00 00    	mov    $0x0,%r15d
  102197:	bb 00 00 00 00       	mov    $0x0,%ebx
  10219c:	48 85 c9             	test   %rcx,%rcx
  10219f:	75 3d                	jne    1021de <draw_string+0x17e>
  1021a1:	eb d7                	jmp    10217a <draw_string+0x11a>
  1021a3:	66 66 66 66 2e 0f 1f 	data16 data16 data16 cs nopw 0x0(%rax,%rax,1)
  1021aa:	84 00 00 00 00 00 
  1021b0:	4c 89 f0             	mov    %r14,%rax
  1021b3:	31 d2                	xor    %edx,%edx
  1021b5:	48 f7 f1             	div    %rcx
  1021b8:	48 01 c0             	add    %rax,%rax
  1021bb:	48 8d 14 80          	lea    (%rax,%rax,4),%rdx
  1021bf:	40 0f b6 fe          	movzbl %sil,%edi
  1021c3:	4c 89 fe             	mov    %r15,%rsi
  1021c6:	e8 05 f7 ff ff       	call   1018d0 <draw_char_at>
  1021cb:	48 ff c3             	inc    %rbx
  1021ce:	48 8b 0d 73 9e 00 00 	mov    0x9e73(%rip),%rcx        # 10c048 <tw>
  1021d5:	49 83 c7 08          	add    $0x8,%r15
  1021d9:	48 39 cb             	cmp    %rcx,%rbx
  1021dc:	73 92                	jae    102170 <draw_string+0x110>
  1021de:	48 8b 05 6b 9e 00 00 	mov    0x9e6b(%rip),%rax        # 10c050 <text_buf>
  1021e5:	4c 01 f0             	add    %r14,%rax
  1021e8:	0f b6 34 03          	movzbl (%rbx,%rax,1),%esi
  1021ec:	4c 89 f0             	mov    %r14,%rax
  1021ef:	48 09 c8             	or     %rcx,%rax
  1021f2:	48 c1 e8 20          	shr    $0x20,%rax
  1021f6:	75 b8                	jne    1021b0 <draw_string+0x150>
  1021f8:	44 89 f0             	mov    %r14d,%eax
  1021fb:	31 d2                	xor    %edx,%edx
  1021fd:	f7 f1                	div    %ecx
  1021ff:	eb b7                	jmp    1021b8 <draw_string+0x158>
  102201:	48 83 c4 08          	add    $0x8,%rsp
  102205:	5b                   	pop    %rbx
  102206:	41 5e                	pop    %r14
  102208:	41 5f                	pop    %r15
  10220a:	5d                   	pop    %rbp
  10220b:	c3                   	ret
  10220c:	0f 1f 40 00          	nopl   0x0(%rax)

0000000000102210 <draw_hex>:
  102210:	55                   	push   %rbp
  102211:	48 89 e5             	mov    %rsp,%rbp
  102214:	41 57                	push   %r15
  102216:	41 56                	push   %r14
  102218:	53                   	push   %rbx
  102219:	50                   	push   %rax
  10221a:	49 89 fe             	mov    %rdi,%r14
  10221d:	bb 3c 00 00 00       	mov    $0x3c,%ebx
  102222:	eb 34                	jmp    102258 <draw_hex+0x48>
  102224:	48 89 0d 4d 9e 00 00 	mov    %rcx,0x9e4d(%rip)        # 10c078 <tcury>
  10222b:	31 c9                	xor    %ecx,%ecx
  10222d:	48 0f af 05 43 9e 00 	imul   0x9e43(%rip),%rax        # 10c078 <tcury>
  102234:	00 
  102235:	48 01 c8             	add    %rcx,%rax
  102238:	48 8b 0d 11 9e 00 00 	mov    0x9e11(%rip),%rcx        # 10c050 <text_buf>
  10223f:	44 88 3c 01          	mov    %r15b,(%rcx,%rax,1)
  102243:	48 ff 05 36 9e 00 00 	incq   0x9e36(%rip)        # 10c080 <tcurx>
  10224a:	48 83 c3 fc          	add    $0xfffffffffffffffc,%rbx
  10224e:	48 83 fb fc          	cmp    $0xfffffffffffffffc,%rbx
  102252:	0f 84 a3 00 00 00    	je     1022fb <draw_hex+0xeb>
  102258:	4c 89 f0             	mov    %r14,%rax
  10225b:	89 d9                	mov    %ebx,%ecx
  10225d:	48 d3 e8             	shr    %cl,%rax
  102260:	83 e0 0f             	and    $0xf,%eax
  102263:	44 0f b6 b8 80 ba 10 	movzbl 0x10ba80(%rax),%r15d
  10226a:	00 
  10226b:	41 0f be c7          	movsbl %r15b,%eax
  10226f:	85 c0                	test   %eax,%eax
  102271:	74 d7                	je     10224a <draw_hex+0x3a>
  102273:	83 f8 0a             	cmp    $0xa,%eax
  102276:	75 28                	jne    1022a0 <draw_hex+0x90>
  102278:	48 c7 05 fd 9d 00 00 	movq   $0x0,0x9dfd(%rip)        # 10c080 <tcurx>
  10227f:	00 00 00 00 
  102283:	48 8b 05 ee 9d 00 00 	mov    0x9dee(%rip),%rax        # 10c078 <tcury>
  10228a:	48 ff c0             	inc    %rax
  10228d:	48 3b 05 ac 9d 00 00 	cmp    0x9dac(%rip),%rax        # 10c040 <th>
  102294:	73 5b                	jae    1022f1 <draw_hex+0xe1>
  102296:	48 89 05 db 9d 00 00 	mov    %rax,0x9ddb(%rip)        # 10c078 <tcury>
  10229d:	eb ab                	jmp    10224a <draw_hex+0x3a>
  10229f:	90                   	nop
  1022a0:	48 8b 0d d9 9d 00 00 	mov    0x9dd9(%rip),%rcx        # 10c080 <tcurx>
  1022a7:	48 8b 05 9a 9d 00 00 	mov    0x9d9a(%rip),%rax        # 10c048 <tw>
  1022ae:	48 39 c1             	cmp    %rax,%rcx
  1022b1:	0f 82 76 ff ff ff    	jb     10222d <draw_hex+0x1d>
  1022b7:	48 c7 05 be 9d 00 00 	movq   $0x0,0x9dbe(%rip)        # 10c080 <tcurx>
  1022be:	00 00 00 00 
  1022c2:	48 8b 0d af 9d 00 00 	mov    0x9daf(%rip),%rcx        # 10c078 <tcury>
  1022c9:	48 ff c1             	inc    %rcx
  1022cc:	48 3b 0d 6d 9d 00 00 	cmp    0x9d6d(%rip),%rcx        # 10c040 <th>
  1022d3:	0f 82 4b ff ff ff    	jb     102224 <draw_hex+0x14>
  1022d9:	e8 32 fb ff ff       	call   101e10 <draw_scroll_text_buf>
  1022de:	48 8b 05 63 9d 00 00 	mov    0x9d63(%rip),%rax        # 10c048 <tw>
  1022e5:	48 8b 0d 94 9d 00 00 	mov    0x9d94(%rip),%rcx        # 10c080 <tcurx>
  1022ec:	e9 3c ff ff ff       	jmp    10222d <draw_hex+0x1d>
  1022f1:	e8 1a fb ff ff       	call   101e10 <draw_scroll_text_buf>
  1022f6:	e9 4f ff ff ff       	jmp    10224a <draw_hex+0x3a>
  1022fb:	48 c7 05 7a 9d 00 00 	movq   $0x0,0x9d7a(%rip)        # 10c080 <tcurx>
  102302:	00 00 00 00 
  102306:	48 8b 0d 6b 9d 00 00 	mov    0x9d6b(%rip),%rcx        # 10c078 <tcury>
  10230d:	48 ff c1             	inc    %rcx
  102310:	48 8b 05 29 9d 00 00 	mov    0x9d29(%rip),%rax        # 10c040 <th>
  102317:	48 39 c1             	cmp    %rax,%rcx
  10231a:	73 09                	jae    102325 <draw_hex+0x115>
  10231c:	48 89 0d 55 9d 00 00 	mov    %rcx,0x9d55(%rip)        # 10c078 <tcury>
  102323:	eb 0c                	jmp    102331 <draw_hex+0x121>
  102325:	e8 e6 fa ff ff       	call   101e10 <draw_scroll_text_buf>
  10232a:	48 8b 05 0f 9d 00 00 	mov    0x9d0f(%rip),%rax        # 10c040 <th>
  102331:	48 8b 0d 10 9d 00 00 	mov    0x9d10(%rip),%rcx        # 10c048 <tw>
  102338:	48 89 ca             	mov    %rcx,%rdx
  10233b:	48 0f af d0          	imul   %rax,%rdx
  10233f:	48 85 d2             	test   %rdx,%rdx
  102342:	0f 84 99 00 00 00    	je     1023e1 <draw_hex+0x1d1>
  102348:	45 31 f6             	xor    %r14d,%r14d
  10234b:	eb 1f                	jmp    10236c <draw_hex+0x15c>
  10234d:	0f 1f 00             	nopl   (%rax)
  102350:	48 8b 05 e9 9c 00 00 	mov    0x9ce9(%rip),%rax        # 10c040 <th>
  102357:	48 89 ca             	mov    %rcx,%rdx
  10235a:	49 01 d6             	add    %rdx,%r14
  10235d:	48 89 c6             	mov    %rax,%rsi
  102360:	48 0f af f2          	imul   %rdx,%rsi
  102364:	48 89 d1             	mov    %rdx,%rcx
  102367:	49 39 f6             	cmp    %rsi,%r14
  10236a:	73 75                	jae    1023e1 <draw_hex+0x1d1>
  10236c:	ba 00 00 00 00       	mov    $0x0,%edx
  102371:	41 bf 00 00 00 00    	mov    $0x0,%r15d
  102377:	bb 00 00 00 00       	mov    $0x0,%ebx
  10237c:	48 85 c9             	test   %rcx,%rcx
  10237f:	75 3d                	jne    1023be <draw_hex+0x1ae>
  102381:	eb d7                	jmp    10235a <draw_hex+0x14a>
  102383:	66 66 66 66 2e 0f 1f 	data16 data16 data16 cs nopw 0x0(%rax,%rax,1)
  10238a:	84 00 00 00 00 00 
  102390:	4c 89 f0             	mov    %r14,%rax
  102393:	31 d2                	xor    %edx,%edx
  102395:	48 f7 f1             	div    %rcx
  102398:	48 01 c0             	add    %rax,%rax
  10239b:	48 8d 14 80          	lea    (%rax,%rax,4),%rdx
  10239f:	40 0f b6 fe          	movzbl %sil,%edi
  1023a3:	4c 89 fe             	mov    %r15,%rsi
  1023a6:	e8 25 f5 ff ff       	call   1018d0 <draw_char_at>
  1023ab:	48 ff c3             	inc    %rbx
  1023ae:	48 8b 0d 93 9c 00 00 	mov    0x9c93(%rip),%rcx        # 10c048 <tw>
  1023b5:	49 83 c7 08          	add    $0x8,%r15
  1023b9:	48 39 cb             	cmp    %rcx,%rbx
  1023bc:	73 92                	jae    102350 <draw_hex+0x140>
  1023be:	48 8b 05 8b 9c 00 00 	mov    0x9c8b(%rip),%rax        # 10c050 <text_buf>
  1023c5:	4c 01 f0             	add    %r14,%rax
  1023c8:	0f b6 34 03          	movzbl (%rbx,%rax,1),%esi
  1023cc:	4c 89 f0             	mov    %r14,%rax
  1023cf:	48 09 c8             	or     %rcx,%rax
  1023d2:	48 c1 e8 20          	shr    $0x20,%rax
  1023d6:	75 b8                	jne    102390 <draw_hex+0x180>
  1023d8:	44 89 f0             	mov    %r14d,%eax
  1023db:	31 d2                	xor    %edx,%edx
  1023dd:	f7 f1                	div    %ecx
  1023df:	eb b7                	jmp    102398 <draw_hex+0x188>
  1023e1:	48 83 c4 08          	add    $0x8,%rsp
  1023e5:	5b                   	pop    %rbx
  1023e6:	41 5e                	pop    %r14
  1023e8:	41 5f                	pop    %r15
  1023ea:	5d                   	pop    %rbp
  1023eb:	c3                   	ret
  1023ec:	0f 1f 40 00          	nopl   0x0(%rax)

00000000001023f0 <drivers_setup>:
  1023f0:	55                   	push   %rbp
  1023f1:	48 89 e5             	mov    %rsp,%rbp
  1023f4:	31 c0                	xor    %eax,%eax
  1023f6:	5d                   	pop    %rbp
  1023f7:	e9 a4 07 00 00       	jmp    102ba0 <nvme_setup>
  1023fc:	0f 1f 40 00          	nopl   0x0(%rax)

0000000000102400 <idt_pagefault_handler>:
  102400:	55                   	push   %rbp
  102401:	48 89 e5             	mov    %rsp,%rbp
  102404:	41 57                	push   %r15
  102406:	41 56                	push   %r14
  102408:	53                   	push   %rbx
  102409:	50                   	push   %rax
  10240a:	8b 5d 68             	mov    0x68(%rbp),%ebx
  10240d:	4c 8b 75 60          	mov    0x60(%rbp),%r14
  102411:	4c 8b 7d 70          	mov    0x70(%rbp),%r15
  102415:	bf 13 b9 10 00       	mov    $0x10b913,%edi
  10241a:	e8 51 f4 ff ff       	call   101870 <dbgconout>
  10241f:	48 89 df             	mov    %rbx,%rdi
  102422:	e8 99 f3 ff ff       	call   1017c0 <dbgnumout_bin>
  102427:	bf 28 b9 10 00       	mov    $0x10b928,%edi
  10242c:	e8 3f f4 ff ff       	call   101870 <dbgconout>
  102431:	4c 89 ff             	mov    %r15,%rdi
  102434:	e8 c7 f2 ff ff       	call   101700 <dbgnumout_hex>
  102439:	bf 2e b9 10 00       	mov    $0x10b92e,%edi
  10243e:	e8 2d f4 ff ff       	call   101870 <dbgconout>
  102443:	4c 89 f7             	mov    %r14,%rdi
  102446:	e8 b5 f2 ff ff       	call   101700 <dbgnumout_hex>
  10244b:	bf 34 b9 10 00       	mov    $0x10b934,%edi
  102450:	e8 0b fc ff ff       	call   102060 <draw_string>
  102455:	48 89 df             	mov    %rbx,%rdi
  102458:	e8 b3 fd ff ff       	call   102210 <draw_hex>
  10245d:	bf 50 b9 10 00       	mov    $0x10b950,%edi
  102462:	e8 f9 fb ff ff       	call   102060 <draw_string>
  102467:	4c 89 ff             	mov    %r15,%rdi
  10246a:	e8 a1 fd ff ff       	call   102210 <draw_hex>
  10246f:	bf 55 b9 10 00       	mov    $0x10b955,%edi
  102474:	e8 e7 fb ff ff       	call   102060 <draw_string>
  102479:	4c 89 f7             	mov    %r14,%rdi
  10247c:	e8 8f fd ff ff       	call   102210 <draw_hex>
  102481:	66 66 66 66 66 66 2e 	data16 data16 data16 data16 data16 cs nopw 0x0(%rax,%rax,1)
  102488:	0f 1f 84 00 00 00 00 
  10248f:	00 
  102490:	eb fe                	jmp    102490 <idt_pagefault_handler+0x90>
  102492:	66 66 66 66 66 2e 0f 	data16 data16 data16 data16 cs nopw 0x0(%rax,%rax,1)
  102499:	1f 84 00 00 00 00 00 

00000000001024a0 <idt_set_addr>:
  1024a0:	55                   	push   %rbp
  1024a1:	48 89 e5             	mov    %rsp,%rbp
  1024a4:	66 89 37             	mov    %si,(%rdi)
  1024a7:	48 89 f0             	mov    %rsi,%rax
  1024aa:	48 c1 e8 10          	shr    $0x10,%rax
  1024ae:	66 89 47 06          	mov    %ax,0x6(%rdi)
  1024b2:	48 c1 ee 20          	shr    $0x20,%rsi
  1024b6:	89 77 08             	mov    %esi,0x8(%rdi)
  1024b9:	5d                   	pop    %rbp
  1024ba:	c3                   	ret
  1024bb:	0f 1f 44 00 00       	nopl   0x0(%rax,%rax,1)

00000000001024c0 <idt_set_trap_ent>:
  1024c0:	55                   	push   %rbp
  1024c1:	48 89 e5             	mov    %rsp,%rbp
  1024c4:	48 c1 e7 04          	shl    $0x4,%rdi
  1024c8:	c6 87 95 c0 10 00 8f 	movb   $0x8f,0x10c095(%rdi)
  1024cf:	66 c7 87 92 c0 10 00 	movw   $0x8,0x10c092(%rdi)
  1024d6:	08 00 
  1024d8:	66 89 b7 90 c0 10 00 	mov    %si,0x10c090(%rdi)
  1024df:	48 89 f0             	mov    %rsi,%rax
  1024e2:	48 c1 e8 10          	shr    $0x10,%rax
  1024e6:	66 89 87 96 c0 10 00 	mov    %ax,0x10c096(%rdi)
  1024ed:	48 c1 ee 20          	shr    $0x20,%rsi
  1024f1:	89 b7 98 c0 10 00    	mov    %esi,0x10c098(%rdi)
  1024f7:	5d                   	pop    %rbp
  1024f8:	c3                   	ret
  1024f9:	0f 1f 80 00 00 00 00 	nopl   0x0(%rax)

0000000000102500 <idt_set_irq_ent>:
  102500:	55                   	push   %rbp
  102501:	48 89 e5             	mov    %rsp,%rbp
  102504:	48 c1 e7 04          	shl    $0x4,%rdi
  102508:	c6 87 95 c0 10 00 8e 	movb   $0x8e,0x10c095(%rdi)
  10250f:	66 c7 87 92 c0 10 00 	movw   $0x8,0x10c092(%rdi)
  102516:	08 00 
  102518:	66 89 b7 90 c0 10 00 	mov    %si,0x10c090(%rdi)
  10251f:	48 89 f0             	mov    %rsi,%rax
  102522:	48 c1 e8 10          	shr    $0x10,%rax
  102526:	66 89 87 96 c0 10 00 	mov    %ax,0x10c096(%rdi)
  10252d:	48 c1 ee 20          	shr    $0x20,%rsi
  102531:	89 b7 98 c0 10 00    	mov    %esi,0x10c098(%rdi)
  102537:	5d                   	pop    %rbp
  102538:	c3                   	ret
  102539:	0f 1f 80 00 00 00 00 	nopl   0x0(%rax)

0000000000102540 <idt_flush>:
  102540:	55                   	push   %rbp
  102541:	48 89 e5             	mov    %rsp,%rbp
  102544:	0f 01 1c 25 80 d0 10 	lidt   0x10d080
  10254b:	00 
  10254c:	5d                   	pop    %rbp
  10254d:	c3                   	ret
  10254e:	66 90                	xchg   %ax,%ax

0000000000102550 <idt_setup>:
  102550:	55                   	push   %rbp
  102551:	48 89 e5             	mov    %rsp,%rbp
  102554:	48 c7 05 23 ab 00 00 	movq   $0x10c090,0xab23(%rip)        # 10d082 <idtr+0x2>
  10255b:	90 c0 10 00 
  10255f:	66 c7 05 18 ab 00 00 	movw   $0xfef,0xab18(%rip)        # 10d080 <idtr>
  102566:	ef 0f 
  102568:	c6 05 06 9c 00 00 8f 	movb   $0x8f,0x9c06(%rip)        # 10c175 <idt_table+0xe5>
  10256f:	66 c7 05 fa 9b 00 00 	movw   $0x8,0x9bfa(%rip)        # 10c172 <idt_table+0xe2>
  102576:	08 00 
  102578:	b8 48 a1 10 00       	mov    $0x10a148,%eax
  10257d:	66 89 05 ec 9b 00 00 	mov    %ax,0x9bec(%rip)        # 10c170 <idt_table+0xe0>
  102584:	b9 48 a1 10 00       	mov    $0x10a148,%ecx
  102589:	48 c1 e9 10          	shr    $0x10,%rcx
  10258d:	66 89 0d e2 9b 00 00 	mov    %cx,0x9be2(%rip)        # 10c176 <idt_table+0xe6>
  102594:	48 c1 e8 20          	shr    $0x20,%rax
  102598:	89 05 da 9b 00 00    	mov    %eax,0x9bda(%rip)        # 10c178 <idt_table+0xe8>
  10259e:	0f 01 1c 25 80 d0 10 	lidt   0x10d080
  1025a5:	00 
  1025a6:	5d                   	pop    %rbp
  1025a7:	c3                   	ret
  1025a8:	0f 1f 84 00 00 00 00 	nopl   0x0(%rax,%rax,1)
  1025af:	00 

00000000001025b0 <mem_cpy>:
  1025b0:	55                   	push   %rbp
  1025b1:	48 89 e5             	mov    %rsp,%rbp
  1025b4:	48 85 d2             	test   %rdx,%rdx
  1025b7:	0f 84 a6 01 00 00    	je     102763 <mem_cpy+0x1b3>
  1025bd:	45 31 db             	xor    %r11d,%r11d
  1025c0:	48 83 fa 08          	cmp    $0x8,%rdx
  1025c4:	0f 82 2c 01 00 00    	jb     1026f6 <mem_cpy+0x146>
  1025ca:	48 89 f9             	mov    %rdi,%rcx
  1025cd:	48 29 f1             	sub    %rsi,%rcx
  1025d0:	48 83 f9 20          	cmp    $0x20,%rcx
  1025d4:	0f 82 1c 01 00 00    	jb     1026f6 <mem_cpy+0x146>
  1025da:	48 83 fa 20          	cmp    $0x20,%rdx
  1025de:	73 08                	jae    1025e8 <mem_cpy+0x38>
  1025e0:	45 31 db             	xor    %r11d,%r11d
  1025e3:	e9 e5 00 00 00       	jmp    1026cd <mem_cpy+0x11d>
  1025e8:	49 89 d3             	mov    %rdx,%r11
  1025eb:	49 83 e3 e0          	and    $0xffffffffffffffe0,%r11
  1025ef:	49 8d 4b e0          	lea    -0x20(%r11),%rcx
  1025f3:	49 89 c9             	mov    %rcx,%r9
  1025f6:	49 c1 e9 05          	shr    $0x5,%r9
  1025fa:	49 ff c1             	inc    %r9
  1025fd:	45 89 c8             	mov    %r9d,%r8d
  102600:	41 83 e0 03          	and    $0x3,%r8d
  102604:	48 83 f9 60          	cmp    $0x60,%rcx
  102608:	73 04                	jae    10260e <mem_cpy+0x5e>
  10260a:	31 c9                	xor    %ecx,%ecx
  10260c:	eb 6a                	jmp    102678 <mem_cpy+0xc8>
  10260e:	49 83 e1 fc          	and    $0xfffffffffffffffc,%r9
  102612:	31 c9                	xor    %ecx,%ecx
  102614:	66 66 66 2e 0f 1f 84 	data16 data16 cs nopw 0x0(%rax,%rax,1)
  10261b:	00 00 00 00 00 
  102620:	0f 10 04 0e          	movups (%rsi,%rcx,1),%xmm0
  102624:	0f 10 4c 0e 10       	movups 0x10(%rsi,%rcx,1),%xmm1
  102629:	0f 11 04 0f          	movups %xmm0,(%rdi,%rcx,1)
  10262d:	0f 11 4c 0f 10       	movups %xmm1,0x10(%rdi,%rcx,1)
  102632:	0f 10 44 0e 20       	movups 0x20(%rsi,%rcx,1),%xmm0
  102637:	0f 10 4c 0e 30       	movups 0x30(%rsi,%rcx,1),%xmm1
  10263c:	0f 11 44 0f 20       	movups %xmm0,0x20(%rdi,%rcx,1)
  102641:	0f 11 4c 0f 30       	movups %xmm1,0x30(%rdi,%rcx,1)
  102646:	0f 10 44 0e 40       	movups 0x40(%rsi,%rcx,1),%xmm0
  10264b:	0f 10 4c 0e 50       	movups 0x50(%rsi,%rcx,1),%xmm1
  102650:	0f 11 44 0f 40       	movups %xmm0,0x40(%rdi,%rcx,1)
  102655:	0f 11 4c 0f 50       	movups %xmm1,0x50(%rdi,%rcx,1)
  10265a:	0f 10 44 0e 60       	movups 0x60(%rsi,%rcx,1),%xmm0
  10265f:	0f 10 4c 0e 70       	movups 0x70(%rsi,%rcx,1),%xmm1
  102664:	0f 11 44 0f 60       	movups %xmm0,0x60(%rdi,%rcx,1)
  102669:	0f 11 4c 0f 70       	movups %xmm1,0x70(%rdi,%rcx,1)
  10266e:	48 83 e9 80          	sub    $0xffffffffffffff80,%rcx
  102672:	49 83 c1 fc          	add    $0xfffffffffffffffc,%r9
  102676:	75 a8                	jne    102620 <mem_cpy+0x70>
  102678:	4d 85 c0             	test   %r8,%r8
  10267b:	74 42                	je     1026bf <mem_cpy+0x10f>
  10267d:	4c 8d 0c 0f          	lea    (%rdi,%rcx,1),%r9
  102681:	49 83 c1 10          	add    $0x10,%r9
  102685:	4c 8d 14 0e          	lea    (%rsi,%rcx,1),%r10
  102689:	49 83 c2 10          	add    $0x10,%r10
  10268d:	49 c1 e0 05          	shl    $0x5,%r8
  102691:	31 c9                	xor    %ecx,%ecx
  102693:	66 66 66 66 2e 0f 1f 	data16 data16 data16 cs nopw 0x0(%rax,%rax,1)
  10269a:	84 00 00 00 00 00 
  1026a0:	41 0f 10 44 0a f0    	movups -0x10(%r10,%rcx,1),%xmm0
  1026a6:	41 0f 10 0c 0a       	movups (%r10,%rcx,1),%xmm1
  1026ab:	41 0f 11 44 09 f0    	movups %xmm0,-0x10(%r9,%rcx,1)
  1026b1:	41 0f 11 0c 09       	movups %xmm1,(%r9,%rcx,1)
  1026b6:	48 83 c1 20          	add    $0x20,%rcx
  1026ba:	49 39 c8             	cmp    %rcx,%r8
  1026bd:	75 e1                	jne    1026a0 <mem_cpy+0xf0>
  1026bf:	49 39 d3             	cmp    %rdx,%r11
  1026c2:	0f 84 9b 00 00 00    	je     102763 <mem_cpy+0x1b3>
  1026c8:	f6 c2 18             	test   $0x18,%dl
  1026cb:	74 29                	je     1026f6 <mem_cpy+0x146>
  1026cd:	4c 89 d9             	mov    %r11,%rcx
  1026d0:	49 89 d3             	mov    %rdx,%r11
  1026d3:	49 83 e3 f8          	and    $0xfffffffffffffff8,%r11
  1026d7:	66 0f 1f 84 00 00 00 	nopw   0x0(%rax,%rax,1)
  1026de:	00 00 
  1026e0:	48 8b 04 0e          	mov    (%rsi,%rcx,1),%rax
  1026e4:	48 89 04 0f          	mov    %rax,(%rdi,%rcx,1)
  1026e8:	48 83 c1 08          	add    $0x8,%rcx
  1026ec:	49 39 cb             	cmp    %rcx,%r11
  1026ef:	75 ef                	jne    1026e0 <mem_cpy+0x130>
  1026f1:	49 39 d3             	cmp    %rdx,%r11
  1026f4:	74 6d                	je     102763 <mem_cpy+0x1b3>
  1026f6:	4d 89 d8             	mov    %r11,%r8
  1026f9:	49 f7 d0             	not    %r8
  1026fc:	49 01 d0             	add    %rdx,%r8
  1026ff:	48 89 d1             	mov    %rdx,%rcx
  102702:	48 83 e1 03          	and    $0x3,%rcx
  102706:	74 19                	je     102721 <mem_cpy+0x171>
  102708:	0f 1f 84 00 00 00 00 	nopl   0x0(%rax,%rax,1)
  10270f:	00 
  102710:	42 0f b6 04 1e       	movzbl (%rsi,%r11,1),%eax
  102715:	42 88 04 1f          	mov    %al,(%rdi,%r11,1)
  102719:	49 ff c3             	inc    %r11
  10271c:	48 ff c9             	dec    %rcx
  10271f:	75 ef                	jne    102710 <mem_cpy+0x160>
  102721:	49 83 f8 03          	cmp    $0x3,%r8
  102725:	72 3c                	jb     102763 <mem_cpy+0x1b3>
  102727:	66 0f 1f 84 00 00 00 	nopw   0x0(%rax,%rax,1)
  10272e:	00 00 
  102730:	42 0f b6 04 1e       	movzbl (%rsi,%r11,1),%eax
  102735:	42 88 04 1f          	mov    %al,(%rdi,%r11,1)
  102739:	42 0f b6 44 1e 01    	movzbl 0x1(%rsi,%r11,1),%eax
  10273f:	42 88 44 1f 01       	mov    %al,0x1(%rdi,%r11,1)
  102744:	42 0f b6 44 1e 02    	movzbl 0x2(%rsi,%r11,1),%eax
  10274a:	42 88 44 1f 02       	mov    %al,0x2(%rdi,%r11,1)
  10274f:	42 0f b6 44 1e 03    	movzbl 0x3(%rsi,%r11,1),%eax
  102755:	42 88 44 1f 03       	mov    %al,0x3(%rdi,%r11,1)
  10275a:	49 83 c3 04          	add    $0x4,%r11
  10275e:	4c 39 da             	cmp    %r11,%rdx
  102761:	75 cd                	jne    102730 <mem_cpy+0x180>
  102763:	5d                   	pop    %rbp
  102764:	c3                   	ret
  102765:	66 66 2e 0f 1f 84 00 	data16 cs nopw 0x0(%rax,%rax,1)
  10276c:	00 00 00 00 

0000000000102770 <mem_set>:
  102770:	55                   	push   %rbp
  102771:	48 89 e5             	mov    %rsp,%rbp
  102774:	4c 8d 14 17          	lea    (%rdi,%rdx,1),%r10
  102778:	f6 c2 07             	test   $0x7,%dl
  10277b:	74 60                	je     1027dd <mem_set+0x6d>
  10277d:	49 39 fa             	cmp    %rdi,%r10
  102780:	0f 84 15 02 00 00    	je     10299b <mem_set+0x22b>
  102786:	40 0f b6 c6          	movzbl %sil,%eax
  10278a:	48 b9 01 01 01 01 01 	movabs $0x101010101010101,%rcx
  102791:	01 01 01 
  102794:	48 0f af c8          	imul   %rax,%rcx
  102798:	48 83 c2 f8          	add    $0xfffffffffffffff8,%rdx
  10279c:	48 83 fa 18          	cmp    $0x18,%rdx
  1027a0:	0f 82 ea 00 00 00    	jb     102890 <mem_set+0x120>
  1027a6:	48 c1 ea 03          	shr    $0x3,%rdx
  1027aa:	48 ff c2             	inc    %rdx
  1027ad:	49 89 d0             	mov    %rdx,%r8
  1027b0:	49 83 e0 fc          	and    $0xfffffffffffffffc,%r8
  1027b4:	66 48 0f 6e c1       	movq   %rcx,%xmm0
  1027b9:	66 0f 70 c0 44       	pshufd $0x44,%xmm0,%xmm0
  1027be:	49 8d 40 fc          	lea    -0x4(%r8),%rax
  1027c2:	48 89 c6             	mov    %rax,%rsi
  1027c5:	48 c1 ee 02          	shr    $0x2,%rsi
  1027c9:	48 ff c6             	inc    %rsi
  1027cc:	41 89 f1             	mov    %esi,%r9d
  1027cf:	41 83 e1 03          	and    $0x3,%r9d
  1027d3:	48 83 f8 0c          	cmp    $0xc,%rax
  1027d7:	73 30                	jae    102809 <mem_set+0x99>
  1027d9:	31 c0                	xor    %eax,%eax
  1027db:	eb 6c                	jmp    102849 <mem_set+0xd9>
  1027dd:	49 39 fa             	cmp    %rdi,%r10
  1027e0:	0f 84 b5 01 00 00    	je     10299b <mem_set+0x22b>
  1027e6:	48 83 fa 08          	cmp    $0x8,%rdx
  1027ea:	73 08                	jae    1027f4 <mem_set+0x84>
  1027ec:	48 89 f8             	mov    %rdi,%rax
  1027ef:	e9 9c 01 00 00       	jmp    102990 <mem_set+0x220>
  1027f4:	44 0f b6 c6          	movzbl %sil,%r8d
  1027f8:	48 83 fa 20          	cmp    $0x20,%rdx
  1027fc:	0f 83 9f 00 00 00    	jae    1028a1 <mem_set+0x131>
  102802:	31 c9                	xor    %ecx,%ecx
  102804:	e9 47 01 00 00       	jmp    102950 <mem_set+0x1e0>
  102809:	48 83 e6 fc          	and    $0xfffffffffffffffc,%rsi
  10280d:	31 c0                	xor    %eax,%eax
  10280f:	90                   	nop
  102810:	f3 0f 7f 04 c7       	movdqu %xmm0,(%rdi,%rax,8)
  102815:	f3 0f 7f 44 c7 10    	movdqu %xmm0,0x10(%rdi,%rax,8)
  10281b:	f3 0f 7f 44 c7 20    	movdqu %xmm0,0x20(%rdi,%rax,8)
  102821:	f3 0f 7f 44 c7 30    	movdqu %xmm0,0x30(%rdi,%rax,8)
  102827:	f3 0f 7f 44 c7 40    	movdqu %xmm0,0x40(%rdi,%rax,8)
  10282d:	f3 0f 7f 44 c7 50    	movdqu %xmm0,0x50(%rdi,%rax,8)
  102833:	f3 0f 7f 44 c7 60    	movdqu %xmm0,0x60(%rdi,%rax,8)
  102839:	f3 0f 7f 44 c7 70    	movdqu %xmm0,0x70(%rdi,%rax,8)
  10283f:	48 83 c0 10          	add    $0x10,%rax
  102843:	48 83 c6 fc          	add    $0xfffffffffffffffc,%rsi
  102847:	75 c7                	jne    102810 <mem_set+0xa0>
  102849:	4d 85 c9             	test   %r9,%r9
  10284c:	74 26                	je     102874 <mem_set+0x104>
  10284e:	48 8d 04 c7          	lea    (%rdi,%rax,8),%rax
  102852:	48 83 c0 10          	add    $0x10,%rax
  102856:	49 c1 e1 05          	shl    $0x5,%r9
  10285a:	31 f6                	xor    %esi,%esi
  10285c:	0f 1f 40 00          	nopl   0x0(%rax)
  102860:	f3 0f 7f 44 30 f0    	movdqu %xmm0,-0x10(%rax,%rsi,1)
  102866:	f3 0f 7f 04 30       	movdqu %xmm0,(%rax,%rsi,1)
  10286b:	48 83 c6 20          	add    $0x20,%rsi
  10286f:	49 39 f1             	cmp    %rsi,%r9
  102872:	75 ec                	jne    102860 <mem_set+0xf0>
  102874:	4c 39 c2             	cmp    %r8,%rdx
  102877:	0f 84 1e 01 00 00    	je     10299b <mem_set+0x22b>
  10287d:	4a 8d 3c c7          	lea    (%rdi,%r8,8),%rdi
  102881:	66 66 66 66 66 66 2e 	data16 data16 data16 data16 data16 cs nopw 0x0(%rax,%rax,1)
  102888:	0f 1f 84 00 00 00 00 
  10288f:	00 
  102890:	48 89 0f             	mov    %rcx,(%rdi)
  102893:	48 83 c7 08          	add    $0x8,%rdi
  102897:	4c 39 d7             	cmp    %r10,%rdi
  10289a:	75 f4                	jne    102890 <mem_set+0x120>
  10289c:	e9 fa 00 00 00       	jmp    10299b <mem_set+0x22b>
  1028a1:	48 89 d1             	mov    %rdx,%rcx
  1028a4:	48 83 e1 e0          	and    $0xffffffffffffffe0,%rcx
  1028a8:	66 41 0f 6e c0       	movd   %r8d,%xmm0
  1028ad:	66 0f 60 c0          	punpcklbw %xmm0,%xmm0
  1028b1:	f2 0f 70 c0 00       	pshuflw $0x0,%xmm0,%xmm0
  1028b6:	66 0f 70 c0 00       	pshufd $0x0,%xmm0,%xmm0
  1028bb:	48 8d 41 e0          	lea    -0x20(%rcx),%rax
  1028bf:	49 89 c3             	mov    %rax,%r11
  1028c2:	49 c1 eb 05          	shr    $0x5,%r11
  1028c6:	49 ff c3             	inc    %r11
  1028c9:	45 89 d9             	mov    %r11d,%r9d
  1028cc:	41 83 e1 03          	and    $0x3,%r9d
  1028d0:	48 83 f8 60          	cmp    $0x60,%rax
  1028d4:	73 04                	jae    1028da <mem_set+0x16a>
  1028d6:	31 c0                	xor    %eax,%eax
  1028d8:	eb 3f                	jmp    102919 <mem_set+0x1a9>
  1028da:	49 83 e3 fc          	and    $0xfffffffffffffffc,%r11
  1028de:	31 c0                	xor    %eax,%eax
  1028e0:	f3 0f 7f 04 07       	movdqu %xmm0,(%rdi,%rax,1)
  1028e5:	f3 0f 7f 44 07 10    	movdqu %xmm0,0x10(%rdi,%rax,1)
  1028eb:	f3 0f 7f 44 07 20    	movdqu %xmm0,0x20(%rdi,%rax,1)
  1028f1:	f3 0f 7f 44 07 30    	movdqu %xmm0,0x30(%rdi,%rax,1)
  1028f7:	f3 0f 7f 44 07 40    	movdqu %xmm0,0x40(%rdi,%rax,1)
  1028fd:	f3 0f 7f 44 07 50    	movdqu %xmm0,0x50(%rdi,%rax,1)
  102903:	f3 0f 7f 44 07 60    	movdqu %xmm0,0x60(%rdi,%rax,1)
  102909:	f3 0f 7f 44 07 70    	movdqu %xmm0,0x70(%rdi,%rax,1)
  10290f:	48 83 e8 80          	sub    $0xffffffffffffff80,%rax
  102913:	49 83 c3 fc          	add    $0xfffffffffffffffc,%r11
  102917:	75 c7                	jne    1028e0 <mem_set+0x170>
  102919:	4d 85 c9             	test   %r9,%r9
  10291c:	74 28                	je     102946 <mem_set+0x1d6>
  10291e:	4c 8d 1c 38          	lea    (%rax,%rdi,1),%r11
  102922:	49 83 c3 10          	add    $0x10,%r11
  102926:	49 c1 e1 05          	shl    $0x5,%r9
  10292a:	31 c0                	xor    %eax,%eax
  10292c:	0f 1f 40 00          	nopl   0x0(%rax)
  102930:	f3 41 0f 7f 44 03 f0 	movdqu %xmm0,-0x10(%r11,%rax,1)
  102937:	f3 41 0f 7f 04 03    	movdqu %xmm0,(%r11,%rax,1)
  10293d:	48 83 c0 20          	add    $0x20,%rax
  102941:	49 39 c1             	cmp    %rax,%r9
  102944:	75 ea                	jne    102930 <mem_set+0x1c0>
  102946:	48 39 d1             	cmp    %rdx,%rcx
  102949:	74 50                	je     10299b <mem_set+0x22b>
  10294b:	f6 c2 18             	test   $0x18,%dl
  10294e:	74 4d                	je     10299d <mem_set+0x22d>
  102950:	49 89 d1             	mov    %rdx,%r9
  102953:	49 83 e1 f8          	and    $0xfffffffffffffff8,%r9
  102957:	4a 8d 04 0f          	lea    (%rdi,%r9,1),%rax
  10295b:	66 41 0f 6e c0       	movd   %r8d,%xmm0
  102960:	66 0f 60 c0          	punpcklbw %xmm0,%xmm0
  102964:	f2 0f 70 c0 00       	pshuflw $0x0,%xmm0,%xmm0
  102969:	0f 1f 80 00 00 00 00 	nopl   0x0(%rax)
  102970:	66 0f d6 04 0f       	movq   %xmm0,(%rdi,%rcx,1)
  102975:	48 83 c1 08          	add    $0x8,%rcx
  102979:	49 39 c9             	cmp    %rcx,%r9
  10297c:	75 f2                	jne    102970 <mem_set+0x200>
  10297e:	49 39 d1             	cmp    %rdx,%r9
  102981:	74 18                	je     10299b <mem_set+0x22b>
  102983:	66 66 66 66 2e 0f 1f 	data16 data16 data16 cs nopw 0x0(%rax,%rax,1)
  10298a:	84 00 00 00 00 00 
  102990:	40 88 30             	mov    %sil,(%rax)
  102993:	48 ff c0             	inc    %rax
  102996:	4c 39 d0             	cmp    %r10,%rax
  102999:	75 f5                	jne    102990 <mem_set+0x220>
  10299b:	5d                   	pop    %rbp
  10299c:	c3                   	ret
  10299d:	48 01 cf             	add    %rcx,%rdi
  1029a0:	e9 47 fe ff ff       	jmp    1027ec <mem_set+0x7c>
  1029a5:	66 66 2e 0f 1f 84 00 	data16 cs nopw 0x0(%rax,%rax,1)
  1029ac:	00 00 00 00 

00000000001029b0 <mem_cmp>:
  1029b0:	55                   	push   %rbp
  1029b1:	48 89 e5             	mov    %rsp,%rbp
  1029b4:	41 57                	push   %r15
  1029b6:	41 56                	push   %r14
  1029b8:	53                   	push   %rbx
  1029b9:	50                   	push   %rax
  1029ba:	49 89 d6             	mov    %rdx,%r14
  1029bd:	49 89 f7             	mov    %rsi,%r15
  1029c0:	48 89 fb             	mov    %rdi,%rbx
  1029c3:	e8 38 ed ff ff       	call   101700 <dbgnumout_hex>
  1029c8:	4c 89 ff             	mov    %r15,%rdi
  1029cb:	e8 30 ed ff ff       	call   101700 <dbgnumout_hex>
  1029d0:	b8 01 00 00 00       	mov    $0x1,%eax
  1029d5:	4d 85 f6             	test   %r14,%r14
  1029d8:	74 1c                	je     1029f6 <mem_cmp+0x46>
  1029da:	31 c9                	xor    %ecx,%ecx
  1029dc:	0f 1f 40 00          	nopl   0x0(%rax)
  1029e0:	0f b6 14 0b          	movzbl (%rbx,%rcx,1),%edx
  1029e4:	41 3a 14 0f          	cmp    (%r15,%rcx,1),%dl
  1029e8:	75 0a                	jne    1029f4 <mem_cmp+0x44>
  1029ea:	48 ff c1             	inc    %rcx
  1029ed:	49 39 ce             	cmp    %rcx,%r14
  1029f0:	75 ee                	jne    1029e0 <mem_cmp+0x30>
  1029f2:	eb 02                	jmp    1029f6 <mem_cmp+0x46>
  1029f4:	31 c0                	xor    %eax,%eax
  1029f6:	48 83 c4 08          	add    $0x8,%rsp
  1029fa:	5b                   	pop    %rbx
  1029fb:	41 5e                	pop    %r14
  1029fd:	41 5f                	pop    %r15
  1029ff:	5d                   	pop    %rbp
  102a00:	c3                   	ret
  102a01:	66 2e 0f 1f 84 00 00 	cs nopw 0x0(%rax,%rax,1)
  102a08:	00 00 00 
  102a0b:	0f 1f 44 00 00       	nopl   0x0(%rax,%rax,1)

0000000000102a10 <krnl_main>:
  102a10:	81 ff 89 62 d7 36    	cmp    $0x36d76289,%edi
  102a16:	0f 85 e1 00 00 00    	jne    102afd <krnl_main+0xed>
  102a1c:	55                   	push   %rbp
  102a1d:	48 89 e5             	mov    %rsp,%rbp
  102a20:	41 57                	push   %r15
  102a22:	41 56                	push   %r14
  102a24:	53                   	push   %rbx
  102a25:	50                   	push   %rax
  102a26:	49 89 f6             	mov    %rsi,%r14
  102a29:	bf 5a b9 10 00       	mov    $0x10b95a,%edi
  102a2e:	e8 3d ee ff ff       	call   101870 <dbgconout>
  102a33:	31 c0                	xor    %eax,%eax
  102a35:	e8 16 fb ff ff       	call   102550 <idt_setup>
  102a3a:	31 c0                	xor    %eax,%eax
  102a3c:	e8 1f 16 00 00       	call   104060 <k_pageobj_heap_setup>
  102a41:	31 c0                	xor    %eax,%eax
  102a43:	e8 b8 0b 00 00       	call   103600 <page_init_map>
  102a48:	41 bf 20 f4 11 01    	mov    $0x111f420,%r15d
  102a4e:	49 c1 ef 15          	shr    $0x15,%r15
  102a52:	49 83 ff ff          	cmp    $0xffffffffffffffff,%r15
  102a56:	74 1f                	je     102a77 <krnl_main+0x67>
  102a58:	49 ff c7             	inc    %r15
  102a5b:	31 db                	xor    %ebx,%ebx
  102a5d:	0f 1f 00             	nopl   (%rax)
  102a60:	48 89 df             	mov    %rbx,%rdi
  102a63:	48 89 de             	mov    %rbx,%rsi
  102a66:	e8 05 0d 00 00       	call   103770 <page_alloc>
  102a6b:	48 81 c3 00 00 20 00 	add    $0x200000,%rbx
  102a72:	49 ff cf             	dec    %r15
  102a75:	75 e9                	jne    102a60 <krnl_main+0x50>
  102a77:	31 c0                	xor    %eax,%eax
  102a79:	e8 b2 15 00 00       	call   104030 <page_flush>
  102a7e:	45 8b 3e             	mov    (%r14),%r15d
  102a81:	4c 89 ff             	mov    %r15,%rdi
  102a84:	e8 d7 01 00 00       	call   102c60 <k_obj_alloc>
  102a89:	48 89 05 00 a6 00 00 	mov    %rax,0xa600(%rip)        # 10d090 <m_info>
  102a90:	48 89 c7             	mov    %rax,%rdi
  102a93:	4c 89 f6             	mov    %r14,%rsi
  102a96:	4c 89 fa             	mov    %r15,%rdx
  102a99:	e8 12 fb ff ff       	call   1025b0 <mem_cpy>
  102a9e:	48 8b 05 eb a5 00 00 	mov    0xa5eb(%rip),%rax        # 10d090 <m_info>
  102aa5:	48 8d 58 08          	lea    0x8(%rax),%rbx
  102aa9:	eb 1f                	jmp    102aca <krnl_main+0xba>
  102aab:	0f 1f 44 00 00       	nopl   0x0(%rax,%rax,1)
  102ab0:	49 89 de             	mov    %rbx,%r14
  102ab3:	8b 4b 04             	mov    0x4(%rbx),%ecx
  102ab6:	83 c1 07             	add    $0x7,%ecx
  102ab9:	83 e1 f8             	and    $0xfffffff8,%ecx
  102abc:	48 01 cb             	add    %rcx,%rbx
  102abf:	48 89 d9             	mov    %rbx,%rcx
  102ac2:	48 29 c1             	sub    %rax,%rcx
  102ac5:	4c 39 f9             	cmp    %r15,%rcx
  102ac8:	73 3d                	jae    102b07 <krnl_main+0xf7>
  102aca:	8b 0b                	mov    (%rbx),%ecx
  102acc:	83 f9 0f             	cmp    $0xf,%ecx
  102acf:	74 df                	je     102ab0 <krnl_main+0xa0>
  102ad1:	83 f9 08             	cmp    $0x8,%ecx
  102ad4:	75 dd                	jne    102ab3 <krnl_main+0xa3>
  102ad6:	48 8b 7b 08          	mov    0x8(%rbx),%rdi
  102ada:	8b 73 14             	mov    0x14(%rbx),%esi
  102add:	8b 53 18             	mov    0x18(%rbx),%edx
  102ae0:	0f b6 4b 1c          	movzbl 0x1c(%rbx),%ecx
  102ae4:	44 8b 43 10          	mov    0x10(%rbx),%r8d
  102ae8:	e8 23 f1 ff ff       	call   101c10 <draw_setup>
  102aed:	31 c0                	xor    %eax,%eax
  102aef:	e8 3c 15 00 00       	call   104030 <page_flush>
  102af4:	48 8b 05 95 a5 00 00 	mov    0xa595(%rip),%rax        # 10d090 <m_info>
  102afb:	eb b6                	jmp    102ab3 <krnl_main+0xa3>
  102afd:	bf 72 b9 10 00       	mov    $0x10b972,%edi
  102b02:	e9 69 ed ff ff       	jmp    101870 <dbgconout>
  102b07:	49 83 c6 08          	add    $0x8,%r14
  102b0b:	4c 89 f7             	mov    %r14,%rdi
  102b0e:	e8 6d e6 ff ff       	call   101180 <acpiman_setup>
  102b13:	31 c0                	xor    %eax,%eax
  102b15:	e8 a6 ea ff ff       	call   1015c0 <apic_setup>
  102b1a:	31 c0                	xor    %eax,%eax
  102b1c:	e8 3f 23 00 00       	call   104e60 <timer_setup>
  102b21:	31 c0                	xor    %eax,%eax
  102b23:	e8 08 22 00 00       	call   104d30 <pci_enum>
  102b28:	31 c0                	xor    %eax,%eax
  102b2a:	e8 c1 f8 ff ff       	call   1023f0 <drivers_setup>
  102b2f:	bf 8a b9 10 00       	mov    $0x10b98a,%edi
  102b34:	e8 27 f5 ff ff       	call   102060 <draw_string>
  102b39:	48 83 c4 08          	add    $0x8,%rsp
  102b3d:	5b                   	pop    %rbx
  102b3e:	41 5e                	pop    %r14
  102b40:	41 5f                	pop    %r15
  102b42:	5d                   	pop    %rbp
  102b43:	66 66 66 66 2e 0f 1f 	data16 data16 data16 cs nopw 0x0(%rax,%rax,1)
  102b4a:	84 00 00 00 00 00 
  102b50:	eb fe                	jmp    102b50 <krnl_main+0x140>
  102b52:	66 2e 0f 1f 84 00 00 	cs nopw 0x0(%rax,%rax,1)
  102b59:	00 00 00 
  102b5c:	0f 1f 40 00          	nopl   0x0(%rax)

0000000000102b60 <nvme_setup_pci_dev>:
  102b60:	55                   	push   %rbp
  102b61:	48 89 e5             	mov    %rsp,%rbp
  102b64:	53                   	push   %rbx
  102b65:	50                   	push   %rax
  102b66:	48 89 fb             	mov    %rdi,%rbx
  102b69:	bf a5 b9 10 00       	mov    $0x10b9a5,%edi
  102b6e:	e8 fd ec ff ff       	call   101870 <dbgconout>
  102b73:	0f b6 7b 08          	movzbl 0x8(%rbx),%edi
  102b77:	e8 84 eb ff ff       	call   101700 <dbgnumout_hex>
  102b7c:	0f b6 7b 09          	movzbl 0x9(%rbx),%edi
  102b80:	e8 7b eb ff ff       	call   101700 <dbgnumout_hex>
  102b85:	0f b6 7b 0a          	movzbl 0xa(%rbx),%edi
  102b89:	48 83 c4 08          	add    $0x8,%rsp
  102b8d:	5b                   	pop    %rbx
  102b8e:	5d                   	pop    %rbp
  102b8f:	e9 6c eb ff ff       	jmp    101700 <dbgnumout_hex>
  102b94:	66 66 66 2e 0f 1f 84 	data16 data16 cs nopw 0x0(%rax,%rax,1)
  102b9b:	00 00 00 00 00 

0000000000102ba0 <nvme_setup>:
  102ba0:	55                   	push   %rbp
  102ba1:	48 89 e5             	mov    %rsp,%rbp
  102ba4:	53                   	push   %rbx
  102ba5:	50                   	push   %rax
  102ba6:	31 ff                	xor    %edi,%edi
  102ba8:	e8 93 19 00 00       	call   104540 <pci_get_next_dev_ent>
  102bad:	48 85 c0             	test   %rax,%rax
  102bb0:	74 5a                	je     102c0c <nvme_setup+0x6c>
  102bb2:	48 89 c3             	mov    %rax,%rbx
  102bb5:	eb 19                	jmp    102bd0 <nvme_setup+0x30>
  102bb7:	66 0f 1f 84 00 00 00 	nopw   0x0(%rax,%rax,1)
  102bbe:	00 00 
  102bc0:	48 89 df             	mov    %rbx,%rdi
  102bc3:	e8 78 19 00 00       	call   104540 <pci_get_next_dev_ent>
  102bc8:	48 89 c3             	mov    %rax,%rbx
  102bcb:	48 85 c0             	test   %rax,%rax
  102bce:	74 3c                	je     102c0c <nvme_setup+0x6c>
  102bd0:	0f b6 7b 0b          	movzbl 0xb(%rbx),%edi
  102bd4:	e8 27 eb ff ff       	call   101700 <dbgnumout_hex>
  102bd9:	80 7b 0b 01          	cmpb   $0x1,0xb(%rbx)
  102bdd:	75 e1                	jne    102bc0 <nvme_setup+0x20>
  102bdf:	80 7b 0c 08          	cmpb   $0x8,0xc(%rbx)
  102be3:	75 db                	jne    102bc0 <nvme_setup+0x20>
  102be5:	bf a5 b9 10 00       	mov    $0x10b9a5,%edi
  102bea:	e8 81 ec ff ff       	call   101870 <dbgconout>
  102bef:	0f b6 7b 08          	movzbl 0x8(%rbx),%edi
  102bf3:	e8 08 eb ff ff       	call   101700 <dbgnumout_hex>
  102bf8:	0f b6 7b 09          	movzbl 0x9(%rbx),%edi
  102bfc:	e8 ff ea ff ff       	call   101700 <dbgnumout_hex>
  102c01:	0f b6 7b 0a          	movzbl 0xa(%rbx),%edi
  102c05:	e8 f6 ea ff ff       	call   101700 <dbgnumout_hex>
  102c0a:	eb b4                	jmp    102bc0 <nvme_setup+0x20>
  102c0c:	48 83 c4 08          	add    $0x8,%rsp
  102c10:	5b                   	pop    %rbx
  102c11:	5d                   	pop    %rbp
  102c12:	c3                   	ret
  102c13:	66 2e 0f 1f 84 00 00 	cs nopw 0x0(%rax,%rax,1)
  102c1a:	00 00 00 
  102c1d:	0f 1f 00             	nopl   (%rax)

0000000000102c20 <liballoc_unlock>:
  102c20:	55                   	push   %rbp
  102c21:	48 89 e5             	mov    %rsp,%rbp
  102c24:	b8 01 00 00 00       	mov    $0x1,%eax
  102c29:	5d                   	pop    %rbp
  102c2a:	c3                   	ret
  102c2b:	0f 1f 44 00 00       	nopl   0x0(%rax,%rax,1)

0000000000102c30 <liballoc_lock>:
  102c30:	55                   	push   %rbp
  102c31:	48 89 e5             	mov    %rsp,%rbp
  102c34:	b8 01 00 00 00       	mov    $0x1,%eax
  102c39:	5d                   	pop    %rbp
  102c3a:	c3                   	ret
  102c3b:	0f 1f 44 00 00       	nopl   0x0(%rax,%rax,1)

0000000000102c40 <liballoc_alloc>:
  102c40:	55                   	push   %rbp
  102c41:	48 89 e5             	mov    %rsp,%rbp
  102c44:	48 63 ff             	movslq %edi,%rdi
  102c47:	5d                   	pop    %rbp
  102c48:	e9 a3 11 00 00       	jmp    103df0 <page_find_and_alloc>
  102c4d:	0f 1f 00             	nopl   (%rax)

0000000000102c50 <liballoc_free>:
  102c50:	55                   	push   %rbp
  102c51:	48 89 e5             	mov    %rsp,%rbp
  102c54:	48 63 f6             	movslq %esi,%rsi
  102c57:	e8 e4 12 00 00       	call   103f40 <page_free_found>
  102c5c:	31 c0                	xor    %eax,%eax
  102c5e:	5d                   	pop    %rbp
  102c5f:	c3                   	ret

0000000000102c60 <k_obj_alloc>:
  102c60:	55                   	push   %rbp
  102c61:	48 89 e5             	mov    %rsp,%rbp
  102c64:	41 57                	push   %r15
  102c66:	41 56                	push   %r14
  102c68:	41 55                	push   %r13
  102c6a:	41 54                	push   %r12
  102c6c:	53                   	push   %rbx
  102c6d:	48 83 ec 18          	sub    $0x18,%rsp
  102c71:	49 89 f9             	mov    %rdi,%r9
  102c74:	49 83 c1 20          	add    $0x20,%r9
  102c78:	75 12                	jne    102c8c <k_obj_alloc+0x2c>
  102c7a:	48 ff 05 17 a4 00 00 	incq   0xa417(%rip)        # 10d098 <l_warningCount>
  102c81:	41 b9 21 00 00 00    	mov    $0x21,%r9d
  102c87:	bf 01 00 00 00       	mov    $0x1,%edi
  102c8c:	48 8b 05 0d a4 00 00 	mov    0xa40d(%rip),%rax        # 10d0a0 <l_memRoot>
  102c93:	48 85 c0             	test   %rax,%rax
  102c96:	74 2a                	je     102cc2 <k_obj_alloc+0x62>
  102c98:	48 8b 48 20          	mov    0x20(%rax),%rcx
  102c9c:	ba ef be ad de       	mov    $0xdeadbeef,%edx
  102ca1:	48 89 50 20          	mov    %rdx,0x20(%rax)
  102ca5:	48 39 d1             	cmp    %rdx,%rcx
  102ca8:	0f 85 80 00 00 00    	jne    102d2e <k_obj_alloc+0xce>
  102cae:	bf b2 b9 10 00       	mov    $0x10b9b2,%edi
  102cb3:	e8 b8 eb ff ff       	call   101870 <dbgconout>
  102cb8:	0f 1f 84 00 00 00 00 	nopl   0x0(%rax,%rax,1)
  102cbf:	00 
  102cc0:	eb fe                	jmp    102cc0 <k_obj_alloc+0x60>
  102cc2:	49 89 ff             	mov    %rdi,%r15
  102cc5:	4d 89 ce             	mov    %r9,%r14
  102cc8:	41 8d 41 50          	lea    0x50(%r9),%eax
  102ccc:	89 c1                	mov    %eax,%ecx
  102cce:	81 e1 ff ff 1f 00    	and    $0x1fffff,%ecx
  102cd4:	c1 e8 15             	shr    $0x15,%eax
  102cd7:	83 f9 01             	cmp    $0x1,%ecx
  102cda:	83 d8 ff             	sbb    $0xffffffff,%eax
  102cdd:	83 f8 05             	cmp    $0x5,%eax
  102ce0:	bb 04 00 00 00       	mov    $0x4,%ebx
  102ce5:	0f 43 d8             	cmovae %eax,%ebx
  102ce8:	48 89 df             	mov    %rbx,%rdi
  102ceb:	e8 00 11 00 00       	call   103df0 <page_find_and_alloc>
  102cf0:	48 85 c0             	test   %rax,%rax
  102cf3:	0f 84 47 02 00 00    	je     102f40 <k_obj_alloc+0x2e0>
  102cf9:	0f 57 c0             	xorps  %xmm0,%xmm0
  102cfc:	0f 11 00             	movups %xmm0,(%rax)
  102cff:	89 58 10             	mov    %ebx,0x10(%rax)
  102d02:	c1 e3 15             	shl    $0x15,%ebx
  102d05:	89 58 14             	mov    %ebx,0x14(%rax)
  102d08:	c7 40 18 28 00 00 00 	movl   $0x28,0x18(%rax)
  102d0f:	48 01 1d b2 a3 00 00 	add    %rbx,0xa3b2(%rip)        # 10d0c8 <l_allocated>
  102d16:	48 89 05 83 a3 00 00 	mov    %rax,0xa383(%rip)        # 10d0a0 <l_memRoot>
  102d1d:	b9 ef be ad de       	mov    $0xdeadbeef,%ecx
  102d22:	48 89 48 20          	mov    %rcx,0x20(%rax)
  102d26:	31 c9                	xor    %ecx,%ecx
  102d28:	4d 89 f1             	mov    %r14,%r9
  102d2b:	4c 89 ff             	mov    %r15,%rdi
  102d2e:	48 89 48 20          	mov    %rcx,0x20(%rax)
  102d32:	48 8b 0d 6f a3 00 00 	mov    0xa36f(%rip),%rcx        # 10d0a8 <l_bestBet>
  102d39:	48 85 c9             	test   %rcx,%rcx
  102d3c:	74 1c                	je     102d5a <k_obj_alloc+0xfa>
  102d3e:	44 8b 61 14          	mov    0x14(%rcx),%r12d
  102d42:	44 2b 61 18          	sub    0x18(%rcx),%r12d
  102d46:	48 8d 57 48          	lea    0x48(%rdi),%rdx
  102d4a:	45 31 db             	xor    %r11d,%r11d
  102d4d:	4c 39 e2             	cmp    %r12,%rdx
  102d50:	41 0f 92 c3          	setb   %r11b
  102d54:	48 0f 42 c1          	cmovb  %rcx,%rax
  102d58:	eb 06                	jmp    102d60 <k_obj_alloc+0x100>
  102d5a:	45 31 e4             	xor    %r12d,%r12d
  102d5d:	45 31 db             	xor    %r11d,%r11d
  102d60:	4c 8d 77 48          	lea    0x48(%rdi),%r14
  102d64:	41 8d 49 50          	lea    0x50(%r9),%ecx
  102d68:	89 ca                	mov    %ecx,%edx
  102d6a:	81 e2 ff ff 1f 00    	and    $0x1fffff,%edx
  102d70:	c1 e9 15             	shr    $0x15,%ecx
  102d73:	83 fa 01             	cmp    $0x1,%edx
  102d76:	83 d9 ff             	sbb    $0xffffffff,%ecx
  102d79:	83 f9 05             	cmp    $0x5,%ecx
  102d7c:	41 bd 04 00 00 00    	mov    $0x4,%r13d
  102d82:	44 0f 43 e9          	cmovae %ecx,%r13d
  102d86:	44 89 e9             	mov    %r13d,%ecx
  102d89:	c1 e1 15             	shl    $0x15,%ecx
  102d8c:	48 89 4d d0          	mov    %rcx,-0x30(%rbp)
  102d90:	eb 1b                	jmp    102dad <k_obj_alloc+0x14d>
  102d92:	66 66 66 66 66 2e 0f 	data16 data16 data16 data16 cs nopw 0x0(%rax,%rax,1)
  102d99:	1f 84 00 00 00 00 00 
  102da0:	49 8b 47 08          	mov    0x8(%r15),%rax
  102da4:	48 85 c0             	test   %rax,%rax
  102da7:	0f 84 08 01 00 00    	je     102eb5 <k_obj_alloc+0x255>
  102dad:	49 89 c7             	mov    %rax,%r15
  102db0:	8b 40 14             	mov    0x14(%rax),%eax
  102db3:	45 8b 47 18          	mov    0x18(%r15),%r8d
  102db7:	89 c1                	mov    %eax,%ecx
  102db9:	44 29 c1             	sub    %r8d,%ecx
  102dbc:	49 39 cc             	cmp    %rcx,%r12
  102dbf:	73 0a                	jae    102dcb <k_obj_alloc+0x16b>
  102dc1:	4c 89 3d e0 a2 00 00 	mov    %r15,0xa2e0(%rip)        # 10d0a8 <l_bestBet>
  102dc8:	49 89 cc             	mov    %rcx,%r12
  102dcb:	49 39 ce             	cmp    %rcx,%r14
  102dce:	77 d0                	ja     102da0 <k_obj_alloc+0x140>
  102dd0:	49 8b 5f 20          	mov    0x20(%r15),%rbx
  102dd4:	48 85 db             	test   %rbx,%rbx
  102dd7:	0f 84 35 02 00 00    	je     103012 <k_obj_alloc+0x3b2>
  102ddd:	48 89 d9             	mov    %rbx,%rcx
  102de0:	4c 29 f9             	sub    %r15,%rcx
  102de3:	48 83 c1 d8          	add    $0xffffffffffffffd8,%rcx
  102de7:	4c 39 f1             	cmp    %r14,%rcx
  102dea:	0f 83 6a 01 00 00    	jae    102f5a <k_obj_alloc+0x2fa>
  102df0:	49 8d 4f d8          	lea    -0x28(%r15),%rcx
  102df4:	66 66 66 2e 0f 1f 84 	data16 data16 cs nopw 0x0(%rax,%rax,1)
  102dfb:	00 00 00 00 00 
  102e00:	49 89 da             	mov    %rbx,%r10
  102e03:	48 8b 5b 08          	mov    0x8(%rbx),%rbx
  102e07:	48 85 db             	test   %rbx,%rbx
  102e0a:	74 24                	je     102e30 <k_obj_alloc+0x1d0>
  102e0c:	41 8b 52 1c          	mov    0x1c(%r10),%edx
  102e10:	4c 01 d2             	add    %r10,%rdx
  102e13:	48 89 de             	mov    %rbx,%rsi
  102e16:	48 29 d6             	sub    %rdx,%rsi
  102e19:	48 83 c6 d8          	add    $0xffffffffffffffd8,%rsi
  102e1d:	4c 39 f6             	cmp    %r14,%rsi
  102e20:	72 de                	jb     102e00 <k_obj_alloc+0x1a0>
  102e22:	e9 b0 00 00 00       	jmp    102ed7 <k_obj_alloc+0x277>
  102e27:	66 0f 1f 84 00 00 00 	nopw   0x0(%rax,%rax,1)
  102e2e:	00 00 
  102e30:	41 8b 52 1c          	mov    0x1c(%r10),%edx
  102e34:	48 01 c1             	add    %rax,%rcx
  102e37:	4c 01 d2             	add    %r10,%rdx
  102e3a:	48 29 d1             	sub    %rdx,%rcx
  102e3d:	4c 39 f1             	cmp    %r14,%rcx
  102e40:	0f 83 4b 01 00 00    	jae    102f91 <k_obj_alloc+0x331>
  102e46:	49 8b 47 08          	mov    0x8(%r15),%rax
  102e4a:	48 85 c0             	test   %rax,%rax
  102e4d:	0f 85 5a ff ff ff    	jne    102dad <k_obj_alloc+0x14d>
  102e53:	41 83 fb 01          	cmp    $0x1,%r11d
  102e57:	74 66                	je     102ebf <k_obj_alloc+0x25f>
  102e59:	4c 89 5d c0          	mov    %r11,-0x40(%rbp)
  102e5d:	48 89 7d c8          	mov    %rdi,-0x38(%rbp)
  102e61:	4c 89 cb             	mov    %r9,%rbx
  102e64:	4c 89 ef             	mov    %r13,%rdi
  102e67:	e8 84 0f 00 00       	call   103df0 <page_find_and_alloc>
  102e6c:	48 85 c0             	test   %rax,%rax
  102e6f:	0f 84 10 02 00 00    	je     103085 <k_obj_alloc+0x425>
  102e75:	48 c7 40 08 00 00 00 	movq   $0x0,0x8(%rax)
  102e7c:	00 
  102e7d:	44 89 68 10          	mov    %r13d,0x10(%rax)
  102e81:	48 8b 4d d0          	mov    -0x30(%rbp),%rcx
  102e85:	89 48 14             	mov    %ecx,0x14(%rax)
  102e88:	c7 40 18 28 00 00 00 	movl   $0x28,0x18(%rax)
  102e8f:	48 c7 40 20 00 00 00 	movq   $0x0,0x20(%rax)
  102e96:	00 
  102e97:	48 01 0d 2a a2 00 00 	add    %rcx,0xa22a(%rip)        # 10d0c8 <l_allocated>
  102e9e:	49 89 47 08          	mov    %rax,0x8(%r15)
  102ea2:	4c 89 38             	mov    %r15,(%rax)
  102ea5:	49 89 d9             	mov    %rbx,%r9
  102ea8:	48 8b 7d c8          	mov    -0x38(%rbp),%rdi
  102eac:	4c 8b 5d c0          	mov    -0x40(%rbp),%r11
  102eb0:	e9 f8 fe ff ff       	jmp    102dad <k_obj_alloc+0x14d>
  102eb5:	41 83 fb 01          	cmp    $0x1,%r11d
  102eb9:	0f 85 fd 00 00 00    	jne    102fbc <k_obj_alloc+0x35c>
  102ebf:	48 8b 05 da a1 00 00 	mov    0xa1da(%rip),%rax        # 10d0a0 <l_memRoot>
  102ec6:	45 31 db             	xor    %r11d,%r11d
  102ec9:	48 85 c0             	test   %rax,%rax
  102ecc:	0f 85 db fe ff ff    	jne    102dad <k_obj_alloc+0x14d>
  102ed2:	e9 9c 01 00 00       	jmp    103073 <k_obj_alloc+0x413>
  102ed7:	48 8d 42 28          	lea    0x28(%rdx),%rax
  102edb:	c7 42 40 de c0 01 c0 	movl   $0xc001c0de,0x40(%rdx)
  102ee2:	48 89 5a 30          	mov    %rbx,0x30(%rdx)
  102ee6:	4c 89 52 28          	mov    %r10,0x28(%rdx)
  102eea:	44 89 4a 44          	mov    %r9d,0x44(%rdx)
  102eee:	89 7a 48             	mov    %edi,0x48(%rdx)
  102ef1:	4c 89 7a 38          	mov    %r15,0x38(%rdx)
  102ef5:	49 8b 4a 08          	mov    0x8(%r10),%rcx
  102ef9:	48 89 01             	mov    %rax,(%rcx)
  102efc:	49 89 42 08          	mov    %rax,0x8(%r10)
  102f00:	45 01 f0             	add    %r14d,%r8d
  102f03:	45 89 47 18          	mov    %r8d,0x18(%r15)
  102f07:	4c 01 0d a2 a1 00 00 	add    %r9,0xa1a2(%rip)        # 10d0b0 <l_inuse>
  102f0e:	48 8d 42 60          	lea    0x60(%rdx),%rax
  102f12:	89 d1                	mov    %edx,%ecx
  102f14:	83 e1 0f             	and    $0xf,%ecx
  102f17:	48 83 c2 70          	add    $0x70,%rdx
  102f1b:	48 83 e2 f0          	and    $0xfffffffffffffff0,%rdx
  102f1f:	b3 20                	mov    $0x20,%bl
  102f21:	28 cb                	sub    %cl,%bl
  102f23:	48 85 c9             	test   %rcx,%rcx
  102f26:	48 0f 44 d0          	cmove  %rax,%rdx
  102f2a:	0f b6 c3             	movzbl %bl,%eax
  102f2d:	b9 10 00 00 00       	mov    $0x10,%ecx
  102f32:	0f 45 c8             	cmovne %eax,%ecx
  102f35:	88 4a f0             	mov    %cl,-0x10(%rdx)
  102f38:	49 89 d3             	mov    %rdx,%r11
  102f3b:	e9 33 01 00 00       	jmp    103073 <k_obj_alloc+0x413>
  102f40:	48 ff 05 51 a1 00 00 	incq   0xa151(%rip)        # 10d098 <l_warningCount>
  102f47:	48 c7 05 4e a1 00 00 	movq   $0x0,0xa14e(%rip)        # 10d0a0 <l_memRoot>
  102f4e:	00 00 00 00 
  102f52:	45 31 db             	xor    %r11d,%r11d
  102f55:	e9 19 01 00 00       	jmp    103073 <k_obj_alloc+0x413>
  102f5a:	49 8d 47 28          	lea    0x28(%r15),%rax
  102f5e:	48 89 03             	mov    %rax,(%rbx)
  102f61:	49 89 5f 30          	mov    %rbx,0x30(%r15)
  102f65:	49 89 47 20          	mov    %rax,0x20(%r15)
  102f69:	41 c7 47 40 de c0 01 	movl   $0xc001c0de,0x40(%r15)
  102f70:	c0 
  102f71:	49 c7 47 28 00 00 00 	movq   $0x0,0x28(%r15)
  102f78:	00 
  102f79:	4d 89 7f 38          	mov    %r15,0x38(%r15)
  102f7d:	45 89 4f 44          	mov    %r9d,0x44(%r15)
  102f81:	41 89 7f 48          	mov    %edi,0x48(%r15)
  102f85:	45 01 f0             	add    %r14d,%r8d
  102f88:	45 89 47 18          	mov    %r8d,0x18(%r15)
  102f8c:	e9 ac 00 00 00       	jmp    10303d <k_obj_alloc+0x3dd>
  102f91:	48 8d 42 28          	lea    0x28(%rdx),%rax
  102f95:	49 89 42 08          	mov    %rax,0x8(%r10)
  102f99:	4c 89 52 28          	mov    %r10,0x28(%rdx)
  102f9d:	48 c7 42 30 00 00 00 	movq   $0x0,0x30(%rdx)
  102fa4:	00 
  102fa5:	c7 42 40 de c0 01 c0 	movl   $0xc001c0de,0x40(%rdx)
  102fac:	4c 89 7a 38          	mov    %r15,0x38(%rdx)
  102fb0:	44 89 4a 44          	mov    %r9d,0x44(%rdx)
  102fb4:	89 7a 48             	mov    %edi,0x48(%rdx)
  102fb7:	e9 44 ff ff ff       	jmp    102f00 <k_obj_alloc+0x2a0>
  102fbc:	49 89 fc             	mov    %rdi,%r12
  102fbf:	4c 89 cb             	mov    %r9,%rbx
  102fc2:	4c 89 ef             	mov    %r13,%rdi
  102fc5:	e8 26 0e 00 00       	call   103df0 <page_find_and_alloc>
  102fca:	48 85 c0             	test   %rax,%rax
  102fcd:	0f 84 b2 00 00 00    	je     103085 <k_obj_alloc+0x425>
  102fd3:	48 c7 40 08 00 00 00 	movq   $0x0,0x8(%rax)
  102fda:	00 
  102fdb:	44 89 68 10          	mov    %r13d,0x10(%rax)
  102fdf:	48 8b 4d d0          	mov    -0x30(%rbp),%rcx
  102fe3:	89 48 14             	mov    %ecx,0x14(%rax)
  102fe6:	c7 40 18 28 00 00 00 	movl   $0x28,0x18(%rax)
  102fed:	48 c7 40 20 00 00 00 	movq   $0x0,0x20(%rax)
  102ff4:	00 
  102ff5:	48 01 0d cc a0 00 00 	add    %rcx,0xa0cc(%rip)        # 10d0c8 <l_allocated>
  102ffc:	49 89 47 08          	mov    %rax,0x8(%r15)
  103000:	4c 89 38             	mov    %r15,(%rax)
  103003:	41 b8 28 00 00 00    	mov    $0x28,%r8d
  103009:	49 89 c7             	mov    %rax,%r15
  10300c:	49 89 d9             	mov    %rbx,%r9
  10300f:	4c 89 e7             	mov    %r12,%rdi
  103012:	49 8d 47 28          	lea    0x28(%r15),%rax
  103016:	49 89 47 20          	mov    %rax,0x20(%r15)
  10301a:	41 c7 47 40 de c0 01 	movl   $0xc001c0de,0x40(%r15)
  103021:	c0 
  103022:	0f 57 c0             	xorps  %xmm0,%xmm0
  103025:	41 0f 11 47 28       	movups %xmm0,0x28(%r15)
  10302a:	4d 89 7f 38          	mov    %r15,0x38(%r15)
  10302e:	45 89 4f 44          	mov    %r9d,0x44(%r15)
  103032:	41 89 7f 48          	mov    %edi,0x48(%r15)
  103036:	45 01 c6             	add    %r8d,%r14d
  103039:	45 89 77 18          	mov    %r14d,0x18(%r15)
  10303d:	4c 01 0d 6c a0 00 00 	add    %r9,0xa06c(%rip)        # 10d0b0 <l_inuse>
  103044:	49 8d 47 60          	lea    0x60(%r15),%rax
  103048:	44 89 f9             	mov    %r15d,%ecx
  10304b:	83 e1 0f             	and    $0xf,%ecx
  10304e:	49 83 c7 70          	add    $0x70,%r15
  103052:	49 83 e7 f0          	and    $0xfffffffffffffff0,%r15
  103056:	b2 20                	mov    $0x20,%dl
  103058:	28 ca                	sub    %cl,%dl
  10305a:	48 85 c9             	test   %rcx,%rcx
  10305d:	4c 0f 44 f8          	cmove  %rax,%r15
  103061:	0f b6 c2             	movzbl %dl,%eax
  103064:	b9 10 00 00 00       	mov    $0x10,%ecx
  103069:	0f 45 c8             	cmovne %eax,%ecx
  10306c:	41 88 4f f0          	mov    %cl,-0x10(%r15)
  103070:	4d 89 fb             	mov    %r15,%r11
  103073:	4c 89 d8             	mov    %r11,%rax
  103076:	48 83 c4 18          	add    $0x18,%rsp
  10307a:	5b                   	pop    %rbx
  10307b:	41 5c                	pop    %r12
  10307d:	41 5d                	pop    %r13
  10307f:	41 5e                	pop    %r14
  103081:	41 5f                	pop    %r15
  103083:	5d                   	pop    %rbp
  103084:	c3                   	ret
  103085:	48 ff 05 0c a0 00 00 	incq   0xa00c(%rip)        # 10d098 <l_warningCount>
  10308c:	49 c7 47 08 00 00 00 	movq   $0x0,0x8(%r15)
  103093:	00 
  103094:	e9 b9 fe ff ff       	jmp    102f52 <k_obj_alloc+0x2f2>
  103099:	0f 1f 80 00 00 00 00 	nopl   0x0(%rax)

00000000001030a0 <k_obj_free>:
  1030a0:	55                   	push   %rbp
  1030a1:	48 89 e5             	mov    %rsp,%rbp
  1030a4:	53                   	push   %rbx
  1030a5:	50                   	push   %rax
  1030a6:	48 85 ff             	test   %rdi,%rdi
  1030a9:	0f 84 93 00 00 00    	je     103142 <k_obj_free+0xa2>
  1030af:	48 0f be 47 f0       	movsbq -0x10(%rdi),%rax
  1030b4:	48 89 fb             	mov    %rdi,%rbx
  1030b7:	48 29 c3             	sub    %rax,%rbx
  1030ba:	48 83 f8 20          	cmp    $0x20,%rax
  1030be:	48 0f 43 df          	cmovae %rdi,%rbx
  1030c2:	8b 43 f0             	mov    -0x10(%rbx),%eax
  1030c5:	3d de c0 01 c0       	cmp    $0xc001c0de,%eax
  1030ca:	0f 85 80 00 00 00    	jne    103150 <k_obj_free+0xb0>
  1030d0:	48 8b 7b e8          	mov    -0x18(%rbx),%rdi
  1030d4:	8b 4b f4             	mov    -0xc(%rbx),%ecx
  1030d7:	48 29 0d d2 9f 00 00 	sub    %rcx,0x9fd2(%rip)        # 10d0b0 <l_inuse>
  1030de:	8b 47 18             	mov    0x18(%rdi),%eax
  1030e1:	29 c8                	sub    %ecx,%eax
  1030e3:	83 c0 d8             	add    $0xffffffd8,%eax
  1030e6:	89 47 18             	mov    %eax,0x18(%rdi)
  1030e9:	c7 43 f0 ad de ad de 	movl   $0xdeaddead,-0x10(%rbx)
  1030f0:	48 8b 4b e0          	mov    -0x20(%rbx),%rcx
  1030f4:	48 85 c9             	test   %rcx,%rcx
  1030f7:	74 07                	je     103100 <k_obj_free+0x60>
  1030f9:	48 8b 53 d8          	mov    -0x28(%rbx),%rdx
  1030fd:	48 89 11             	mov    %rdx,(%rcx)
  103100:	48 8b 53 d8          	mov    -0x28(%rbx),%rdx
  103104:	48 85 d2             	test   %rdx,%rdx
  103107:	0f 84 8e 00 00 00    	je     10319b <k_obj_free+0xfb>
  10310d:	48 89 4a 08          	mov    %rcx,0x8(%rdx)
  103111:	48 8b 4f 20          	mov    0x20(%rdi),%rcx
  103115:	48 85 c9             	test   %rcx,%rcx
  103118:	0f 84 8a 00 00 00    	je     1031a8 <k_obj_free+0x108>
  10311e:	48 8b 0d 83 9f 00 00 	mov    0x9f83(%rip),%rcx        # 10d0a8 <l_bestBet>
  103125:	48 85 c9             	test   %rcx,%rcx
  103128:	74 1f                	je     103149 <k_obj_free+0xa9>
  10312a:	8b 51 14             	mov    0x14(%rcx),%edx
  10312d:	2b 51 18             	sub    0x18(%rcx),%edx
  103130:	8b 4f 14             	mov    0x14(%rdi),%ecx
  103133:	29 c1                	sub    %eax,%ecx
  103135:	39 d1                	cmp    %edx,%ecx
  103137:	7e 10                	jle    103149 <k_obj_free+0xa9>
  103139:	48 89 3d 68 9f 00 00 	mov    %rdi,0x9f68(%rip)        # 10d0a8 <l_bestBet>
  103140:	eb 07                	jmp    103149 <k_obj_free+0xa9>
  103142:	48 ff 05 4f 9f 00 00 	incq   0x9f4f(%rip)        # 10d098 <l_warningCount>
  103149:	48 83 c4 08          	add    $0x8,%rsp
  10314d:	5b                   	pop    %rbx
  10314e:	5d                   	pop    %rbp
  10314f:	c3                   	ret
  103150:	48 ff 05 61 9f 00 00 	incq   0x9f61(%rip)        # 10d0b8 <l_errorCount>
  103157:	89 c1                	mov    %eax,%ecx
  103159:	81 e1 ff ff ff 00    	and    $0xffffff,%ecx
  10315f:	81 f9 de c0 01 00    	cmp    $0x1c0de,%ecx
  103165:	74 15                	je     10317c <k_obj_free+0xdc>
  103167:	0f b7 c8             	movzwl %ax,%ecx
  10316a:	81 f9 de c0 00 00    	cmp    $0xc0de,%ecx
  103170:	74 0a                	je     10317c <k_obj_free+0xdc>
  103172:	0f b6 c0             	movzbl %al,%eax
  103175:	3d de 00 00 00       	cmp    $0xde,%eax
  10317a:	75 07                	jne    103183 <k_obj_free+0xe3>
  10317c:	48 ff 05 3d 9f 00 00 	incq   0x9f3d(%rip)        # 10d0c0 <l_possibleOverruns>
  103183:	bf c8 b9 10 00       	mov    $0x10b9c8,%edi
  103188:	e8 e3 e6 ff ff       	call   101870 <dbgconout>
  10318d:	8b 7b f0             	mov    -0x10(%rbx),%edi
  103190:	48 83 c4 08          	add    $0x8,%rsp
  103194:	5b                   	pop    %rbx
  103195:	5d                   	pop    %rbp
  103196:	e9 65 e5 ff ff       	jmp    101700 <dbgnumout_hex>
  10319b:	48 89 4f 20          	mov    %rcx,0x20(%rdi)
  10319f:	48 85 c9             	test   %rcx,%rcx
  1031a2:	0f 85 76 ff ff ff    	jne    10311e <k_obj_free+0x7e>
  1031a8:	48 39 3d f1 9e 00 00 	cmp    %rdi,0x9ef1(%rip)        # 10d0a0 <l_memRoot>
  1031af:	75 0b                	jne    1031bc <k_obj_free+0x11c>
  1031b1:	48 8b 47 08          	mov    0x8(%rdi),%rax
  1031b5:	48 89 05 e4 9e 00 00 	mov    %rax,0x9ee4(%rip)        # 10d0a0 <l_memRoot>
  1031bc:	48 39 3d e5 9e 00 00 	cmp    %rdi,0x9ee5(%rip)        # 10d0a8 <l_bestBet>
  1031c3:	75 0b                	jne    1031d0 <k_obj_free+0x130>
  1031c5:	48 c7 05 d8 9e 00 00 	movq   $0x0,0x9ed8(%rip)        # 10d0a8 <l_bestBet>
  1031cc:	00 00 00 00 
  1031d0:	48 8b 07             	mov    (%rdi),%rax
  1031d3:	48 85 c0             	test   %rax,%rax
  1031d6:	74 08                	je     1031e0 <k_obj_free+0x140>
  1031d8:	48 8b 4f 08          	mov    0x8(%rdi),%rcx
  1031dc:	48 89 48 08          	mov    %rcx,0x8(%rax)
  1031e0:	48 8b 4f 08          	mov    0x8(%rdi),%rcx
  1031e4:	48 85 c9             	test   %rcx,%rcx
  1031e7:	74 03                	je     1031ec <k_obj_free+0x14c>
  1031e9:	48 89 01             	mov    %rax,(%rcx)
  1031ec:	8b 47 14             	mov    0x14(%rdi),%eax
  1031ef:	48 29 05 d2 9e 00 00 	sub    %rax,0x9ed2(%rip)        # 10d0c8 <l_allocated>
  1031f6:	48 63 77 10          	movslq 0x10(%rdi),%rsi
  1031fa:	48 83 c4 08          	add    $0x8,%rsp
  1031fe:	5b                   	pop    %rbx
  1031ff:	5d                   	pop    %rbp
  103200:	e9 3b 0d 00 00       	jmp    103f40 <page_free_found>
  103205:	66 66 2e 0f 1f 84 00 	data16 cs nopw 0x0(%rax,%rax,1)
  10320c:	00 00 00 00 

0000000000103210 <k_obj_calloc>:
  103210:	55                   	push   %rbp
  103211:	48 89 e5             	mov    %rsp,%rbp
  103214:	41 56                	push   %r14
  103216:	53                   	push   %rbx
  103217:	48 0f af fe          	imul   %rsi,%rdi
  10321b:	48 63 df             	movslq %edi,%rbx
  10321e:	49 89 fe             	mov    %rdi,%r14
  103221:	49 c1 e6 20          	shl    $0x20,%r14
  103225:	48 89 df             	mov    %rbx,%rdi
  103228:	e8 33 fa ff ff       	call   102c60 <k_obj_alloc>
  10322d:	4d 85 f6             	test   %r14,%r14
  103230:	74 19                	je     10324b <k_obj_calloc+0x3b>
  103232:	31 c9                	xor    %ecx,%ecx
  103234:	66 66 66 2e 0f 1f 84 	data16 data16 cs nopw 0x0(%rax,%rax,1)
  10323b:	00 00 00 00 00 
  103240:	c6 04 08 00          	movb   $0x0,(%rax,%rcx,1)
  103244:	ff c1                	inc    %ecx
  103246:	48 39 d9             	cmp    %rbx,%rcx
  103249:	72 f5                	jb     103240 <k_obj_calloc+0x30>
  10324b:	5b                   	pop    %rbx
  10324c:	41 5e                	pop    %r14
  10324e:	5d                   	pop    %rbp
  10324f:	c3                   	ret

0000000000103250 <k_obj_realloc>:
  103250:	55                   	push   %rbp
  103251:	48 89 e5             	mov    %rsp,%rbp
  103254:	41 57                	push   %r15
  103256:	41 56                	push   %r14
  103258:	41 54                	push   %r12
  10325a:	53                   	push   %rbx
  10325b:	49 89 ff             	mov    %rdi,%r15
  10325e:	48 85 f6             	test   %rsi,%rsi
  103261:	0f 84 d3 00 00 00    	je     10333a <k_obj_realloc+0xea>
  103267:	4d 85 ff             	test   %r15,%r15
  10326a:	0f 84 d4 00 00 00    	je     103344 <k_obj_realloc+0xf4>
  103270:	49 0f be 47 f0       	movsbq -0x10(%r15),%rax
  103275:	4c 89 f9             	mov    %r15,%rcx
  103278:	48 29 c1             	sub    %rax,%rcx
  10327b:	48 83 f8 20          	cmp    $0x20,%rax
  10327f:	49 0f 43 cf          	cmovae %r15,%rcx
  103283:	8b 41 f0             	mov    -0x10(%rcx),%eax
  103286:	3d de c0 01 c0       	cmp    $0xc001c0de,%eax
  10328b:	0f 85 c3 00 00 00    	jne    103354 <k_obj_realloc+0x104>
  103291:	44 8b 61 f8          	mov    -0x8(%rcx),%r12d
  103295:	49 39 f4             	cmp    %rsi,%r12
  103298:	0f 83 f8 00 00 00    	jae    103396 <k_obj_realloc+0x146>
  10329e:	48 89 f7             	mov    %rsi,%rdi
  1032a1:	e8 ba f9 ff ff       	call   102c60 <k_obj_alloc>
  1032a6:	49 89 c6             	mov    %rax,%r14
  1032a9:	41 83 fc 04          	cmp    $0x4,%r12d
  1032ad:	0f 82 eb 00 00 00    	jb     10339e <k_obj_realloc+0x14e>
  1032b3:	49 8d 54 24 fc       	lea    -0x4(%r12),%rdx
  1032b8:	48 83 fa 1c          	cmp    $0x1c,%rdx
  1032bc:	0f 82 e4 00 00 00    	jb     1033a6 <k_obj_realloc+0x156>
  1032c2:	4c 89 f0             	mov    %r14,%rax
  1032c5:	4c 29 f8             	sub    %r15,%rax
  1032c8:	48 83 f8 20          	cmp    $0x20,%rax
  1032cc:	0f 82 d4 00 00 00    	jb     1033a6 <k_obj_realloc+0x156>
  1032d2:	48 c1 ea 02          	shr    $0x2,%rdx
  1032d6:	48 ff c2             	inc    %rdx
  1032d9:	48 89 d6             	mov    %rdx,%rsi
  1032dc:	48 83 e6 f8          	and    $0xfffffffffffffff8,%rsi
  1032e0:	48 8d 4e f8          	lea    -0x8(%rsi),%rcx
  1032e4:	48 89 c8             	mov    %rcx,%rax
  1032e7:	48 c1 e8 03          	shr    $0x3,%rax
  1032eb:	48 ff c0             	inc    %rax
  1032ee:	48 85 c9             	test   %rcx,%rcx
  1032f1:	0f 84 b7 00 00 00    	je     1033ae <k_obj_realloc+0x15e>
  1032f7:	48 89 c7             	mov    %rax,%rdi
  1032fa:	48 83 e7 fe          	and    $0xfffffffffffffffe,%rdi
  1032fe:	31 c9                	xor    %ecx,%ecx
  103300:	41 0f 10 04 8f       	movups (%r15,%rcx,4),%xmm0
  103305:	41 0f 10 4c 8f 10    	movups 0x10(%r15,%rcx,4),%xmm1
  10330b:	41 0f 11 04 8e       	movups %xmm0,(%r14,%rcx,4)
  103310:	41 0f 11 4c 8e 10    	movups %xmm1,0x10(%r14,%rcx,4)
  103316:	41 0f 10 44 8f 20    	movups 0x20(%r15,%rcx,4),%xmm0
  10331c:	41 0f 10 4c 8f 30    	movups 0x30(%r15,%rcx,4),%xmm1
  103322:	41 0f 11 44 8e 20    	movups %xmm0,0x20(%r14,%rcx,4)
  103328:	41 0f 11 4c 8e 30    	movups %xmm1,0x30(%r14,%rcx,4)
  10332e:	48 83 c1 10          	add    $0x10,%rcx
  103332:	48 83 c7 fe          	add    $0xfffffffffffffffe,%rdi
  103336:	75 c8                	jne    103300 <k_obj_realloc+0xb0>
  103338:	eb 76                	jmp    1033b0 <k_obj_realloc+0x160>
  10333a:	4c 89 ff             	mov    %r15,%rdi
  10333d:	e8 5e fd ff ff       	call   1030a0 <k_obj_free>
  103342:	eb 43                	jmp    103387 <k_obj_realloc+0x137>
  103344:	48 89 f7             	mov    %rsi,%rdi
  103347:	5b                   	pop    %rbx
  103348:	41 5c                	pop    %r12
  10334a:	41 5e                	pop    %r14
  10334c:	41 5f                	pop    %r15
  10334e:	5d                   	pop    %rbp
  10334f:	e9 0c f9 ff ff       	jmp    102c60 <k_obj_alloc>
  103354:	48 ff 05 5d 9d 00 00 	incq   0x9d5d(%rip)        # 10d0b8 <l_errorCount>
  10335b:	89 c1                	mov    %eax,%ecx
  10335d:	81 e1 ff ff ff 00    	and    $0xffffff,%ecx
  103363:	81 f9 de c0 01 00    	cmp    $0x1c0de,%ecx
  103369:	74 15                	je     103380 <k_obj_realloc+0x130>
  10336b:	0f b7 c8             	movzwl %ax,%ecx
  10336e:	81 f9 de c0 00 00    	cmp    $0xc0de,%ecx
  103374:	74 0a                	je     103380 <k_obj_realloc+0x130>
  103376:	0f b6 c0             	movzbl %al,%eax
  103379:	3d de 00 00 00       	cmp    $0xde,%eax
  10337e:	75 07                	jne    103387 <k_obj_realloc+0x137>
  103380:	48 ff 05 39 9d 00 00 	incq   0x9d39(%rip)        # 10d0c0 <l_possibleOverruns>
  103387:	45 31 f6             	xor    %r14d,%r14d
  10338a:	4c 89 f0             	mov    %r14,%rax
  10338d:	5b                   	pop    %rbx
  10338e:	41 5c                	pop    %r12
  103390:	41 5e                	pop    %r14
  103392:	41 5f                	pop    %r15
  103394:	5d                   	pop    %rbp
  103395:	c3                   	ret
  103396:	89 71 f8             	mov    %esi,-0x8(%rcx)
  103399:	4d 89 fe             	mov    %r15,%r14
  10339c:	eb ec                	jmp    10338a <k_obj_realloc+0x13a>
  10339e:	4c 89 f0             	mov    %r14,%rax
  1033a1:	4c 89 f9             	mov    %r15,%rcx
  1033a4:	eb 60                	jmp    103406 <k_obj_realloc+0x1b6>
  1033a6:	4c 89 f9             	mov    %r15,%rcx
  1033a9:	4c 89 f0             	mov    %r14,%rax
  1033ac:	eb 42                	jmp    1033f0 <k_obj_realloc+0x1a0>
  1033ae:	31 c9                	xor    %ecx,%ecx
  1033b0:	48 8d 3c b5 00 00 00 	lea    0x0(,%rsi,4),%rdi
  1033b7:	00 
  1033b8:	a8 01                	test   $0x1,%al
  1033ba:	74 16                	je     1033d2 <k_obj_realloc+0x182>
  1033bc:	41 0f 10 04 8f       	movups (%r15,%rcx,4),%xmm0
  1033c1:	41 0f 10 4c 8f 10    	movups 0x10(%r15,%rcx,4),%xmm1
  1033c7:	41 0f 11 04 8e       	movups %xmm0,(%r14,%rcx,4)
  1033cc:	41 0f 11 4c 8e 10    	movups %xmm1,0x10(%r14,%rcx,4)
  1033d2:	49 8d 0c b7          	lea    (%r15,%rsi,4),%rcx
  1033d6:	49 8d 04 b6          	lea    (%r14,%rsi,4),%rax
  1033da:	49 29 fc             	sub    %rdi,%r12
  1033dd:	48 39 f2             	cmp    %rsi,%rdx
  1033e0:	74 24                	je     103406 <k_obj_realloc+0x1b6>
  1033e2:	66 66 66 66 66 2e 0f 	data16 data16 data16 data16 cs nopw 0x0(%rax,%rax,1)
  1033e9:	1f 84 00 00 00 00 00 
  1033f0:	8b 11                	mov    (%rcx),%edx
  1033f2:	48 83 c1 04          	add    $0x4,%rcx
  1033f6:	89 10                	mov    %edx,(%rax)
  1033f8:	48 83 c0 04          	add    $0x4,%rax
  1033fc:	49 83 c4 fc          	add    $0xfffffffffffffffc,%r12
  103400:	49 83 fc 03          	cmp    $0x3,%r12
  103404:	77 ea                	ja     1033f0 <k_obj_realloc+0x1a0>
  103406:	4d 85 e4             	test   %r12,%r12
  103409:	0f 84 e0 01 00 00    	je     1035ef <k_obj_realloc+0x39f>
  10340f:	49 83 fc 08          	cmp    $0x8,%r12
  103413:	0f 82 4c 01 00 00    	jb     103565 <k_obj_realloc+0x315>
  103419:	48 89 c2             	mov    %rax,%rdx
  10341c:	48 29 ca             	sub    %rcx,%rdx
  10341f:	48 83 fa 20          	cmp    $0x20,%rdx
  103423:	0f 82 3c 01 00 00    	jb     103565 <k_obj_realloc+0x315>
  103429:	49 83 fc 20          	cmp    $0x20,%r12
  10342d:	73 07                	jae    103436 <k_obj_realloc+0x1e6>
  10342f:	31 d2                	xor    %edx,%edx
  103431:	e9 e6 00 00 00       	jmp    10351c <k_obj_realloc+0x2cc>
  103436:	4c 89 e2             	mov    %r12,%rdx
  103439:	48 83 e2 e0          	and    $0xffffffffffffffe0,%rdx
  10343d:	48 8d 72 e0          	lea    -0x20(%rdx),%rsi
  103441:	48 89 f7             	mov    %rsi,%rdi
  103444:	48 c1 ef 05          	shr    $0x5,%rdi
  103448:	48 ff c7             	inc    %rdi
  10344b:	41 89 f8             	mov    %edi,%r8d
  10344e:	41 83 e0 03          	and    $0x3,%r8d
  103452:	48 83 fe 60          	cmp    $0x60,%rsi
  103456:	73 04                	jae    10345c <k_obj_realloc+0x20c>
  103458:	31 f6                	xor    %esi,%esi
  10345a:	eb 6c                	jmp    1034c8 <k_obj_realloc+0x278>
  10345c:	48 83 e7 fc          	and    $0xfffffffffffffffc,%rdi
  103460:	31 f6                	xor    %esi,%esi
  103462:	66 66 66 66 66 2e 0f 	data16 data16 data16 data16 cs nopw 0x0(%rax,%rax,1)
  103469:	1f 84 00 00 00 00 00 
  103470:	0f 10 04 31          	movups (%rcx,%rsi,1),%xmm0
  103474:	0f 10 4c 31 10       	movups 0x10(%rcx,%rsi,1),%xmm1
  103479:	0f 11 04 30          	movups %xmm0,(%rax,%rsi,1)
  10347d:	0f 11 4c 30 10       	movups %xmm1,0x10(%rax,%rsi,1)
  103482:	0f 10 44 31 20       	movups 0x20(%rcx,%rsi,1),%xmm0
  103487:	0f 10 4c 31 30       	movups 0x30(%rcx,%rsi,1),%xmm1
  10348c:	0f 11 44 30 20       	movups %xmm0,0x20(%rax,%rsi,1)
  103491:	0f 11 4c 30 30       	movups %xmm1,0x30(%rax,%rsi,1)
  103496:	0f 10 44 31 40       	movups 0x40(%rcx,%rsi,1),%xmm0
  10349b:	0f 10 4c 31 50       	movups 0x50(%rcx,%rsi,1),%xmm1
  1034a0:	0f 11 44 30 40       	movups %xmm0,0x40(%rax,%rsi,1)
  1034a5:	0f 11 4c 30 50       	movups %xmm1,0x50(%rax,%rsi,1)
  1034aa:	0f 10 44 31 60       	movups 0x60(%rcx,%rsi,1),%xmm0
  1034af:	0f 10 4c 31 70       	movups 0x70(%rcx,%rsi,1),%xmm1
  1034b4:	0f 11 44 30 60       	movups %xmm0,0x60(%rax,%rsi,1)
  1034b9:	0f 11 4c 30 70       	movups %xmm1,0x70(%rax,%rsi,1)
  1034be:	48 83 ee 80          	sub    $0xffffffffffffff80,%rsi
  1034c2:	48 83 c7 fc          	add    $0xfffffffffffffffc,%rdi
  1034c6:	75 a8                	jne    103470 <k_obj_realloc+0x220>
  1034c8:	4d 85 c0             	test   %r8,%r8
  1034cb:	74 40                	je     10350d <k_obj_realloc+0x2bd>
  1034cd:	4c 8d 0c 30          	lea    (%rax,%rsi,1),%r9
  1034d1:	49 83 c1 10          	add    $0x10,%r9
  1034d5:	48 01 ce             	add    %rcx,%rsi
  1034d8:	48 83 c6 10          	add    $0x10,%rsi
  1034dc:	49 c1 e0 05          	shl    $0x5,%r8
  1034e0:	31 ff                	xor    %edi,%edi
  1034e2:	66 66 66 66 66 2e 0f 	data16 data16 data16 data16 cs nopw 0x0(%rax,%rax,1)
  1034e9:	1f 84 00 00 00 00 00 
  1034f0:	0f 10 44 3e f0       	movups -0x10(%rsi,%rdi,1),%xmm0
  1034f5:	0f 10 0c 3e          	movups (%rsi,%rdi,1),%xmm1
  1034f9:	41 0f 11 44 39 f0    	movups %xmm0,-0x10(%r9,%rdi,1)
  1034ff:	41 0f 11 0c 39       	movups %xmm1,(%r9,%rdi,1)
  103504:	48 83 c7 20          	add    $0x20,%rdi
  103508:	49 39 f8             	cmp    %rdi,%r8
  10350b:	75 e3                	jne    1034f0 <k_obj_realloc+0x2a0>
  10350d:	49 39 d4             	cmp    %rdx,%r12
  103510:	0f 84 d9 00 00 00    	je     1035ef <k_obj_realloc+0x39f>
  103516:	41 f6 c4 18          	test   $0x18,%r12b
  10351a:	74 3f                	je     10355b <k_obj_realloc+0x30b>
  10351c:	4d 89 e1             	mov    %r12,%r9
  10351f:	49 83 e1 f8          	and    $0xfffffffffffffff8,%r9
  103523:	4a 8d 34 09          	lea    (%rcx,%r9,1),%rsi
  103527:	4a 8d 3c 08          	lea    (%rax,%r9,1),%rdi
  10352b:	45 89 e0             	mov    %r12d,%r8d
  10352e:	41 83 e0 07          	and    $0x7,%r8d
  103532:	66 66 66 66 66 2e 0f 	data16 data16 data16 data16 cs nopw 0x0(%rax,%rax,1)
  103539:	1f 84 00 00 00 00 00 
  103540:	48 8b 1c 11          	mov    (%rcx,%rdx,1),%rbx
  103544:	48 89 1c 10          	mov    %rbx,(%rax,%rdx,1)
  103548:	48 83 c2 08          	add    $0x8,%rdx
  10354c:	49 39 d1             	cmp    %rdx,%r9
  10354f:	75 ef                	jne    103540 <k_obj_realloc+0x2f0>
  103551:	4d 39 cc             	cmp    %r9,%r12
  103554:	75 18                	jne    10356e <k_obj_realloc+0x31e>
  103556:	e9 94 00 00 00       	jmp    1035ef <k_obj_realloc+0x39f>
  10355b:	41 83 e4 1f          	and    $0x1f,%r12d
  10355f:	48 01 d0             	add    %rdx,%rax
  103562:	48 01 d1             	add    %rdx,%rcx
  103565:	48 89 ce             	mov    %rcx,%rsi
  103568:	48 89 c7             	mov    %rax,%rdi
  10356b:	4d 89 e0             	mov    %r12,%r8
  10356e:	49 8d 40 ff          	lea    -0x1(%r8),%rax
  103572:	4c 89 c2             	mov    %r8,%rdx
  103575:	48 83 e2 07          	and    $0x7,%rdx
  103579:	74 1d                	je     103598 <k_obj_realloc+0x348>
  10357b:	31 c9                	xor    %ecx,%ecx
  10357d:	0f 1f 00             	nopl   (%rax)
  103580:	0f b6 1c 0e          	movzbl (%rsi,%rcx,1),%ebx
  103584:	88 1c 0f             	mov    %bl,(%rdi,%rcx,1)
  103587:	48 ff c1             	inc    %rcx
  10358a:	48 39 ca             	cmp    %rcx,%rdx
  10358d:	75 f1                	jne    103580 <k_obj_realloc+0x330>
  10358f:	48 01 ce             	add    %rcx,%rsi
  103592:	48 01 cf             	add    %rcx,%rdi
  103595:	49 29 c8             	sub    %rcx,%r8
  103598:	48 83 f8 07          	cmp    $0x7,%rax
  10359c:	72 51                	jb     1035ef <k_obj_realloc+0x39f>
  10359e:	31 c0                	xor    %eax,%eax
  1035a0:	0f b6 0c 06          	movzbl (%rsi,%rax,1),%ecx
  1035a4:	88 0c 07             	mov    %cl,(%rdi,%rax,1)
  1035a7:	0f b6 4c 06 01       	movzbl 0x1(%rsi,%rax,1),%ecx
  1035ac:	88 4c 07 01          	mov    %cl,0x1(%rdi,%rax,1)
  1035b0:	0f b6 4c 06 02       	movzbl 0x2(%rsi,%rax,1),%ecx
  1035b5:	88 4c 07 02          	mov    %cl,0x2(%rdi,%rax,1)
  1035b9:	0f b6 4c 06 03       	movzbl 0x3(%rsi,%rax,1),%ecx
  1035be:	88 4c 07 03          	mov    %cl,0x3(%rdi,%rax,1)
  1035c2:	0f b6 4c 06 04       	movzbl 0x4(%rsi,%rax,1),%ecx
  1035c7:	88 4c 07 04          	mov    %cl,0x4(%rdi,%rax,1)
  1035cb:	0f b6 4c 06 05       	movzbl 0x5(%rsi,%rax,1),%ecx
  1035d0:	88 4c 07 05          	mov    %cl,0x5(%rdi,%rax,1)
  1035d4:	0f b6 4c 06 06       	movzbl 0x6(%rsi,%rax,1),%ecx
  1035d9:	88 4c 07 06          	mov    %cl,0x6(%rdi,%rax,1)
  1035dd:	0f b6 4c 06 07       	movzbl 0x7(%rsi,%rax,1),%ecx
  1035e2:	88 4c 07 07          	mov    %cl,0x7(%rdi,%rax,1)
  1035e6:	48 83 c0 08          	add    $0x8,%rax
  1035ea:	49 39 c0             	cmp    %rax,%r8
  1035ed:	75 b1                	jne    1035a0 <k_obj_realloc+0x350>
  1035ef:	4c 89 ff             	mov    %r15,%rdi
  1035f2:	e8 a9 fa ff ff       	call   1030a0 <k_obj_free>
  1035f7:	e9 8e fd ff ff       	jmp    10338a <k_obj_realloc+0x13a>
  1035fc:	0f 1f 40 00          	nopl   0x0(%rax)

0000000000103600 <page_init_map>:
  103600:	55                   	push   %rbp
  103601:	48 89 e5             	mov    %rsp,%rbp
  103604:	31 c0                	xor    %eax,%eax
  103606:	0f 57 c0             	xorps  %xmm0,%xmm0
  103609:	0f 1f 80 00 00 00 00 	nopl   0x0(%rax)
  103610:	0f 29 80 00 e0 10 00 	movaps %xmm0,0x10e000(%rax)
  103617:	0f 29 80 10 e0 10 00 	movaps %xmm0,0x10e010(%rax)
  10361e:	0f 29 80 20 e0 10 00 	movaps %xmm0,0x10e020(%rax)
  103625:	0f 29 80 30 e0 10 00 	movaps %xmm0,0x10e030(%rax)
  10362c:	0f 29 80 40 e0 10 00 	movaps %xmm0,0x10e040(%rax)
  103633:	0f 29 80 50 e0 10 00 	movaps %xmm0,0x10e050(%rax)
  10363a:	0f 29 80 60 e0 10 00 	movaps %xmm0,0x10e060(%rax)
  103641:	0f 29 80 70 e0 10 00 	movaps %xmm0,0x10e070(%rax)
  103648:	48 83 e8 80          	sub    $0xffffffffffffff80,%rax
  10364c:	48 3d 00 00 00 01    	cmp    $0x1000000,%rax
  103652:	75 bc                	jne    103610 <page_init_map+0x10>
  103654:	48 c7 c0 00 f0 ff ff 	mov    $0xfffffffffffff000,%rax
  10365b:	0f 57 c0             	xorps  %xmm0,%xmm0
  10365e:	66 90                	xchg   %ax,%ax
  103660:	0f 29 80 00 f0 10 01 	movaps %xmm0,0x110f000(%rax)
  103667:	0f 29 80 10 f0 10 01 	movaps %xmm0,0x110f010(%rax)
  10366e:	0f 29 80 20 f0 10 01 	movaps %xmm0,0x110f020(%rax)
  103675:	0f 29 80 30 f0 10 01 	movaps %xmm0,0x110f030(%rax)
  10367c:	0f 29 80 40 f0 10 01 	movaps %xmm0,0x110f040(%rax)
  103683:	0f 29 80 50 f0 10 01 	movaps %xmm0,0x110f050(%rax)
  10368a:	0f 29 80 60 f0 10 01 	movaps %xmm0,0x110f060(%rax)
  103691:	0f 29 80 70 f0 10 01 	movaps %xmm0,0x110f070(%rax)
  103698:	48 83 e8 80          	sub    $0xffffffffffffff80,%rax
  10369c:	75 c2                	jne    103660 <page_init_map+0x60>
  10369e:	5d                   	pop    %rbp
  10369f:	c3                   	ret

00000000001036a0 <page_lookup_paddr>:
  1036a0:	55                   	push   %rbp
  1036a1:	48 89 e5             	mov    %rsp,%rbp
  1036a4:	53                   	push   %rbx
  1036a5:	50                   	push   %rax
  1036a6:	48 89 fb             	mov    %rdi,%rbx
  1036a9:	48 89 f8             	mov    %rdi,%rax
  1036ac:	48 c1 e8 24          	shr    $0x24,%rax
  1036b0:	25 f8 0f 00 00       	and    $0xff8,%eax
  1036b5:	8b 88 00 e0 10 01    	mov    0x110e000(%rax),%ecx
  1036bb:	0f b6 90 04 e0 10 01 	movzbl 0x110e004(%rax),%edx
  1036c2:	48 c1 e2 20          	shl    $0x20,%rdx
  1036c6:	48 09 ca             	or     %rcx,%rdx
  1036c9:	48 c1 ea 0c          	shr    $0xc,%rdx
  1036cd:	0f b6 80 05 e0 10 01 	movzbl 0x110e005(%rax),%eax
  1036d4:	c1 e0 1c             	shl    $0x1c,%eax
  1036d7:	48 98                	cltq
  1036d9:	48 09 d0             	or     %rdx,%rax
  1036dc:	74 72                	je     103750 <page_lookup_paddr+0xb0>
  1036de:	48 c1 e0 0c          	shl    $0xc,%rax
  1036e2:	48 89 d9             	mov    %rbx,%rcx
  1036e5:	48 c1 e9 1b          	shr    $0x1b,%rcx
  1036e9:	81 e1 f8 0f 00 00    	and    $0xff8,%ecx
  1036ef:	8b 14 08             	mov    (%rax,%rcx,1),%edx
  1036f2:	0f b6 74 08 04       	movzbl 0x4(%rax,%rcx,1),%esi
  1036f7:	48 c1 e6 20          	shl    $0x20,%rsi
  1036fb:	48 09 d6             	or     %rdx,%rsi
  1036fe:	48 c1 ee 0c          	shr    $0xc,%rsi
  103702:	0f b6 44 08 05       	movzbl 0x5(%rax,%rcx,1),%eax
  103707:	c1 e0 1c             	shl    $0x1c,%eax
  10370a:	48 63 c8             	movslq %eax,%rcx
  10370d:	48 09 f1             	or     %rsi,%rcx
  103710:	74 3e                	je     103750 <page_lookup_paddr+0xb0>
  103712:	89 d8                	mov    %ebx,%eax
  103714:	25 ff ff 1f 00       	and    $0x1fffff,%eax
  103719:	c1 eb 15             	shr    $0x15,%ebx
  10371c:	81 e3 ff 01 00 00    	and    $0x1ff,%ebx
  103722:	48 c1 e1 0c          	shl    $0xc,%rcx
  103726:	8b 14 d9             	mov    (%rcx,%rbx,8),%edx
  103729:	0f b6 74 d9 04       	movzbl 0x4(%rcx,%rbx,8),%esi
  10372e:	48 c1 e6 20          	shl    $0x20,%rsi
  103732:	48 09 d6             	or     %rdx,%rsi
  103735:	48 c1 ee 0c          	shr    $0xc,%rsi
  103739:	0f b6 4c d9 05       	movzbl 0x5(%rcx,%rbx,8),%ecx
  10373e:	c1 e1 1c             	shl    $0x1c,%ecx
  103741:	48 63 d9             	movslq %ecx,%rbx
  103744:	48 09 f3             	or     %rsi,%rbx
  103747:	48 c1 e3 0c          	shl    $0xc,%rbx
  10374b:	48 01 c3             	add    %rax,%rbx
  10374e:	eb 0a                	jmp    10375a <page_lookup_paddr+0xba>
  103750:	bf dd b9 10 00       	mov    $0x10b9dd,%edi
  103755:	e8 16 e1 ff ff       	call   101870 <dbgconout>
  10375a:	48 89 d8             	mov    %rbx,%rax
  10375d:	48 83 c4 08          	add    $0x8,%rsp
  103761:	5b                   	pop    %rbx
  103762:	5d                   	pop    %rbp
  103763:	c3                   	ret
  103764:	66 66 66 2e 0f 1f 84 	data16 data16 cs nopw 0x0(%rax,%rax,1)
  10376b:	00 00 00 00 00 

0000000000103770 <page_alloc>:
  103770:	55                   	push   %rbp
  103771:	48 89 e5             	mov    %rsp,%rbp
  103774:	41 57                	push   %r15
  103776:	41 56                	push   %r14
  103778:	41 55                	push   %r13
  10377a:	41 54                	push   %r12
  10377c:	53                   	push   %rbx
  10377d:	50                   	push   %rax
  10377e:	49 89 f7             	mov    %rsi,%r15
  103781:	49 89 fe             	mov    %rdi,%r14
  103784:	48 89 f3             	mov    %rsi,%rbx
  103787:	48 c1 eb 27          	shr    $0x27,%rbx
  10378b:	81 e3 ff 01 00 00    	and    $0x1ff,%ebx
  103791:	49 89 f4             	mov    %rsi,%r12
  103794:	49 c1 ec 1e          	shr    $0x1e,%r12
  103798:	41 81 e4 ff 01 00 00 	and    $0x1ff,%r12d
  10379f:	8b 04 dd 00 e0 10 01 	mov    0x110e000(,%rbx,8),%eax
  1037a6:	0f b6 0c dd 04 e0 10 	movzbl 0x110e004(,%rbx,8),%ecx
  1037ad:	01 
  1037ae:	48 c1 e1 20          	shl    $0x20,%rcx
  1037b2:	48 09 c1             	or     %rax,%rcx
  1037b5:	f6 c1 01             	test   $0x1,%cl
  1037b8:	75 36                	jne    1037f0 <page_alloc+0x80>
  1037ba:	bf 00 f0 10 01       	mov    $0x110f000,%edi
  1037bf:	be 00 10 00 00       	mov    $0x1000,%esi
  1037c4:	e8 37 0a 00 00       	call   104200 <k_pageobj_alloc>
  1037c9:	8b 0c dd 00 e0 10 01 	mov    0x110e000(,%rbx,8),%ecx
  1037d0:	48 89 c2             	mov    %rax,%rdx
  1037d3:	48 81 e2 00 f0 ff ff 	and    $0xfffffffffffff000,%rdx
  1037da:	81 e1 ff 0f 00 00    	and    $0xfff,%ecx
  1037e0:	48 09 d1             	or     %rdx,%rcx
  1037e3:	48 c1 e8 28          	shr    $0x28,%rax
  1037e7:	88 04 dd 05 e0 10 01 	mov    %al,0x110e005(,%rbx,8)
  1037ee:	eb 08                	jmp    1037f8 <page_alloc+0x88>
  1037f0:	0f b6 04 dd 05 e0 10 	movzbl 0x110e005(,%rbx,8),%eax
  1037f7:	01 
  1037f8:	48 89 ca             	mov    %rcx,%rdx
  1037fb:	48 83 ca 03          	or     $0x3,%rdx
  1037ff:	48 89 ce             	mov    %rcx,%rsi
  103802:	48 c1 ee 20          	shr    $0x20,%rsi
  103806:	40 88 34 dd 04 e0 10 	mov    %sil,0x110e004(,%rbx,8)
  10380d:	01 
  10380e:	89 14 dd 00 e0 10 01 	mov    %edx,0x110e000(,%rbx,8)
  103815:	48 c1 e9 0c          	shr    $0xc,%rcx
  103819:	81 e1 ff ff ff 0f    	and    $0xfffffff,%ecx
  10381f:	0f b6 c0             	movzbl %al,%eax
  103822:	c1 e0 1c             	shl    $0x1c,%eax
  103825:	48 63 d8             	movslq %eax,%rbx
  103828:	48 09 cb             	or     %rcx,%rbx
  10382b:	48 c1 e3 0c          	shl    $0xc,%rbx
  10382f:	42 8b 0c e3          	mov    (%rbx,%r12,8),%ecx
  103833:	42 0f b6 44 e3 04    	movzbl 0x4(%rbx,%r12,8),%eax
  103839:	48 c1 e0 20          	shl    $0x20,%rax
  10383d:	48 09 c8             	or     %rcx,%rax
  103840:	48 89 c2             	mov    %rax,%rdx
  103843:	48 c1 ea 0c          	shr    $0xc,%rdx
  103847:	42 0f b6 4c e3 05    	movzbl 0x5(%rbx,%r12,8),%ecx
  10384d:	c1 e1 1c             	shl    $0x1c,%ecx
  103850:	48 63 c9             	movslq %ecx,%rcx
  103853:	48 09 d1             	or     %rdx,%rcx
  103856:	74 0b                	je     103863 <page_alloc+0xf3>
  103858:	89 c2                	mov    %eax,%edx
  10385a:	83 e2 01             	and    $0x1,%edx
  10385d:	0f 85 0c 01 00 00    	jne    10396f <page_alloc+0x1ff>
  103863:	bf 00 f0 10 01       	mov    $0x110f000,%edi
  103868:	be 00 10 00 00       	mov    $0x1000,%esi
  10386d:	e8 8e 09 00 00       	call   104200 <k_pageobj_alloc>
  103872:	49 89 c5             	mov    %rax,%r13
  103875:	48 c1 e8 24          	shr    $0x24,%rax
  103879:	25 f8 0f 00 00       	and    $0xff8,%eax
  10387e:	8b 88 00 e0 10 01    	mov    0x110e000(%rax),%ecx
  103884:	0f b6 90 04 e0 10 01 	movzbl 0x110e004(%rax),%edx
  10388b:	48 c1 e2 20          	shl    $0x20,%rdx
  10388f:	48 09 ca             	or     %rcx,%rdx
  103892:	48 c1 ea 0c          	shr    $0xc,%rdx
  103896:	0f b6 80 05 e0 10 01 	movzbl 0x110e005(%rax),%eax
  10389d:	c1 e0 1c             	shl    $0x1c,%eax
  1038a0:	48 98                	cltq
  1038a2:	48 09 d0             	or     %rdx,%rax
  1038a5:	74 78                	je     10391f <page_alloc+0x1af>
  1038a7:	48 c1 e0 0c          	shl    $0xc,%rax
  1038ab:	4c 89 e9             	mov    %r13,%rcx
  1038ae:	48 c1 e9 1b          	shr    $0x1b,%rcx
  1038b2:	81 e1 f8 0f 00 00    	and    $0xff8,%ecx
  1038b8:	8b 14 08             	mov    (%rax,%rcx,1),%edx
  1038bb:	0f b6 74 08 04       	movzbl 0x4(%rax,%rcx,1),%esi
  1038c0:	48 c1 e6 20          	shl    $0x20,%rsi
  1038c4:	48 09 d6             	or     %rdx,%rsi
  1038c7:	48 c1 ee 0c          	shr    $0xc,%rsi
  1038cb:	0f b6 44 08 05       	movzbl 0x5(%rax,%rcx,1),%eax
  1038d0:	c1 e0 1c             	shl    $0x1c,%eax
  1038d3:	48 63 c8             	movslq %eax,%rcx
  1038d6:	48 09 f1             	or     %rsi,%rcx
  1038d9:	74 44                	je     10391f <page_alloc+0x1af>
  1038db:	44 89 e8             	mov    %r13d,%eax
  1038de:	25 ff ff 1f 00       	and    $0x1fffff,%eax
  1038e3:	41 c1 ed 15          	shr    $0x15,%r13d
  1038e7:	41 81 e5 ff 01 00 00 	and    $0x1ff,%r13d
  1038ee:	48 c1 e1 0c          	shl    $0xc,%rcx
  1038f2:	42 8b 14 e9          	mov    (%rcx,%r13,8),%edx
  1038f6:	42 0f b6 74 e9 04    	movzbl 0x4(%rcx,%r13,8),%esi
  1038fc:	48 c1 e6 20          	shl    $0x20,%rsi
  103900:	48 09 d6             	or     %rdx,%rsi
  103903:	48 c1 ee 0c          	shr    $0xc,%rsi
  103907:	42 0f b6 4c e9 05    	movzbl 0x5(%rcx,%r13,8),%ecx
  10390d:	c1 e1 1c             	shl    $0x1c,%ecx
  103910:	4c 63 e9             	movslq %ecx,%r13
  103913:	49 09 f5             	or     %rsi,%r13
  103916:	49 c1 e5 0c          	shl    $0xc,%r13
  10391a:	49 01 c5             	add    %rax,%r13
  10391d:	eb 0a                	jmp    103929 <page_alloc+0x1b9>
  10391f:	bf dd b9 10 00       	mov    $0x10b9dd,%edi
  103924:	e8 47 df ff ff       	call   101870 <dbgconout>
  103929:	42 8b 04 e3          	mov    (%rbx,%r12,8),%eax
  10392d:	4c 89 e9             	mov    %r13,%rcx
  103930:	48 81 e1 00 f0 ff ff 	and    $0xfffffffffffff000,%rcx
  103937:	25 ff 0f 00 00       	and    $0xfff,%eax
  10393c:	48 09 c8             	or     %rcx,%rax
  10393f:	4c 89 e9             	mov    %r13,%rcx
  103942:	48 c1 e9 20          	shr    $0x20,%rcx
  103946:	42 88 4c e3 04       	mov    %cl,0x4(%rbx,%r12,8)
  10394b:	42 89 04 e3          	mov    %eax,(%rbx,%r12,8)
  10394f:	4c 89 e9             	mov    %r13,%rcx
  103952:	48 c1 e9 28          	shr    $0x28,%rcx
  103956:	42 88 4c e3 05       	mov    %cl,0x5(%rbx,%r12,8)
  10395b:	49 c1 ed 0c          	shr    $0xc,%r13
  10395f:	41 81 e5 ff ff ff 0f 	and    $0xfffffff,%r13d
  103966:	c1 e1 1c             	shl    $0x1c,%ecx
  103969:	48 63 c9             	movslq %ecx,%rcx
  10396c:	4c 09 e9             	or     %r13,%rcx
  10396f:	48 89 c2             	mov    %rax,%rdx
  103972:	48 83 ca 03          	or     $0x3,%rdx
  103976:	48 c1 e8 20          	shr    $0x20,%rax
  10397a:	42 88 44 e3 04       	mov    %al,0x4(%rbx,%r12,8)
  10397f:	42 89 14 e3          	mov    %edx,(%rbx,%r12,8)
  103983:	48 c1 e1 0c          	shl    $0xc,%rcx
  103987:	49 c1 ef 12          	shr    $0x12,%r15
  10398b:	41 81 e7 f8 0f 00 00 	and    $0xff8,%r15d
  103992:	42 8b 04 39          	mov    (%rcx,%r15,1),%eax
  103996:	48 ba 00 00 e0 ff ff 	movabs $0xffffe00000,%rdx
  10399d:	00 00 00 
  1039a0:	4c 21 f2             	and    %r14,%rdx
  1039a3:	25 7c ef 1f 00       	and    $0x1fef7c,%eax
  1039a8:	4c 89 f6             	mov    %r14,%rsi
  1039ab:	48 c1 ee 28          	shr    $0x28,%rsi
  1039af:	42 88 74 39 05       	mov    %sil,0x5(%rcx,%r15,1)
  1039b4:	48 01 d0             	add    %rdx,%rax
  1039b7:	48 05 83 00 00 00    	add    $0x83,%rax
  1039bd:	4c 89 f2             	mov    %r14,%rdx
  1039c0:	48 c1 ea 20          	shr    $0x20,%rdx
  1039c4:	42 88 54 39 04       	mov    %dl,0x4(%rcx,%r15,1)
  1039c9:	42 89 04 39          	mov    %eax,(%rcx,%r15,1)
  1039cd:	4c 89 f1             	mov    %r14,%rcx
  1039d0:	48 c1 e9 15          	shr    $0x15,%rcx
  1039d4:	80 e1 07             	and    $0x7,%cl
  1039d7:	b0 01                	mov    $0x1,%al
  1039d9:	d2 e0                	shl    %cl,%al
  1039db:	49 c1 ee 18          	shr    $0x18,%r14
  1039df:	41 08 86 00 e0 10 00 	or     %al,0x10e000(%r14)
  1039e6:	48 83 c4 08          	add    $0x8,%rsp
  1039ea:	5b                   	pop    %rbx
  1039eb:	41 5c                	pop    %r12
  1039ed:	41 5d                	pop    %r13
  1039ef:	41 5e                	pop    %r14
  1039f1:	41 5f                	pop    %r15
  1039f3:	5d                   	pop    %rbp
  1039f4:	c3                   	ret
  1039f5:	66 66 2e 0f 1f 84 00 	data16 cs nopw 0x0(%rax,%rax,1)
  1039fc:	00 00 00 00 

0000000000103a00 <page_alloc_dev>:
  103a00:	55                   	push   %rbp
  103a01:	48 89 e5             	mov    %rsp,%rbp
  103a04:	41 57                	push   %r15
  103a06:	41 56                	push   %r14
  103a08:	41 55                	push   %r13
  103a0a:	41 54                	push   %r12
  103a0c:	53                   	push   %rbx
  103a0d:	50                   	push   %rax
  103a0e:	49 89 f6             	mov    %rsi,%r14
  103a11:	49 89 ff             	mov    %rdi,%r15
  103a14:	48 89 f3             	mov    %rsi,%rbx
  103a17:	48 c1 eb 27          	shr    $0x27,%rbx
  103a1b:	81 e3 ff 01 00 00    	and    $0x1ff,%ebx
  103a21:	49 89 f5             	mov    %rsi,%r13
  103a24:	49 c1 ed 1e          	shr    $0x1e,%r13
  103a28:	41 81 e5 ff 01 00 00 	and    $0x1ff,%r13d
  103a2f:	45 89 f4             	mov    %r14d,%r12d
  103a32:	41 c1 ec 15          	shr    $0x15,%r12d
  103a36:	41 81 e4 ff 01 00 00 	and    $0x1ff,%r12d
  103a3d:	8b 04 dd 00 e0 10 01 	mov    0x110e000(,%rbx,8),%eax
  103a44:	0f b6 0c dd 04 e0 10 	movzbl 0x110e004(,%rbx,8),%ecx
  103a4b:	01 
  103a4c:	48 c1 e1 20          	shl    $0x20,%rcx
  103a50:	48 09 c1             	or     %rax,%rcx
  103a53:	f6 c1 01             	test   $0x1,%cl
  103a56:	75 36                	jne    103a8e <page_alloc_dev+0x8e>
  103a58:	bf 00 f0 10 01       	mov    $0x110f000,%edi
  103a5d:	be 00 10 00 00       	mov    $0x1000,%esi
  103a62:	e8 99 07 00 00       	call   104200 <k_pageobj_alloc>
  103a67:	8b 0c dd 00 e0 10 01 	mov    0x110e000(,%rbx,8),%ecx
  103a6e:	48 89 c2             	mov    %rax,%rdx
  103a71:	48 81 e2 00 f0 ff ff 	and    $0xfffffffffffff000,%rdx
  103a78:	81 e1 ff 0f 00 00    	and    $0xfff,%ecx
  103a7e:	48 09 d1             	or     %rdx,%rcx
  103a81:	48 c1 e8 28          	shr    $0x28,%rax
  103a85:	88 04 dd 05 e0 10 01 	mov    %al,0x110e005(,%rbx,8)
  103a8c:	eb 08                	jmp    103a96 <page_alloc_dev+0x96>
  103a8e:	0f b6 04 dd 05 e0 10 	movzbl 0x110e005(,%rbx,8),%eax
  103a95:	01 
  103a96:	48 ba 74 ff ff ff ff 	movabs $0xffffffff74,%rdx
  103a9d:	00 00 00 
  103aa0:	48 21 ca             	and    %rcx,%rdx
  103aa3:	48 83 ca 0b          	or     $0xb,%rdx
  103aa7:	48 89 ce             	mov    %rcx,%rsi
  103aaa:	48 c1 ee 20          	shr    $0x20,%rsi
  103aae:	40 88 34 dd 04 e0 10 	mov    %sil,0x110e004(,%rbx,8)
  103ab5:	01 
  103ab6:	89 14 dd 00 e0 10 01 	mov    %edx,0x110e000(,%rbx,8)
  103abd:	80 24 dd 06 e0 10 01 	andb   $0xf0,0x110e006(,%rbx,8)
  103ac4:	f0 
  103ac5:	48 c1 e9 0c          	shr    $0xc,%rcx
  103ac9:	81 e1 ff ff ff 0f    	and    $0xfffffff,%ecx
  103acf:	0f b6 c0             	movzbl %al,%eax
  103ad2:	c1 e0 1c             	shl    $0x1c,%eax
  103ad5:	48 63 d8             	movslq %eax,%rbx
  103ad8:	48 09 cb             	or     %rcx,%rbx
  103adb:	48 c1 e3 0c          	shl    $0xc,%rbx
  103adf:	42 8b 04 eb          	mov    (%rbx,%r13,8),%eax
  103ae3:	42 0f b6 4c eb 04    	movzbl 0x4(%rbx,%r13,8),%ecx
  103ae9:	48 c1 e1 20          	shl    $0x20,%rcx
  103aed:	48 09 c1             	or     %rax,%rcx
  103af0:	f6 c1 01             	test   $0x1,%cl
  103af3:	75 41                	jne    103b36 <page_alloc_dev+0x136>
  103af5:	bf 00 f0 10 01       	mov    $0x110f000,%edi
  103afa:	be 00 10 00 00       	mov    $0x1000,%esi
  103aff:	e8 fc 06 00 00       	call   104200 <k_pageobj_alloc>
  103b04:	42 8b 0c eb          	mov    (%rbx,%r13,8),%ecx
  103b08:	48 89 c2             	mov    %rax,%rdx
  103b0b:	48 81 e2 00 f0 ff ff 	and    $0xfffffffffffff000,%rdx
  103b12:	81 e1 ff 0f 00 00    	and    $0xfff,%ecx
  103b18:	48 09 d1             	or     %rdx,%rcx
  103b1b:	48 89 c2             	mov    %rax,%rdx
  103b1e:	48 c1 ea 20          	shr    $0x20,%rdx
  103b22:	42 88 54 eb 04       	mov    %dl,0x4(%rbx,%r13,8)
  103b27:	42 89 0c eb          	mov    %ecx,(%rbx,%r13,8)
  103b2b:	48 c1 e8 28          	shr    $0x28,%rax
  103b2f:	42 88 44 eb 05       	mov    %al,0x5(%rbx,%r13,8)
  103b34:	eb 06                	jmp    103b3c <page_alloc_dev+0x13c>
  103b36:	42 0f b6 44 eb 05    	movzbl 0x5(%rbx,%r13,8),%eax
  103b3c:	48 89 ca             	mov    %rcx,%rdx
  103b3f:	48 83 ca 0b          	or     $0xb,%rdx
  103b43:	48 89 ce             	mov    %rcx,%rsi
  103b46:	48 c1 ee 20          	shr    $0x20,%rsi
  103b4a:	42 88 74 eb 04       	mov    %sil,0x4(%rbx,%r13,8)
  103b4f:	42 89 14 eb          	mov    %edx,(%rbx,%r13,8)
  103b53:	42 80 64 eb 06 f0    	andb   $0xf0,0x6(%rbx,%r13,8)
  103b59:	48 c1 e9 0c          	shr    $0xc,%rcx
  103b5d:	81 e1 ff ff ff 0f    	and    $0xfffffff,%ecx
  103b63:	0f b6 c0             	movzbl %al,%eax
  103b66:	c1 e0 1c             	shl    $0x1c,%eax
  103b69:	48 98                	cltq
  103b6b:	48 09 c8             	or     %rcx,%rax
  103b6e:	48 c1 e0 0c          	shl    $0xc,%rax
  103b72:	42 8b 0c e0          	mov    (%rax,%r12,8),%ecx
  103b76:	48 ba 00 10 e0 ff ff 	movabs $0xffffe01000,%rdx
  103b7d:	00 00 00 
  103b80:	4c 21 fa             	and    %r15,%rdx
  103b83:	81 e1 74 0f 00 00    	and    $0xf74,%ecx
  103b89:	4c 89 fe             	mov    %r15,%rsi
  103b8c:	48 c1 ee 28          	shr    $0x28,%rsi
  103b90:	42 88 74 e0 05       	mov    %sil,0x5(%rax,%r12,8)
  103b95:	48 01 d1             	add    %rdx,%rcx
  103b98:	48 81 c1 8b 00 00 00 	add    $0x8b,%rcx
  103b9f:	4c 89 fa             	mov    %r15,%rdx
  103ba2:	48 c1 ea 20          	shr    $0x20,%rdx
  103ba6:	42 88 54 e0 04       	mov    %dl,0x4(%rax,%r12,8)
  103bab:	42 89 0c e0          	mov    %ecx,(%rax,%r12,8)
  103baf:	42 80 64 e0 06 f0    	andb   $0xf0,0x6(%rax,%r12,8)
  103bb5:	4d 85 f6             	test   %r14,%r14
  103bb8:	75 16                	jne    103bd0 <page_alloc_dev+0x1d0>
  103bba:	4e 8d 34 e0          	lea    (%rax,%r12,8),%r14
  103bbe:	bf ed b9 10 00       	mov    $0x10b9ed,%edi
  103bc3:	e8 a8 dc ff ff       	call   101870 <dbgconout>
  103bc8:	4c 89 f7             	mov    %r14,%rdi
  103bcb:	e8 30 db ff ff       	call   101700 <dbgnumout_hex>
  103bd0:	4c 89 f9             	mov    %r15,%rcx
  103bd3:	48 c1 e9 15          	shr    $0x15,%rcx
  103bd7:	80 e1 07             	and    $0x7,%cl
  103bda:	b0 01                	mov    $0x1,%al
  103bdc:	d2 e0                	shl    %cl,%al
  103bde:	49 c1 ef 18          	shr    $0x18,%r15
  103be2:	41 08 87 00 e0 10 00 	or     %al,0x10e000(%r15)
  103be9:	48 83 c4 08          	add    $0x8,%rsp
  103bed:	5b                   	pop    %rbx
  103bee:	41 5c                	pop    %r12
  103bf0:	41 5d                	pop    %r13
  103bf2:	41 5e                	pop    %r14
  103bf4:	41 5f                	pop    %r15
  103bf6:	5d                   	pop    %rbp
  103bf7:	c3                   	ret
  103bf8:	0f 1f 84 00 00 00 00 	nopl   0x0(%rax,%rax,1)
  103bff:	00 

0000000000103c00 <page_virt_find_addr>:
  103c00:	55                   	push   %rbp
  103c01:	48 89 e5             	mov    %rsp,%rbp
  103c04:	41 57                	push   %r15
  103c06:	41 56                	push   %r14
  103c08:	53                   	push   %rbx
  103c09:	49 b9 00 00 e0 ff 7f 	movabs $0x7fffe00000,%r9
  103c10:	00 00 00 
  103c13:	49 89 fb             	mov    %rdi,%r11
  103c16:	49 c1 e3 15          	shl    $0x15,%r11
  103c1a:	31 c0                	xor    %eax,%eax
  103c1c:	4d 8d 91 ff ff 1f 00 	lea    0x1fffff(%r9),%r10
  103c23:	49 b8 fe ff ff ff ff 	movabs $0xfffffffffffe,%r8
  103c2a:	ff 00 00 
  103c2d:	4d 85 db             	test   %r11,%r11
  103c30:	0f 84 26 01 00 00    	je     103d5c <page_virt_find_addr+0x15c>
  103c36:	31 c9                	xor    %ecx,%ecx
  103c38:	eb 26                	jmp    103c60 <page_virt_find_addr+0x60>
  103c3a:	48 05 00 00 00 40    	add    $0x40000000,%rax
  103c40:	48 25 00 00 00 c0    	and    $0xffffffffc0000000,%rax
  103c46:	66 2e 0f 1f 84 00 00 	cs nopw 0x0(%rax,%rax,1)
  103c4d:	00 00 00 
  103c50:	48 81 c1 00 00 20 00 	add    $0x200000,%rcx
  103c57:	4c 39 d9             	cmp    %r11,%rcx
  103c5a:	0f 83 fc 00 00 00    	jae    103d5c <page_virt_find_addr+0x15c>
  103c60:	4c 8d 34 08          	lea    (%rax,%rcx,1),%r14
  103c64:	4c 89 f2             	mov    %r14,%rdx
  103c67:	48 c1 ea 27          	shr    $0x27,%rdx
  103c6b:	81 e2 ff 01 00 00    	and    $0x1ff,%edx
  103c71:	8b 34 d5 00 e0 10 01 	mov    0x110e000(,%rdx,8),%esi
  103c78:	40 f6 c6 01          	test   $0x1,%sil
  103c7c:	75 22                	jne    103ca0 <page_virt_find_addr+0xa0>
  103c7e:	48 81 ff 00 00 04 00 	cmp    $0x40000,%rdi
  103c85:	0f 82 d1 00 00 00    	jb     103d5c <page_virt_find_addr+0x15c>
  103c8b:	48 89 ca             	mov    %rcx,%rdx
  103c8e:	4c 21 d2             	and    %r10,%rdx
  103c91:	4c 01 c9             	add    %r9,%rcx
  103c94:	48 29 d1             	sub    %rdx,%rcx
  103c97:	eb b7                	jmp    103c50 <page_virt_find_addr+0x50>
  103c99:	0f 1f 80 00 00 00 00 	nopl   0x0(%rax)
  103ca0:	8b 1c d5 04 e0 10 01 	mov    0x110e004(,%rdx,8),%ebx
  103ca7:	48 c1 e3 20          	shl    $0x20,%rbx
  103cab:	48 09 de             	or     %rbx,%rsi
  103cae:	4d 89 f7             	mov    %r14,%r15
  103cb1:	49 c1 ef 1e          	shr    $0x1e,%r15
  103cb5:	41 81 e7 ff 01 00 00 	and    $0x1ff,%r15d
  103cbc:	48 c1 ee 0c          	shr    $0xc,%rsi
  103cc0:	81 e6 ff ff ff 0f    	and    $0xfffffff,%esi
  103cc6:	0f b6 14 d5 05 e0 10 	movzbl 0x110e005(,%rdx,8),%edx
  103ccd:	01 
  103cce:	c1 e2 1c             	shl    $0x1c,%edx
  103cd1:	48 63 da             	movslq %edx,%rbx
  103cd4:	48 09 f3             	or     %rsi,%rbx
  103cd7:	48 c1 e3 0c          	shl    $0xc,%rbx
  103cdb:	42 8b 14 fb          	mov    (%rbx,%r15,8),%edx
  103cdf:	f6 c2 01             	test   $0x1,%dl
  103ce2:	75 1c                	jne    103d00 <page_virt_find_addr+0x100>
  103ce4:	48 81 ff 00 02 00 00 	cmp    $0x200,%rdi
  103ceb:	72 6f                	jb     103d5c <page_virt_find_addr+0x15c>
  103ced:	48 81 e1 00 00 00 c0 	and    $0xffffffffc0000000,%rcx
  103cf4:	48 81 c9 00 00 e0 3f 	or     $0x3fe00000,%rcx
  103cfb:	e9 50 ff ff ff       	jmp    103c50 <page_virt_find_addr+0x50>
  103d00:	42 8b 74 fb 04       	mov    0x4(%rbx,%r15,8),%esi
  103d05:	48 c1 e6 20          	shl    $0x20,%rsi
  103d09:	48 09 f2             	or     %rsi,%rdx
  103d0c:	f6 c2 80             	test   $0x80,%dl
  103d0f:	0f 85 25 ff ff ff    	jne    103c3a <page_virt_find_addr+0x3a>
  103d15:	41 c1 ee 15          	shr    $0x15,%r14d
  103d19:	41 81 e6 ff 01 00 00 	and    $0x1ff,%r14d
  103d20:	48 c1 ea 0c          	shr    $0xc,%rdx
  103d24:	81 e2 ff ff ff 0f    	and    $0xfffffff,%edx
  103d2a:	42 0f b6 74 fb 05    	movzbl 0x5(%rbx,%r15,8),%esi
  103d30:	c1 e6 1c             	shl    $0x1c,%esi
  103d33:	48 63 f6             	movslq %esi,%rsi
  103d36:	48 09 d6             	or     %rdx,%rsi
  103d39:	48 c1 e6 0c          	shl    $0xc,%rsi
  103d3d:	42 f6 04 f6 01       	testb  $0x1,(%rsi,%r14,8)
  103d42:	0f 84 08 ff ff ff    	je     103c50 <page_virt_find_addr+0x50>
  103d48:	48 05 00 00 20 00    	add    $0x200000,%rax
  103d4e:	4c 39 c0             	cmp    %r8,%rax
  103d51:	0f 86 d6 fe ff ff    	jbe    103c2d <page_virt_find_addr+0x2d>
  103d57:	b8 ad de 00 00       	mov    $0xdead,%eax
  103d5c:	5b                   	pop    %rbx
  103d5d:	41 5e                	pop    %r14
  103d5f:	41 5f                	pop    %r15
  103d61:	5d                   	pop    %rbp
  103d62:	c3                   	ret
  103d63:	66 66 66 66 2e 0f 1f 	data16 data16 data16 cs nopw 0x0(%rax,%rax,1)
  103d6a:	84 00 00 00 00 00 

0000000000103d70 <page_map_paddr>:
  103d70:	55                   	push   %rbp
  103d71:	48 89 e5             	mov    %rsp,%rbp
  103d74:	41 57                	push   %r15
  103d76:	41 56                	push   %r14
  103d78:	41 55                	push   %r13
  103d7a:	41 54                	push   %r12
  103d7c:	53                   	push   %rbx
  103d7d:	50                   	push   %rax
  103d7e:	49 89 f4             	mov    %rsi,%r12
  103d81:	49 89 fe             	mov    %rdi,%r14
  103d84:	48 89 f7             	mov    %rsi,%rdi
  103d87:	e8 74 fe ff ff       	call   103c00 <page_virt_find_addr>
  103d8c:	49 89 c7             	mov    %rax,%r15
  103d8f:	49 c1 e4 15          	shl    $0x15,%r12
  103d93:	74 34                	je     103dc9 <page_map_paddr+0x59>
  103d95:	4d 89 f5             	mov    %r14,%r13
  103d98:	49 81 e5 00 00 e0 ff 	and    $0xffffffffffe00000,%r13
  103d9f:	31 db                	xor    %ebx,%ebx
  103da1:	66 66 66 66 66 66 2e 	data16 data16 data16 data16 data16 cs nopw 0x0(%rax,%rax,1)
  103da8:	0f 1f 84 00 00 00 00 
  103daf:	00 
  103db0:	4a 8d 3c 2b          	lea    (%rbx,%r13,1),%rdi
  103db4:	49 8d 34 1f          	lea    (%r15,%rbx,1),%rsi
  103db8:	e8 b3 f9 ff ff       	call   103770 <page_alloc>
  103dbd:	48 81 c3 00 00 20 00 	add    $0x200000,%rbx
  103dc4:	4c 39 e3             	cmp    %r12,%rbx
  103dc7:	72 e7                	jb     103db0 <page_map_paddr+0x40>
  103dc9:	41 81 e6 ff ff 1f 00 	and    $0x1fffff,%r14d
  103dd0:	4d 01 f7             	add    %r14,%r15
  103dd3:	4c 89 f8             	mov    %r15,%rax
  103dd6:	48 83 c4 08          	add    $0x8,%rsp
  103dda:	5b                   	pop    %rbx
  103ddb:	41 5c                	pop    %r12
  103ddd:	41 5d                	pop    %r13
  103ddf:	41 5e                	pop    %r14
  103de1:	41 5f                	pop    %r15
  103de3:	5d                   	pop    %rbp
  103de4:	c3                   	ret
  103de5:	66 66 2e 0f 1f 84 00 	data16 cs nopw 0x0(%rax,%rax,1)
  103dec:	00 00 00 00 

0000000000103df0 <page_find_and_alloc>:
  103df0:	55                   	push   %rbp
  103df1:	48 89 e5             	mov    %rsp,%rbp
  103df4:	41 57                	push   %r15
  103df6:	41 56                	push   %r14
  103df8:	41 54                	push   %r12
  103dfa:	53                   	push   %rbx
  103dfb:	41 be ad de 00 00    	mov    $0xdead,%r14d
  103e01:	48 81 ff 00 00 00 08 	cmp    $0x8000000,%rdi
  103e08:	0f 84 1b 01 00 00    	je     103f29 <page_find_and_alloc+0x139>
  103e0e:	49 89 ff             	mov    %rdi,%r15
  103e11:	48 8d 87 00 00 00 f8 	lea    -0x8000000(%rdi),%rax
  103e18:	31 c9                	xor    %ecx,%ecx
  103e1a:	31 db                	xor    %ebx,%ebx
  103e1c:	0f 1f 40 00          	nopl   0x0(%rax)
  103e20:	48 89 ca             	mov    %rcx,%rdx
  103e23:	48 c1 ea 18          	shr    $0x18,%rdx
  103e27:	89 ce                	mov    %ecx,%esi
  103e29:	c1 ee 15             	shr    $0x15,%esi
  103e2c:	0f b6 92 00 e0 10 00 	movzbl 0x10e000(%rdx),%edx
  103e33:	83 e6 07             	and    $0x7,%esi
  103e36:	0f a3 f2             	bt     %esi,%edx
  103e39:	73 14                	jae    103e4f <page_find_and_alloc+0x5f>
  103e3b:	48 ff cb             	dec    %rbx
  103e3e:	48 81 c1 00 00 20 00 	add    $0x200000,%rcx
  103e45:	48 39 d8             	cmp    %rbx,%rax
  103e48:	75 d6                	jne    103e20 <page_find_and_alloc+0x30>
  103e4a:	e9 da 00 00 00       	jmp    103f29 <page_find_and_alloc+0x139>
  103e4f:	4c 89 ff             	mov    %r15,%rdi
  103e52:	e8 a9 fd ff ff       	call   103c00 <page_virt_find_addr>
  103e57:	49 89 c6             	mov    %rax,%r14
  103e5a:	4d 85 ff             	test   %r15,%r15
  103e5d:	0f 84 c6 00 00 00    	je     103f29 <page_find_and_alloc+0x139>
  103e63:	48 f7 db             	neg    %rbx
  103e66:	45 31 e4             	xor    %r12d,%r12d
  103e69:	0f 1f 80 00 00 00 00 	nopl   0x0(%rax)
  103e70:	48 8d 43 ff          	lea    -0x1(%rbx),%rax
  103e74:	4c 01 e3             	add    %r12,%rbx
  103e77:	48 c1 e3 15          	shl    $0x15,%rbx
  103e7b:	48 89 df             	mov    %rbx,%rdi
  103e7e:	48 89 c3             	mov    %rax,%rbx
  103e81:	66 66 66 66 66 66 2e 	data16 data16 data16 data16 data16 cs nopw 0x0(%rax,%rax,1)
  103e88:	0f 1f 84 00 00 00 00 
  103e8f:	00 
  103e90:	48 89 f8             	mov    %rdi,%rax
  103e93:	48 c1 e8 18          	shr    $0x18,%rax
  103e97:	89 f9                	mov    %edi,%ecx
  103e99:	c1 e9 15             	shr    $0x15,%ecx
  103e9c:	0f b6 80 00 e0 10 00 	movzbl 0x10e000(%rax),%eax
  103ea3:	83 e1 07             	and    $0x7,%ecx
  103ea6:	48 ff c3             	inc    %rbx
  103ea9:	48 81 c7 00 00 20 00 	add    $0x200000,%rdi
  103eb0:	0f a3 c8             	bt     %ecx,%eax
  103eb3:	72 db                	jb     103e90 <page_find_and_alloc+0xa0>
  103eb5:	4c 89 e6             	mov    %r12,%rsi
  103eb8:	48 c1 e6 15          	shl    $0x15,%rsi
  103ebc:	48 81 c7 00 00 e0 ff 	add    $0xffffffffffe00000,%rdi
  103ec3:	4c 01 f6             	add    %r14,%rsi
  103ec6:	e8 a5 f8 ff ff       	call   103770 <page_alloc>
  103ecb:	49 ff c4             	inc    %r12
  103ece:	4d 39 fc             	cmp    %r15,%r12
  103ed1:	75 9d                	jne    103e70 <page_find_and_alloc+0x80>
  103ed3:	49 c1 e7 12          	shl    $0x12,%r15
  103ed7:	48 b8 00 00 fc ff ff 	movabs $0x1ffffffffffc0000,%rax
  103ede:	ff ff 1f 
  103ee1:	4c 21 f8             	and    %r15,%rax
  103ee4:	74 43                	je     103f29 <page_find_and_alloc+0x139>
  103ee6:	48 83 c0 fc          	add    $0xfffffffffffffffc,%rax
  103eea:	48 c1 e8 02          	shr    $0x2,%rax
  103eee:	4c 89 f1             	mov    %r14,%rcx
  103ef1:	48 83 c1 70          	add    $0x70,%rcx
  103ef5:	48 ff c0             	inc    %rax
  103ef8:	0f 57 c0             	xorps  %xmm0,%xmm0
  103efb:	0f 1f 44 00 00       	nopl   0x0(%rax,%rax,1)
  103f00:	0f 11 41 90          	movups %xmm0,-0x70(%rcx)
  103f04:	0f 11 41 a0          	movups %xmm0,-0x60(%rcx)
  103f08:	0f 11 41 b0          	movups %xmm0,-0x50(%rcx)
  103f0c:	0f 11 41 c0          	movups %xmm0,-0x40(%rcx)
  103f10:	0f 11 41 d0          	movups %xmm0,-0x30(%rcx)
  103f14:	0f 11 41 e0          	movups %xmm0,-0x20(%rcx)
  103f18:	0f 11 41 f0          	movups %xmm0,-0x10(%rcx)
  103f1c:	0f 11 01             	movups %xmm0,(%rcx)
  103f1f:	48 83 e9 80          	sub    $0xffffffffffffff80,%rcx
  103f23:	48 83 c0 fc          	add    $0xfffffffffffffffc,%rax
  103f27:	75 d7                	jne    103f00 <page_find_and_alloc+0x110>
  103f29:	4c 89 f0             	mov    %r14,%rax
  103f2c:	5b                   	pop    %rbx
  103f2d:	41 5c                	pop    %r12
  103f2f:	41 5e                	pop    %r14
  103f31:	41 5f                	pop    %r15
  103f33:	5d                   	pop    %rbp
  103f34:	c3                   	ret
  103f35:	66 66 2e 0f 1f 84 00 	data16 cs nopw 0x0(%rax,%rax,1)
  103f3c:	00 00 00 00 

0000000000103f40 <page_free_found>:
  103f40:	55                   	push   %rbp
  103f41:	48 89 e5             	mov    %rsp,%rbp
  103f44:	48 85 f6             	test   %rsi,%rsi
  103f47:	0f 84 cc 00 00 00    	je     104019 <page_free_found+0xd9>
  103f4d:	0f 1f 00             	nopl   (%rax)
  103f50:	48 89 f8             	mov    %rdi,%rax
  103f53:	48 c1 e8 24          	shr    $0x24,%rax
  103f57:	25 f8 0f 00 00       	and    $0xff8,%eax
  103f5c:	8b 88 00 e0 10 01    	mov    0x110e000(%rax),%ecx
  103f62:	0f b6 90 04 e0 10 01 	movzbl 0x110e004(%rax),%edx
  103f69:	48 c1 e2 20          	shl    $0x20,%rdx
  103f6d:	48 09 ca             	or     %rcx,%rdx
  103f70:	48 c1 ea 0c          	shr    $0xc,%rdx
  103f74:	0f b6 80 05 e0 10 01 	movzbl 0x110e005(%rax),%eax
  103f7b:	c1 e0 1c             	shl    $0x1c,%eax
  103f7e:	48 98                	cltq
  103f80:	48 09 d0             	or     %rdx,%rax
  103f83:	48 c1 e0 0c          	shl    $0xc,%rax
  103f87:	48 89 f9             	mov    %rdi,%rcx
  103f8a:	48 c1 e9 1b          	shr    $0x1b,%rcx
  103f8e:	81 e1 f8 0f 00 00    	and    $0xff8,%ecx
  103f94:	44 8b 04 08          	mov    (%rax,%rcx,1),%r8d
  103f98:	0f b6 54 08 04       	movzbl 0x4(%rax,%rcx,1),%edx
  103f9d:	48 c1 e2 20          	shl    $0x20,%rdx
  103fa1:	4c 09 c2             	or     %r8,%rdx
  103fa4:	48 c1 ea 0c          	shr    $0xc,%rdx
  103fa8:	0f b6 44 08 05       	movzbl 0x5(%rax,%rcx,1),%eax
  103fad:	c1 e0 1c             	shl    $0x1c,%eax
  103fb0:	4c 63 c0             	movslq %eax,%r8
  103fb3:	49 09 d0             	or     %rdx,%r8
  103fb6:	49 c1 e0 0c          	shl    $0xc,%r8
  103fba:	49 89 f9             	mov    %rdi,%r9
  103fbd:	49 c1 e9 12          	shr    $0x12,%r9
  103fc1:	41 81 e1 f8 0f 00 00 	and    $0xff8,%r9d
  103fc8:	43 8b 0c 08          	mov    (%r8,%r9,1),%ecx
  103fcc:	43 0f b6 44 08 04    	movzbl 0x4(%r8,%r9,1),%eax
  103fd2:	48 c1 e0 20          	shl    $0x20,%rax
  103fd6:	48 09 c8             	or     %rcx,%rax
  103fd9:	48 c1 e8 0c          	shr    $0xc,%rax
  103fdd:	43 0f b6 54 08 05    	movzbl 0x5(%r8,%r9,1),%edx
  103fe3:	c1 e2 1c             	shl    $0x1c,%edx
  103fe6:	48 63 d2             	movslq %edx,%rdx
  103fe9:	48 09 c2             	or     %rax,%rdx
  103fec:	48 c1 e9 15          	shr    $0x15,%rcx
  103ff0:	b0 fe                	mov    $0xfe,%al
  103ff2:	d2 c0                	rol    %cl,%al
  103ff4:	48 c1 ea 0c          	shr    $0xc,%rdx
  103ff8:	81 e2 ff ff ff 00    	and    $0xffffff,%edx
  103ffe:	20 82 00 e0 10 00    	and    %al,0x10e000(%rdx)
  104004:	43 80 24 08 fe       	andb   $0xfe,(%r8,%r9,1)
  104009:	48 81 c7 00 00 20 00 	add    $0x200000,%rdi
  104010:	48 ff ce             	dec    %rsi
  104013:	0f 85 37 ff ff ff    	jne    103f50 <page_free_found+0x10>
  104019:	b8 00 e0 10 01       	mov    $0x110e000,%eax
  10401e:	48 89 c2             	mov    %rax,%rdx
  104021:	0f 22 da             	mov    %rdx,%cr3
  104024:	5d                   	pop    %rbp
  104025:	c3                   	ret
  104026:	66 2e 0f 1f 84 00 00 	cs nopw 0x0(%rax,%rax,1)
  10402d:	00 00 00 

0000000000104030 <page_flush>:
  104030:	55                   	push   %rbp
  104031:	48 89 e5             	mov    %rsp,%rbp
  104034:	b8 00 e0 10 01       	mov    $0x110e000,%eax
  104039:	48 89 c2             	mov    %rax,%rdx
  10403c:	0f 22 da             	mov    %rdx,%cr3
  10403f:	5d                   	pop    %rbp
  104040:	c3                   	ret
  104041:	66 2e 0f 1f 84 00 00 	cs nopw 0x0(%rax,%rax,1)
  104048:	00 00 00 
  10404b:	0f 1f 44 00 00       	nopl   0x0(%rax,%rax,1)

0000000000104050 <k_pageobj_init_heap>:
  104050:	55                   	push   %rbp
  104051:	48 89 e5             	mov    %rsp,%rbp
  104054:	48 c7 07 00 00 00 00 	movq   $0x0,(%rdi)
  10405b:	89 77 08             	mov    %esi,0x8(%rdi)
  10405e:	5d                   	pop    %rbp
  10405f:	c3                   	ret

0000000000104060 <k_pageobj_heap_setup>:
  104060:	55                   	push   %rbp
  104061:	48 89 e5             	mov    %rsp,%rbp
  104064:	c7 05 9a af 00 01 00 	movl   $0x1000,0x100af9a(%rip)        # 110f008 <page_heap+0x8>
  10406b:	10 00 00 
  10406e:	b8 20 f4 11 01       	mov    $0x111f420,%eax
  104073:	48 25 00 f0 ff ff    	and    $0xfffffffffffff000,%rax
  104079:	48 c7 80 00 20 00 00 	movq   $0x0,0x2000(%rax)
  104080:	00 00 00 00 
  104084:	48 8d 88 00 20 00 00 	lea    0x2000(%rax),%rcx
  10408b:	48 89 0d 6e af 00 01 	mov    %rcx,0x100af6e(%rip)        # 110f000 <page_heap>
  104092:	48 c7 80 10 20 00 00 	movq   $0x1800000,0x2010(%rax)
  104099:	00 00 80 01 
  10409d:	48 b9 0c 00 00 00 ff 	movabs $0x17ff0000000c,%rcx
  1040a4:	17 00 00 
  1040a7:	48 89 88 08 20 00 00 	mov    %rcx,0x2008(%rax)
  1040ae:	c7 80 18 20 00 00 00 	movl   $0x0,0x2018(%rax)
  1040b5:	00 00 00 
  1040b8:	66 0f 6f 05 e0 79 00 	movdqa 0x79e0(%rip),%xmm0        # 10baa0 <font_bits+0xaa0>
  1040bf:	00 
  1040c0:	b9 16 00 00 00       	mov    $0x16,%ecx
  1040c5:	66 0f 6f 0d e3 79 00 	movdqa 0x79e3(%rip),%xmm1        # 10bab0 <font_bits+0xab0>
  1040cc:	00 
  1040cd:	66 0f 6f 15 eb 79 00 	movdqa 0x79eb(%rip),%xmm2        # 10bac0 <font_bits+0xac0>
  1040d4:	00 
  1040d5:	66 0f 6f 1d f3 79 00 	movdqa 0x79f3(%rip),%xmm3        # 10bad0 <font_bits+0xad0>
  1040dc:	00 
  1040dd:	66 0f 6f 25 fb 79 00 	movdqa 0x79fb(%rip),%xmm4        # 10bae0 <font_bits+0xae0>
  1040e4:	00 
  1040e5:	66 66 2e 0f 1f 84 00 	data16 cs nopw 0x0(%rax,%rax,1)
  1040ec:	00 00 00 00 
  1040f0:	66 0f 6f e8          	movdqa %xmm0,%xmm5
  1040f4:	66 0f 73 f5 0c       	psllq  $0xc,%xmm5
  1040f9:	66 0f 6f f5          	movdqa %xmm5,%xmm6
  1040fd:	66 0f d4 f1          	paddq  %xmm1,%xmm6
  104101:	66 0f 7f ac c8 d0 1f 	movdqa %xmm5,0x1fd0(%rax,%rcx,8)
  104108:	00 00 
  10410a:	66 0f 7f b4 c8 e0 1f 	movdqa %xmm6,0x1fe0(%rax,%rcx,8)
  104111:	00 00 
  104113:	66 0f 6f f5          	movdqa %xmm5,%xmm6
  104117:	66 0f d4 f2          	paddq  %xmm2,%xmm6
  10411b:	66 0f d4 eb          	paddq  %xmm3,%xmm5
  10411f:	66 0f 7f b4 c8 f0 1f 	movdqa %xmm6,0x1ff0(%rax,%rcx,8)
  104126:	00 00 
  104128:	66 0f 7f ac c8 00 20 	movdqa %xmm5,0x2000(%rax,%rcx,8)
  10412f:	00 00 
  104131:	66 0f d4 c4          	paddq  %xmm4,%xmm0
  104135:	48 83 c1 08          	add    $0x8,%rcx
  104139:	48 81 f9 06 18 00 00 	cmp    $0x1806,%rcx
  104140:	75 ae                	jne    1040f0 <k_pageobj_heap_setup+0x90>
  104142:	b8 20 f4 11 01       	mov    $0x111f420,%eax
  104147:	48 25 00 f0 ff ff    	and    $0xfffffffffffff000,%rax
  10414d:	48 c7 80 00 e0 00 00 	movq   $0x17fc000,0xe000(%rax)
  104154:	00 c0 7f 01 
  104158:	48 c7 80 08 e0 00 00 	movq   $0x17fd000,0xe008(%rax)
  10415f:	00 d0 7f 01 
  104163:	48 c7 80 10 e0 00 00 	movq   $0x17fe000,0xe010(%rax)
  10416a:	00 e0 7f 01 
  10416e:	5d                   	pop    %rbp
  10416f:	c3                   	ret

0000000000104170 <k_pageobj_add_heapblk>:
  104170:	55                   	push   %rbp
  104171:	48 89 e5             	mov    %rsp,%rbp
  104174:	48 89 d0             	mov    %rdx,%rax
  104177:	48 8b 0f             	mov    (%rdi),%rcx
  10417a:	48 89 0e             	mov    %rcx,(%rsi)
  10417d:	48 89 37             	mov    %rsi,(%rdi)
  104180:	48 89 56 10          	mov    %rdx,0x10(%rsi)
  104184:	8b 7f 08             	mov    0x8(%rdi),%edi
  104187:	48 29 f8             	sub    %rdi,%rax
  10418a:	48 89 c1             	mov    %rax,%rcx
  10418d:	48 c1 e9 20          	shr    $0x20,%rcx
  104191:	74 0a                	je     10419d <k_pageobj_add_heapblk+0x2d>
  104193:	31 d2                	xor    %edx,%edx
  104195:	48 f7 f7             	div    %rdi
  104198:	48 89 c1             	mov    %rax,%rcx
  10419b:	eb 06                	jmp    1041a3 <k_pageobj_add_heapblk+0x33>
  10419d:	31 d2                	xor    %edx,%edx
  10419f:	f7 f7                	div    %edi
  1041a1:	89 c1                	mov    %eax,%ecx
  1041a3:	89 4e 0c             	mov    %ecx,0xc(%rsi)
  1041a6:	48 89 c8             	mov    %rcx,%rax
  1041a9:	48 c1 e0 03          	shl    $0x3,%rax
  1041ad:	41 89 c0             	mov    %eax,%r8d
  1041b0:	31 d2                	xor    %edx,%edx
  1041b2:	f7 f7                	div    %edi
  1041b4:	48 89 c2             	mov    %rax,%rdx
  1041b7:	48 0f af d7          	imul   %rdi,%rdx
  1041bb:	4c 39 c2             	cmp    %r8,%rdx
  1041be:	48 83 d0 00          	adc    $0x0,%rax
  1041c2:	89 46 08             	mov    %eax,0x8(%rsi)
  1041c5:	c7 46 18 00 00 00 00 	movl   $0x0,0x18(%rsi)
  1041cc:	89 c9                	mov    %ecx,%ecx
  1041ce:	48 39 c8             	cmp    %rcx,%rax
  1041d1:	73 21                	jae    1041f4 <k_pageobj_add_heapblk+0x84>
  1041d3:	66 66 66 66 2e 0f 1f 	data16 data16 data16 cs nopw 0x0(%rax,%rax,1)
  1041da:	84 00 00 00 00 00 
  1041e0:	48 89 c2             	mov    %rax,%rdx
  1041e3:	48 0f af d7          	imul   %rdi,%rdx
  1041e7:	48 89 54 c6 20       	mov    %rdx,0x20(%rsi,%rax,8)
  1041ec:	48 ff c0             	inc    %rax
  1041ef:	48 39 c8             	cmp    %rcx,%rax
  1041f2:	72 ec                	jb     1041e0 <k_pageobj_add_heapblk+0x70>
  1041f4:	b8 01 00 00 00       	mov    $0x1,%eax
  1041f9:	5d                   	pop    %rbp
  1041fa:	c3                   	ret
  1041fb:	0f 1f 44 00 00       	nopl   0x0(%rax,%rax,1)

0000000000104200 <k_pageobj_alloc>:
  104200:	55                   	push   %rbp
  104201:	48 89 e5             	mov    %rsp,%rbp
  104204:	41 57                	push   %r15
  104206:	41 56                	push   %r14
  104208:	41 54                	push   %r12
  10420a:	53                   	push   %rbx
  10420b:	8b 5f 08             	mov    0x8(%rdi),%ebx
  10420e:	48 39 f3             	cmp    %rsi,%rbx
  104211:	73 07                	jae    10421a <k_pageobj_alloc+0x1a>
  104213:	31 db                	xor    %ebx,%ebx
  104215:	e9 42 02 00 00       	jmp    10445c <k_pageobj_alloc+0x25c>
  10421a:	49 89 f6             	mov    %rsi,%r14
  10421d:	49 89 fc             	mov    %rdi,%r12
  104220:	48 89 f8             	mov    %rdi,%rax
  104223:	66 66 66 66 2e 0f 1f 	data16 data16 data16 cs nopw 0x0(%rax,%rax,1)
  10422a:	84 00 00 00 00 00 
  104230:	48 8b 00             	mov    (%rax),%rax
  104233:	48 85 c0             	test   %rax,%rax
  104236:	74 3b                	je     104273 <k_pageobj_alloc+0x73>
  104238:	8b 50 08             	mov    0x8(%rax),%edx
  10423b:	8b 48 0c             	mov    0xc(%rax),%ecx
  10423e:	39 ca                	cmp    %ecx,%edx
  104240:	74 ee                	je     104230 <k_pageobj_alloc+0x30>
  104242:	8d 72 01             	lea    0x1(%rdx),%esi
  104245:	89 70 08             	mov    %esi,0x8(%rax)
  104248:	48 01 c3             	add    %rax,%rbx
  10424b:	48 03 5c d0 20       	add    0x20(%rax,%rdx,8),%rbx
  104250:	29 f1                	sub    %esi,%ecx
  104252:	83 f9 02             	cmp    $0x2,%ecx
  104255:	77 06                	ja     10425d <k_pageobj_alloc+0x5d>
  104257:	83 78 18 00          	cmpl   $0x0,0x18(%rax)
  10425b:	74 72                	je     1042cf <k_pageobj_alloc+0xcf>
  10425d:	4d 85 f6             	test   %r14,%r14
  104260:	0f 84 f6 01 00 00    	je     10445c <k_pageobj_alloc+0x25c>
  104266:	49 83 fe 08          	cmp    $0x8,%r14
  10426a:	73 56                	jae    1042c2 <k_pageobj_alloc+0xc2>
  10426c:	31 c0                	xor    %eax,%eax
  10426e:	e9 dd 01 00 00       	jmp    104450 <k_pageobj_alloc+0x250>
  104273:	49 8b 04 24          	mov    (%r12),%rax
  104277:	48 83 78 10 00       	cmpq   $0x0,0x10(%rax)
  10427c:	74 2a                	je     1042a8 <k_pageobj_alloc+0xa8>
  10427e:	bf 25 ba 10 00       	mov    $0x10ba25,%edi
  104283:	e8 e8 d5 ff ff       	call   101870 <dbgconout>
  104288:	49 8b 3c 24          	mov    (%r12),%rdi
  10428c:	e8 6f d4 ff ff       	call   101700 <dbgnumout_hex>
  104291:	49 8b 04 24          	mov    (%r12),%rax
  104295:	48 8b 78 10          	mov    0x10(%rax),%rdi
  104299:	e8 62 d4 ff ff       	call   101700 <dbgnumout_hex>
  10429e:	bb ef be ad de       	mov    $0xdeadbeef,%ebx
  1042a3:	e9 b4 01 00 00       	jmp    10445c <k_pageobj_alloc+0x25c>
  1042a8:	bf ff b9 10 00       	mov    $0x10b9ff,%edi
  1042ad:	e8 be d5 ff ff       	call   101870 <dbgconout>
  1042b2:	49 8b 04 24          	mov    (%r12),%rax
  1042b6:	48 8b 78 10          	mov    0x10(%rax),%rdi
  1042ba:	e8 41 d4 ff ff       	call   101700 <dbgnumout_hex>
  1042bf:	90                   	nop
  1042c0:	eb fe                	jmp    1042c0 <k_pageobj_alloc+0xc0>
  1042c2:	49 83 fe 20          	cmp    $0x20,%r14
  1042c6:	73 55                	jae    10431d <k_pageobj_alloc+0x11d>
  1042c8:	31 c0                	xor    %eax,%eax
  1042ca:	e9 4e 01 00 00       	jmp    10441d <k_pageobj_alloc+0x21d>
  1042cf:	c7 40 18 01 00 00 00 	movl   $0x1,0x18(%rax)
  1042d6:	bf 10 00 00 00       	mov    $0x10,%edi
  1042db:	e8 10 fb ff ff       	call   103df0 <page_find_and_alloc>
  1042e0:	49 89 c7             	mov    %rax,%r15
  1042e3:	31 c0                	xor    %eax,%eax
  1042e5:	e8 46 fd ff ff       	call   104030 <page_flush>
  1042ea:	49 8b 04 24          	mov    (%r12),%rax
  1042ee:	49 89 07             	mov    %rax,(%r15)
  1042f1:	4d 89 3c 24          	mov    %r15,(%r12)
  1042f5:	49 c7 47 10 00 00 00 	movq   $0x2000000,0x10(%r15)
  1042fc:	02 
  1042fd:	41 8b 74 24 08       	mov    0x8(%r12),%esi
  104302:	b8 00 00 00 02       	mov    $0x2000000,%eax
  104307:	48 29 f0             	sub    %rsi,%rax
  10430a:	48 89 c1             	mov    %rax,%rcx
  10430d:	48 c1 e9 20          	shr    $0x20,%rcx
  104311:	74 31                	je     104344 <k_pageobj_alloc+0x144>
  104313:	31 d2                	xor    %edx,%edx
  104315:	48 f7 f6             	div    %rsi
  104318:	48 89 c1             	mov    %rax,%rcx
  10431b:	eb 2d                	jmp    10434a <k_pageobj_alloc+0x14a>
  10431d:	4c 89 f0             	mov    %r14,%rax
  104320:	48 83 e0 e0          	and    $0xffffffffffffffe0,%rax
  104324:	48 8d 70 e0          	lea    -0x20(%rax),%rsi
  104328:	48 89 f2             	mov    %rsi,%rdx
  10432b:	48 c1 ea 05          	shr    $0x5,%rdx
  10432f:	48 ff c2             	inc    %rdx
  104332:	89 d1                	mov    %edx,%ecx
  104334:	83 e1 03             	and    $0x3,%ecx
  104337:	48 83 fe 60          	cmp    $0x60,%rsi
  10433b:	73 5c                	jae    104399 <k_pageobj_alloc+0x199>
  10433d:	31 f6                	xor    %esi,%esi
  10433f:	e9 9d 00 00 00       	jmp    1043e1 <k_pageobj_alloc+0x1e1>
  104344:	31 d2                	xor    %edx,%edx
  104346:	f7 f6                	div    %esi
  104348:	89 c1                	mov    %eax,%ecx
  10434a:	41 89 4f 0c          	mov    %ecx,0xc(%r15)
  10434e:	48 89 c8             	mov    %rcx,%rax
  104351:	48 c1 e0 03          	shl    $0x3,%rax
  104355:	89 c7                	mov    %eax,%edi
  104357:	31 d2                	xor    %edx,%edx
  104359:	f7 f6                	div    %esi
  10435b:	48 89 c2             	mov    %rax,%rdx
  10435e:	48 0f af d6          	imul   %rsi,%rdx
  104362:	48 39 fa             	cmp    %rdi,%rdx
  104365:	48 83 d0 00          	adc    $0x0,%rax
  104369:	41 89 47 08          	mov    %eax,0x8(%r15)
  10436d:	41 c7 47 18 00 00 00 	movl   $0x0,0x18(%r15)
  104374:	00 
  104375:	89 c9                	mov    %ecx,%ecx
  104377:	48 39 c8             	cmp    %rcx,%rax
  10437a:	0f 83 dd fe ff ff    	jae    10425d <k_pageobj_alloc+0x5d>
  104380:	48 89 c2             	mov    %rax,%rdx
  104383:	48 0f af d6          	imul   %rsi,%rdx
  104387:	49 89 54 c7 20       	mov    %rdx,0x20(%r15,%rax,8)
  10438c:	48 ff c0             	inc    %rax
  10438f:	48 39 c8             	cmp    %rcx,%rax
  104392:	72 ec                	jb     104380 <k_pageobj_alloc+0x180>
  104394:	e9 c4 fe ff ff       	jmp    10425d <k_pageobj_alloc+0x5d>
  104399:	48 83 e2 fc          	and    $0xfffffffffffffffc,%rdx
  10439d:	48 8d 7b 70          	lea    0x70(%rbx),%rdi
  1043a1:	31 f6                	xor    %esi,%esi
  1043a3:	0f 57 c0             	xorps  %xmm0,%xmm0
  1043a6:	66 2e 0f 1f 84 00 00 	cs nopw 0x0(%rax,%rax,1)
  1043ad:	00 00 00 
  1043b0:	0f 11 44 37 90       	movups %xmm0,-0x70(%rdi,%rsi,1)
  1043b5:	0f 11 44 37 a0       	movups %xmm0,-0x60(%rdi,%rsi,1)
  1043ba:	0f 11 44 37 b0       	movups %xmm0,-0x50(%rdi,%rsi,1)
  1043bf:	0f 11 44 37 c0       	movups %xmm0,-0x40(%rdi,%rsi,1)
  1043c4:	0f 11 44 37 d0       	movups %xmm0,-0x30(%rdi,%rsi,1)
  1043c9:	0f 11 44 37 e0       	movups %xmm0,-0x20(%rdi,%rsi,1)
  1043ce:	0f 11 44 37 f0       	movups %xmm0,-0x10(%rdi,%rsi,1)
  1043d3:	0f 11 04 37          	movups %xmm0,(%rdi,%rsi,1)
  1043d7:	48 83 ee 80          	sub    $0xffffffffffffff80,%rsi
  1043db:	48 83 c2 fc          	add    $0xfffffffffffffffc,%rdx
  1043df:	75 cf                	jne    1043b0 <k_pageobj_alloc+0x1b0>
  1043e1:	48 85 c9             	test   %rcx,%rcx
  1043e4:	74 2c                	je     104412 <k_pageobj_alloc+0x212>
  1043e6:	48 8d 14 1e          	lea    (%rsi,%rbx,1),%rdx
  1043ea:	48 83 c2 10          	add    $0x10,%rdx
  1043ee:	48 c1 e1 05          	shl    $0x5,%rcx
  1043f2:	31 f6                	xor    %esi,%esi
  1043f4:	0f 57 c0             	xorps  %xmm0,%xmm0
  1043f7:	66 0f 1f 84 00 00 00 	nopw   0x0(%rax,%rax,1)
  1043fe:	00 00 
  104400:	0f 11 44 32 f0       	movups %xmm0,-0x10(%rdx,%rsi,1)
  104405:	0f 11 04 32          	movups %xmm0,(%rdx,%rsi,1)
  104409:	48 83 c6 20          	add    $0x20,%rsi
  10440d:	48 39 f1             	cmp    %rsi,%rcx
  104410:	75 ee                	jne    104400 <k_pageobj_alloc+0x200>
  104412:	4c 39 f0             	cmp    %r14,%rax
  104415:	74 45                	je     10445c <k_pageobj_alloc+0x25c>
  104417:	41 f6 c6 18          	test   $0x18,%r14b
  10441b:	74 33                	je     104450 <k_pageobj_alloc+0x250>
  10441d:	48 89 c1             	mov    %rax,%rcx
  104420:	4c 89 f0             	mov    %r14,%rax
  104423:	48 83 e0 f8          	and    $0xfffffffffffffff8,%rax
  104427:	66 0f 1f 84 00 00 00 	nopw   0x0(%rax,%rax,1)
  10442e:	00 00 
  104430:	48 c7 04 0b 00 00 00 	movq   $0x0,(%rbx,%rcx,1)
  104437:	00 
  104438:	48 83 c1 08          	add    $0x8,%rcx
  10443c:	48 39 c8             	cmp    %rcx,%rax
  10443f:	75 ef                	jne    104430 <k_pageobj_alloc+0x230>
  104441:	4c 39 f0             	cmp    %r14,%rax
  104444:	74 16                	je     10445c <k_pageobj_alloc+0x25c>
  104446:	66 2e 0f 1f 84 00 00 	cs nopw 0x0(%rax,%rax,1)
  10444d:	00 00 00 
  104450:	c6 04 03 00          	movb   $0x0,(%rbx,%rax,1)
  104454:	48 ff c0             	inc    %rax
  104457:	49 39 c6             	cmp    %rax,%r14
  10445a:	75 f4                	jne    104450 <k_pageobj_alloc+0x250>
  10445c:	48 89 d8             	mov    %rbx,%rax
  10445f:	5b                   	pop    %rbx
  104460:	41 5c                	pop    %r12
  104462:	41 5e                	pop    %r14
  104464:	41 5f                	pop    %r15
  104466:	5d                   	pop    %rbp
  104467:	c3                   	ret
  104468:	0f 1f 84 00 00 00 00 	nopl   0x0(%rax,%rax,1)
  10446f:	00 

0000000000104470 <k_pageobj_free>:
  104470:	55                   	push   %rbp
  104471:	48 89 e5             	mov    %rsp,%rbp
  104474:	41 57                	push   %r15
  104476:	41 56                	push   %r14
  104478:	53                   	push   %rbx
  104479:	50                   	push   %rax
  10447a:	4c 8b 3f             	mov    (%rdi),%r15
  10447d:	4d 85 ff             	test   %r15,%r15
  104480:	74 70                	je     1044f2 <k_pageobj_free+0x82>
  104482:	49 89 fe             	mov    %rdi,%r14
  104485:	4c 89 fb             	mov    %r15,%rbx
  104488:	eb 0e                	jmp    104498 <k_pageobj_free+0x28>
  10448a:	66 0f 1f 44 00 00    	nopw   0x0(%rax,%rax,1)
  104490:	48 8b 1b             	mov    (%rbx),%rbx
  104493:	48 85 db             	test   %rbx,%rbx
  104496:	74 5a                	je     1044f2 <k_pageobj_free+0x82>
  104498:	48 39 f3             	cmp    %rsi,%rbx
  10449b:	73 f3                	jae    104490 <k_pageobj_free+0x20>
  10449d:	48 8b 43 10          	mov    0x10(%rbx),%rax
  1044a1:	48 8d 0c 18          	lea    (%rax,%rbx,1),%rcx
  1044a5:	48 39 f1             	cmp    %rsi,%rcx
  1044a8:	76 e6                	jbe    104490 <k_pageobj_free+0x20>
  1044aa:	41 8b 4e 08          	mov    0x8(%r14),%ecx
  1044ae:	48 01 d9             	add    %rbx,%rcx
  1044b1:	48 29 ce             	sub    %rcx,%rsi
  1044b4:	8b 4b 08             	mov    0x8(%rbx),%ecx
  1044b7:	ff c9                	dec    %ecx
  1044b9:	89 4b 08             	mov    %ecx,0x8(%rbx)
  1044bc:	48 89 74 cb 20       	mov    %rsi,0x20(%rbx,%rcx,8)
  1044c1:	48 3d 00 00 00 02    	cmp    $0x2000000,%rax
  1044c7:	75 53                	jne    10451c <k_pageobj_free+0xac>
  1044c9:	83 f9 10             	cmp    $0x10,%ecx
  1044cc:	75 4e                	jne    10451c <k_pageobj_free+0xac>
  1044ce:	49 39 df             	cmp    %rbx,%r15
  1044d1:	74 33                	je     104506 <k_pageobj_free+0x96>
  1044d3:	bf 56 ba 10 00       	mov    $0x10ba56,%edi
  1044d8:	e8 93 d3 ff ff       	call   101870 <dbgconout>
  1044dd:	0f 1f 00             	nopl   (%rax)
  1044e0:	4d 8b 3f             	mov    (%r15),%r15
  1044e3:	49 39 df             	cmp    %rbx,%r15
  1044e6:	75 f8                	jne    1044e0 <k_pageobj_free+0x70>
  1044e8:	48 8b 73 10          	mov    0x10(%rbx),%rsi
  1044ec:	48 c1 ee 15          	shr    $0x15,%rsi
  1044f0:	eb 1f                	jmp    104511 <k_pageobj_free+0xa1>
  1044f2:	bf 4a ba 10 00       	mov    $0x10ba4a,%edi
  1044f7:	48 83 c4 08          	add    $0x8,%rsp
  1044fb:	5b                   	pop    %rbx
  1044fc:	41 5e                	pop    %r14
  1044fe:	41 5f                	pop    %r15
  104500:	5d                   	pop    %rbp
  104501:	e9 6a d3 ff ff       	jmp    101870 <dbgconout>
  104506:	49 8b 07             	mov    (%r15),%rax
  104509:	49 89 06             	mov    %rax,(%r14)
  10450c:	be 10 00 00 00       	mov    $0x10,%esi
  104511:	48 89 df             	mov    %rbx,%rdi
  104514:	e8 27 fa ff ff       	call   103f40 <page_free_found>
  104519:	4d 8b 3e             	mov    (%r14),%r15
  10451c:	41 8b 47 0c          	mov    0xc(%r15),%eax
  104520:	41 2b 47 08          	sub    0x8(%r15),%eax
  104524:	83 f8 03             	cmp    $0x3,%eax
  104527:	72 08                	jb     104531 <k_pageobj_free+0xc1>
  104529:	41 c7 47 18 00 00 00 	movl   $0x0,0x18(%r15)
  104530:	00 
  104531:	48 83 c4 08          	add    $0x8,%rsp
  104535:	5b                   	pop    %rbx
  104536:	41 5e                	pop    %r14
  104538:	41 5f                	pop    %r15
  10453a:	5d                   	pop    %rbp
  10453b:	c3                   	ret
  10453c:	0f 1f 40 00          	nopl   0x0(%rax)

0000000000104540 <pci_get_next_dev_ent>:
  104540:	55                   	push   %rbp
  104541:	48 89 e5             	mov    %rsp,%rbp
  104544:	48 85 ff             	test   %rdi,%rdi
  104547:	b8 10 f0 10 01       	mov    $0x110f010,%eax
  10454c:	48 0f 45 c7          	cmovne %rdi,%rax
  104550:	48 8b 00             	mov    (%rax),%rax
  104553:	5d                   	pop    %rbp
  104554:	c3                   	ret
  104555:	66 66 2e 0f 1f 84 00 	data16 cs nopw 0x0(%rax,%rax,1)
  10455c:	00 00 00 00 

0000000000104560 <pci_new_dev_ent>:
  104560:	55                   	push   %rbp
  104561:	48 89 e5             	mov    %rsp,%rbp
  104564:	53                   	push   %rbx
  104565:	50                   	push   %rax
  104566:	48 8b 05 a3 aa 00 01 	mov    0x100aaa3(%rip),%rax        # 110f010 <pci_root>
  10456d:	48 85 c0             	test   %rax,%rax
  104570:	74 28                	je     10459a <pci_new_dev_ent+0x3a>
  104572:	66 66 66 66 66 2e 0f 	data16 data16 data16 data16 cs nopw 0x0(%rax,%rax,1)
  104579:	1f 84 00 00 00 00 00 
  104580:	48 89 c3             	mov    %rax,%rbx
  104583:	48 8b 00             	mov    (%rax),%rax
  104586:	48 85 c0             	test   %rax,%rax
  104589:	75 f5                	jne    104580 <pci_new_dev_ent+0x20>
  10458b:	bf 18 00 00 00       	mov    $0x18,%edi
  104590:	e8 cb e6 ff ff       	call   102c60 <k_obj_alloc>
  104595:	48 89 03             	mov    %rax,(%rbx)
  104598:	eb 2c                	jmp    1045c6 <pci_new_dev_ent+0x66>
  10459a:	bf 5d ba 10 00       	mov    $0x10ba5d,%edi
  10459f:	e8 cc d2 ff ff       	call   101870 <dbgconout>
  1045a4:	bf 18 00 00 00       	mov    $0x18,%edi
  1045a9:	e8 b2 e6 ff ff       	call   102c60 <k_obj_alloc>
  1045ae:	48 89 05 5b aa 00 01 	mov    %rax,0x100aa5b(%rip)        # 110f010 <pci_root>
  1045b5:	bf 69 ba 10 00       	mov    $0x10ba69,%edi
  1045ba:	e8 b1 d2 ff ff       	call   101870 <dbgconout>
  1045bf:	48 8b 05 4a aa 00 01 	mov    0x100aa4a(%rip),%rax        # 110f010 <pci_root>
  1045c6:	48 83 c4 08          	add    $0x8,%rsp
  1045ca:	5b                   	pop    %rbx
  1045cb:	5d                   	pop    %rbp
  1045cc:	c3                   	ret
  1045cd:	0f 1f 00             	nopl   (%rax)

00000000001045d0 <pci_write_conw>:
  1045d0:	55                   	push   %rbp
  1045d1:	48 89 e5             	mov    %rsp,%rbp
  1045d4:	c1 e7 10             	shl    $0x10,%edi
  1045d7:	c1 e6 0b             	shl    $0xb,%esi
  1045da:	09 fe                	or     %edi,%esi
  1045dc:	c1 e2 08             	shl    $0x8,%edx
  1045df:	09 f2                	or     %esi,%edx
  1045e1:	83 e1 fc             	and    $0xfffffffc,%ecx
  1045e4:	8d 04 0a             	lea    (%rdx,%rcx,1),%eax
  1045e7:	05 00 00 00 80       	add    $0x80000000,%eax
  1045ec:	66 ba f8 0c          	mov    $0xcf8,%dx
  1045f0:	ef                   	out    %eax,(%dx)
  1045f1:	44 89 c0             	mov    %r8d,%eax
  1045f4:	66 ba fc 0c          	mov    $0xcfc,%dx
  1045f8:	ef                   	out    %eax,(%dx)
  1045f9:	5d                   	pop    %rbp
  1045fa:	c3                   	ret
  1045fb:	0f 1f 44 00 00       	nopl   0x0(%rax,%rax,1)

0000000000104600 <pci_read_conw>:
  104600:	55                   	push   %rbp
  104601:	48 89 e5             	mov    %rsp,%rbp
  104604:	c1 e7 10             	shl    $0x10,%edi
  104607:	c1 e6 0b             	shl    $0xb,%esi
  10460a:	09 fe                	or     %edi,%esi
  10460c:	c1 e2 08             	shl    $0x8,%edx
  10460f:	09 f2                	or     %esi,%edx
  104611:	89 c8                	mov    %ecx,%eax
  104613:	83 e0 fc             	and    $0xfffffffc,%eax
  104616:	01 d0                	add    %edx,%eax
  104618:	05 00 00 00 80       	add    $0x80000000,%eax
  10461d:	66 ba f8 0c          	mov    $0xcf8,%dx
  104621:	ef                   	out    %eax,(%dx)
  104622:	66 ba fc 0c          	mov    $0xcfc,%dx
  104626:	ed                   	in     (%dx),%eax
  104627:	c1 e1 03             	shl    $0x3,%ecx
  10462a:	80 e1 10             	and    $0x10,%cl
  10462d:	d3 e8                	shr    %cl,%eax
  10462f:	5d                   	pop    %rbp
  104630:	c3                   	ret
  104631:	66 66 66 66 66 66 2e 	data16 data16 data16 data16 data16 cs nopw 0x0(%rax,%rax,1)
  104638:	0f 1f 84 00 00 00 00 
  10463f:	00 

0000000000104640 <pci_get_sub>:
  104640:	55                   	push   %rbp
  104641:	48 89 e5             	mov    %rsp,%rbp
  104644:	c1 e7 10             	shl    $0x10,%edi
  104647:	c1 e6 0b             	shl    $0xb,%esi
  10464a:	09 fe                	or     %edi,%esi
  10464c:	c1 e2 08             	shl    $0x8,%edx
  10464f:	09 f2                	or     %esi,%edx
  104651:	8d 82 08 00 00 80    	lea    -0x7ffffff8(%rdx),%eax
  104657:	66 ba f8 0c          	mov    $0xcf8,%dx
  10465b:	ef                   	out    %eax,(%dx)
  10465c:	66 ba fc 0c          	mov    $0xcfc,%dx
  104660:	ed                   	in     (%dx),%eax
  104661:	c1 e8 10             	shr    $0x10,%eax
  104664:	5d                   	pop    %rbp
  104665:	c3                   	ret
  104666:	66 2e 0f 1f 84 00 00 	cs nopw 0x0(%rax,%rax,1)
  10466d:	00 00 00 

0000000000104670 <pci_get_sec>:
  104670:	55                   	push   %rbp
  104671:	48 89 e5             	mov    %rsp,%rbp
  104674:	c1 e7 10             	shl    $0x10,%edi
  104677:	c1 e6 0b             	shl    $0xb,%esi
  10467a:	09 fe                	or     %edi,%esi
  10467c:	c1 e2 08             	shl    $0x8,%edx
  10467f:	09 f2                	or     %esi,%edx
  104681:	8d 82 18 00 00 80    	lea    -0x7fffffe8(%rdx),%eax
  104687:	66 ba f8 0c          	mov    $0xcf8,%dx
  10468b:	ef                   	out    %eax,(%dx)
  10468c:	66 ba fc 0c          	mov    $0xcfc,%dx
  104690:	ed                   	in     (%dx),%eax
  104691:	c1 e8 08             	shr    $0x8,%eax
  104694:	5d                   	pop    %rbp
  104695:	c3                   	ret
  104696:	66 2e 0f 1f 84 00 00 	cs nopw 0x0(%rax,%rax,1)
  10469d:	00 00 00 

00000000001046a0 <pci_get_cl>:
  1046a0:	55                   	push   %rbp
  1046a1:	48 89 e5             	mov    %rsp,%rbp
  1046a4:	c1 e7 10             	shl    $0x10,%edi
  1046a7:	c1 e6 0b             	shl    $0xb,%esi
  1046aa:	09 fe                	or     %edi,%esi
  1046ac:	c1 e2 08             	shl    $0x8,%edx
  1046af:	09 f2                	or     %esi,%edx
  1046b1:	8d 82 08 00 00 80    	lea    -0x7ffffff8(%rdx),%eax
  1046b7:	66 ba f8 0c          	mov    $0xcf8,%dx
  1046bb:	ef                   	out    %eax,(%dx)
  1046bc:	66 ba fc 0c          	mov    $0xcfc,%dx
  1046c0:	ed                   	in     (%dx),%eax
  1046c1:	c1 e8 18             	shr    $0x18,%eax
  1046c4:	5d                   	pop    %rbp
  1046c5:	c3                   	ret
  1046c6:	66 2e 0f 1f 84 00 00 	cs nopw 0x0(%rax,%rax,1)
  1046cd:	00 00 00 

00000000001046d0 <pci_get_type>:
  1046d0:	55                   	push   %rbp
  1046d1:	48 89 e5             	mov    %rsp,%rbp
  1046d4:	c1 e7 10             	shl    $0x10,%edi
  1046d7:	c1 e6 0b             	shl    $0xb,%esi
  1046da:	09 fe                	or     %edi,%esi
  1046dc:	c1 e2 08             	shl    $0x8,%edx
  1046df:	09 f2                	or     %esi,%edx
  1046e1:	8d 82 0c 00 00 80    	lea    -0x7ffffff4(%rdx),%eax
  1046e7:	66 ba f8 0c          	mov    $0xcf8,%dx
  1046eb:	ef                   	out    %eax,(%dx)
  1046ec:	66 ba fc 0c          	mov    $0xcfc,%dx
  1046f0:	ed                   	in     (%dx),%eax
  1046f1:	c1 e8 10             	shr    $0x10,%eax
  1046f4:	5d                   	pop    %rbp
  1046f5:	c3                   	ret
  1046f6:	66 2e 0f 1f 84 00 00 	cs nopw 0x0(%rax,%rax,1)
  1046fd:	00 00 00 

0000000000104700 <pci_get_vendor>:
  104700:	55                   	push   %rbp
  104701:	48 89 e5             	mov    %rsp,%rbp
  104704:	c1 e7 10             	shl    $0x10,%edi
  104707:	c1 e6 0b             	shl    $0xb,%esi
  10470a:	09 fe                	or     %edi,%esi
  10470c:	c1 e2 08             	shl    $0x8,%edx
  10470f:	09 f2                	or     %esi,%edx
  104711:	8d 82 00 00 00 80    	lea    -0x80000000(%rdx),%eax
  104717:	66 ba f8 0c          	mov    $0xcf8,%dx
  10471b:	ef                   	out    %eax,(%dx)
  10471c:	66 ba fc 0c          	mov    $0xcfc,%dx
  104720:	ed                   	in     (%dx),%eax
  104721:	5d                   	pop    %rbp
  104722:	c3                   	ret
  104723:	66 66 66 66 2e 0f 1f 	data16 data16 data16 cs nopw 0x0(%rax,%rax,1)
  10472a:	84 00 00 00 00 00 

0000000000104730 <pci_enum_func>:
  104730:	55                   	push   %rbp
  104731:	48 89 e5             	mov    %rsp,%rbp
  104734:	41 57                	push   %r15
  104736:	41 56                	push   %r14
  104738:	41 55                	push   %r13
  10473a:	41 54                	push   %r12
  10473c:	53                   	push   %rbx
  10473d:	48 83 ec 18          	sub    $0x18,%rsp
  104741:	41 89 d4             	mov    %edx,%r12d
  104744:	89 7d cc             	mov    %edi,-0x34(%rbp)
  104747:	89 f8                	mov    %edi,%eax
  104749:	c1 e0 10             	shl    $0x10,%eax
  10474c:	89 75 c8             	mov    %esi,-0x38(%rbp)
  10474f:	89 f1                	mov    %esi,%ecx
  104751:	c1 e1 0b             	shl    $0xb,%ecx
  104754:	09 c1                	or     %eax,%ecx
  104756:	89 d3                	mov    %edx,%ebx
  104758:	c1 e3 08             	shl    $0x8,%ebx
  10475b:	09 cb                	or     %ecx,%ebx
  10475d:	8d 8b 08 00 00 80    	lea    -0x7ffffff8(%rbx),%ecx
  104763:	89 c8                	mov    %ecx,%eax
  104765:	66 ba f8 0c          	mov    $0xcf8,%dx
  104769:	ef                   	out    %eax,(%dx)
  10476a:	66 ba fc 0c          	mov    $0xcfc,%dx
  10476e:	ed                   	in     (%dx),%eax
  10476f:	41 89 c5             	mov    %eax,%r13d
  104772:	41 c1 ed 18          	shr    $0x18,%r13d
  104776:	89 c8                	mov    %ecx,%eax
  104778:	66 ba f8 0c          	mov    $0xcf8,%dx
  10477c:	ef                   	out    %eax,(%dx)
  10477d:	66 ba fc 0c          	mov    $0xcfc,%dx
  104781:	ed                   	in     (%dx),%eax
  104782:	41 89 c6             	mov    %eax,%r14d
  104785:	41 c1 ee 10          	shr    $0x10,%r14d
  104789:	8d 8b 00 00 00 80    	lea    -0x80000000(%rbx),%ecx
  10478f:	89 c8                	mov    %ecx,%eax
  104791:	66 ba f8 0c          	mov    $0xcf8,%dx
  104795:	ef                   	out    %eax,(%dx)
  104796:	66 ba fc 0c          	mov    $0xcfc,%dx
  10479a:	ed                   	in     (%dx),%eax
  10479b:	41 89 c7             	mov    %eax,%r15d
  10479e:	41 c1 ef 10          	shr    $0x10,%r15d
  1047a2:	89 c8                	mov    %ecx,%eax
  1047a4:	66 ba f8 0c          	mov    $0xcf8,%dx
  1047a8:	ef                   	out    %eax,(%dx)
  1047a9:	66 ba fc 0c          	mov    $0xcfc,%dx
  1047ad:	ed                   	in     (%dx),%eax
  1047ae:	89 45 d0             	mov    %eax,-0x30(%rbp)
  1047b1:	48 8b 05 58 a8 00 01 	mov    0x100a858(%rip),%rax        # 110f010 <pci_root>
  1047b8:	48 85 c0             	test   %rax,%rax
  1047bb:	74 32                	je     1047ef <pci_enum_func+0xbf>
  1047bd:	44 89 65 d4          	mov    %r12d,-0x2c(%rbp)
  1047c1:	66 66 66 66 66 66 2e 	data16 data16 data16 data16 data16 cs nopw 0x0(%rax,%rax,1)
  1047c8:	0f 1f 84 00 00 00 00 
  1047cf:	00 
  1047d0:	49 89 c4             	mov    %rax,%r12
  1047d3:	48 8b 00             	mov    (%rax),%rax
  1047d6:	48 85 c0             	test   %rax,%rax
  1047d9:	75 f5                	jne    1047d0 <pci_enum_func+0xa0>
  1047db:	bf 18 00 00 00       	mov    $0x18,%edi
  1047e0:	e8 7b e4 ff ff       	call   102c60 <k_obj_alloc>
  1047e5:	49 89 04 24          	mov    %rax,(%r12)
  1047e9:	44 8b 65 d4          	mov    -0x2c(%rbp),%r12d
  1047ed:	eb 2c                	jmp    10481b <pci_enum_func+0xeb>
  1047ef:	bf 5d ba 10 00       	mov    $0x10ba5d,%edi
  1047f4:	e8 77 d0 ff ff       	call   101870 <dbgconout>
  1047f9:	bf 18 00 00 00       	mov    $0x18,%edi
  1047fe:	e8 5d e4 ff ff       	call   102c60 <k_obj_alloc>
  104803:	48 89 05 06 a8 00 01 	mov    %rax,0x100a806(%rip)        # 110f010 <pci_root>
  10480a:	bf 69 ba 10 00       	mov    $0x10ba69,%edi
  10480f:	e8 5c d0 ff ff       	call   101870 <dbgconout>
  104814:	48 8b 05 f5 a7 00 01 	mov    0x100a7f5(%rip),%rax        # 110f010 <pci_root>
  10481b:	8b 4d cc             	mov    -0x34(%rbp),%ecx
  10481e:	88 48 08             	mov    %cl,0x8(%rax)
  104821:	8b 4d c8             	mov    -0x38(%rbp),%ecx
  104824:	88 48 09             	mov    %cl,0x9(%rax)
  104827:	44 88 60 0a          	mov    %r12b,0xa(%rax)
  10482b:	44 88 68 0b          	mov    %r13b,0xb(%rax)
  10482f:	44 88 70 0c          	mov    %r14b,0xc(%rax)
  104833:	8b 4d d0             	mov    -0x30(%rbp),%ecx
  104836:	66 89 48 0e          	mov    %cx,0xe(%rax)
  10483a:	66 44 89 78 10       	mov    %r15w,0x10(%rax)
  10483f:	41 80 fd 06          	cmp    $0x6,%r13b
  104843:	0f 85 aa 01 00 00    	jne    1049f3 <pci_enum_func+0x2c3>
  104849:	41 80 fe 04          	cmp    $0x4,%r14b
  10484d:	0f 85 a0 01 00 00    	jne    1049f3 <pci_enum_func+0x2c3>
  104853:	81 cb 18 00 00 80    	or     $0x80000018,%ebx
  104859:	89 d8                	mov    %ebx,%eax
  10485b:	66 ba f8 0c          	mov    $0xcf8,%dx
  10485f:	ef                   	out    %eax,(%dx)
  104860:	66 ba fc 0c          	mov    $0xcfc,%dx
  104864:	ed                   	in     (%dx),%eax
  104865:	0f b6 dc             	movzbl %ah,%ebx
  104868:	89 df                	mov    %ebx,%edi
  10486a:	31 f6                	xor    %esi,%esi
  10486c:	e8 2f 03 00 00       	call   104ba0 <pci_enum_dev>
  104871:	89 df                	mov    %ebx,%edi
  104873:	be 01 00 00 00       	mov    $0x1,%esi
  104878:	e8 23 03 00 00       	call   104ba0 <pci_enum_dev>
  10487d:	89 df                	mov    %ebx,%edi
  10487f:	be 02 00 00 00       	mov    $0x2,%esi
  104884:	e8 17 03 00 00       	call   104ba0 <pci_enum_dev>
  104889:	89 df                	mov    %ebx,%edi
  10488b:	be 03 00 00 00       	mov    $0x3,%esi
  104890:	e8 0b 03 00 00       	call   104ba0 <pci_enum_dev>
  104895:	89 df                	mov    %ebx,%edi
  104897:	be 04 00 00 00       	mov    $0x4,%esi
  10489c:	e8 ff 02 00 00       	call   104ba0 <pci_enum_dev>
  1048a1:	89 df                	mov    %ebx,%edi
  1048a3:	be 05 00 00 00       	mov    $0x5,%esi
  1048a8:	e8 f3 02 00 00       	call   104ba0 <pci_enum_dev>
  1048ad:	89 df                	mov    %ebx,%edi
  1048af:	be 06 00 00 00       	mov    $0x6,%esi
  1048b4:	e8 e7 02 00 00       	call   104ba0 <pci_enum_dev>
  1048b9:	89 df                	mov    %ebx,%edi
  1048bb:	be 07 00 00 00       	mov    $0x7,%esi
  1048c0:	e8 db 02 00 00       	call   104ba0 <pci_enum_dev>
  1048c5:	89 df                	mov    %ebx,%edi
  1048c7:	be 08 00 00 00       	mov    $0x8,%esi
  1048cc:	e8 cf 02 00 00       	call   104ba0 <pci_enum_dev>
  1048d1:	89 df                	mov    %ebx,%edi
  1048d3:	be 09 00 00 00       	mov    $0x9,%esi
  1048d8:	e8 c3 02 00 00       	call   104ba0 <pci_enum_dev>
  1048dd:	89 df                	mov    %ebx,%edi
  1048df:	be 0a 00 00 00       	mov    $0xa,%esi
  1048e4:	e8 b7 02 00 00       	call   104ba0 <pci_enum_dev>
  1048e9:	89 df                	mov    %ebx,%edi
  1048eb:	be 0b 00 00 00       	mov    $0xb,%esi
  1048f0:	e8 ab 02 00 00       	call   104ba0 <pci_enum_dev>
  1048f5:	89 df                	mov    %ebx,%edi
  1048f7:	be 0c 00 00 00       	mov    $0xc,%esi
  1048fc:	e8 9f 02 00 00       	call   104ba0 <pci_enum_dev>
  104901:	89 df                	mov    %ebx,%edi
  104903:	be 0d 00 00 00       	mov    $0xd,%esi
  104908:	e8 93 02 00 00       	call   104ba0 <pci_enum_dev>
  10490d:	89 df                	mov    %ebx,%edi
  10490f:	be 0e 00 00 00       	mov    $0xe,%esi
  104914:	e8 87 02 00 00       	call   104ba0 <pci_enum_dev>
  104919:	89 df                	mov    %ebx,%edi
  10491b:	be 0f 00 00 00       	mov    $0xf,%esi
  104920:	e8 7b 02 00 00       	call   104ba0 <pci_enum_dev>
  104925:	89 df                	mov    %ebx,%edi
  104927:	be 10 00 00 00       	mov    $0x10,%esi
  10492c:	e8 6f 02 00 00       	call   104ba0 <pci_enum_dev>
  104931:	89 df                	mov    %ebx,%edi
  104933:	be 11 00 00 00       	mov    $0x11,%esi
  104938:	e8 63 02 00 00       	call   104ba0 <pci_enum_dev>
  10493d:	89 df                	mov    %ebx,%edi
  10493f:	be 12 00 00 00       	mov    $0x12,%esi
  104944:	e8 57 02 00 00       	call   104ba0 <pci_enum_dev>
  104949:	89 df                	mov    %ebx,%edi
  10494b:	be 13 00 00 00       	mov    $0x13,%esi
  104950:	e8 4b 02 00 00       	call   104ba0 <pci_enum_dev>
  104955:	89 df                	mov    %ebx,%edi
  104957:	be 14 00 00 00       	mov    $0x14,%esi
  10495c:	e8 3f 02 00 00       	call   104ba0 <pci_enum_dev>
  104961:	89 df                	mov    %ebx,%edi
  104963:	be 15 00 00 00       	mov    $0x15,%esi
  104968:	e8 33 02 00 00       	call   104ba0 <pci_enum_dev>
  10496d:	89 df                	mov    %ebx,%edi
  10496f:	be 16 00 00 00       	mov    $0x16,%esi
  104974:	e8 27 02 00 00       	call   104ba0 <pci_enum_dev>
  104979:	89 df                	mov    %ebx,%edi
  10497b:	be 17 00 00 00       	mov    $0x17,%esi
  104980:	e8 1b 02 00 00       	call   104ba0 <pci_enum_dev>
  104985:	89 df                	mov    %ebx,%edi
  104987:	be 18 00 00 00       	mov    $0x18,%esi
  10498c:	e8 0f 02 00 00       	call   104ba0 <pci_enum_dev>
  104991:	89 df                	mov    %ebx,%edi
  104993:	be 19 00 00 00       	mov    $0x19,%esi
  104998:	e8 03 02 00 00       	call   104ba0 <pci_enum_dev>
  10499d:	89 df                	mov    %ebx,%edi
  10499f:	be 1a 00 00 00       	mov    $0x1a,%esi
  1049a4:	e8 f7 01 00 00       	call   104ba0 <pci_enum_dev>
  1049a9:	89 df                	mov    %ebx,%edi
  1049ab:	be 1b 00 00 00       	mov    $0x1b,%esi
  1049b0:	e8 eb 01 00 00       	call   104ba0 <pci_enum_dev>
  1049b5:	89 df                	mov    %ebx,%edi
  1049b7:	be 1c 00 00 00       	mov    $0x1c,%esi
  1049bc:	e8 df 01 00 00       	call   104ba0 <pci_enum_dev>
  1049c1:	89 df                	mov    %ebx,%edi
  1049c3:	be 1d 00 00 00       	mov    $0x1d,%esi
  1049c8:	e8 d3 01 00 00       	call   104ba0 <pci_enum_dev>
  1049cd:	89 df                	mov    %ebx,%edi
  1049cf:	be 1e 00 00 00       	mov    $0x1e,%esi
  1049d4:	e8 c7 01 00 00       	call   104ba0 <pci_enum_dev>
  1049d9:	89 df                	mov    %ebx,%edi
  1049db:	be 1f 00 00 00       	mov    $0x1f,%esi
  1049e0:	48 83 c4 18          	add    $0x18,%rsp
  1049e4:	5b                   	pop    %rbx
  1049e5:	41 5c                	pop    %r12
  1049e7:	41 5d                	pop    %r13
  1049e9:	41 5e                	pop    %r14
  1049eb:	41 5f                	pop    %r15
  1049ed:	5d                   	pop    %rbp
  1049ee:	e9 ad 01 00 00       	jmp    104ba0 <pci_enum_dev>
  1049f3:	48 83 c4 18          	add    $0x18,%rsp
  1049f7:	5b                   	pop    %rbx
  1049f8:	41 5c                	pop    %r12
  1049fa:	41 5d                	pop    %r13
  1049fc:	41 5e                	pop    %r14
  1049fe:	41 5f                	pop    %r15
  104a00:	5d                   	pop    %rbp
  104a01:	c3                   	ret
  104a02:	66 66 66 66 66 2e 0f 	data16 data16 data16 data16 cs nopw 0x0(%rax,%rax,1)
  104a09:	1f 84 00 00 00 00 00 

0000000000104a10 <pci_enum_bus>:
  104a10:	55                   	push   %rbp
  104a11:	48 89 e5             	mov    %rsp,%rbp
  104a14:	53                   	push   %rbx
  104a15:	50                   	push   %rax
  104a16:	89 fb                	mov    %edi,%ebx
  104a18:	31 f6                	xor    %esi,%esi
  104a1a:	e8 81 01 00 00       	call   104ba0 <pci_enum_dev>
  104a1f:	89 df                	mov    %ebx,%edi
  104a21:	be 01 00 00 00       	mov    $0x1,%esi
  104a26:	e8 75 01 00 00       	call   104ba0 <pci_enum_dev>
  104a2b:	89 df                	mov    %ebx,%edi
  104a2d:	be 02 00 00 00       	mov    $0x2,%esi
  104a32:	e8 69 01 00 00       	call   104ba0 <pci_enum_dev>
  104a37:	89 df                	mov    %ebx,%edi
  104a39:	be 03 00 00 00       	mov    $0x3,%esi
  104a3e:	e8 5d 01 00 00       	call   104ba0 <pci_enum_dev>
  104a43:	89 df                	mov    %ebx,%edi
  104a45:	be 04 00 00 00       	mov    $0x4,%esi
  104a4a:	e8 51 01 00 00       	call   104ba0 <pci_enum_dev>
  104a4f:	89 df                	mov    %ebx,%edi
  104a51:	be 05 00 00 00       	mov    $0x5,%esi
  104a56:	e8 45 01 00 00       	call   104ba0 <pci_enum_dev>
  104a5b:	89 df                	mov    %ebx,%edi
  104a5d:	be 06 00 00 00       	mov    $0x6,%esi
  104a62:	e8 39 01 00 00       	call   104ba0 <pci_enum_dev>
  104a67:	89 df                	mov    %ebx,%edi
  104a69:	be 07 00 00 00       	mov    $0x7,%esi
  104a6e:	e8 2d 01 00 00       	call   104ba0 <pci_enum_dev>
  104a73:	89 df                	mov    %ebx,%edi
  104a75:	be 08 00 00 00       	mov    $0x8,%esi
  104a7a:	e8 21 01 00 00       	call   104ba0 <pci_enum_dev>
  104a7f:	89 df                	mov    %ebx,%edi
  104a81:	be 09 00 00 00       	mov    $0x9,%esi
  104a86:	e8 15 01 00 00       	call   104ba0 <pci_enum_dev>
  104a8b:	89 df                	mov    %ebx,%edi
  104a8d:	be 0a 00 00 00       	mov    $0xa,%esi
  104a92:	e8 09 01 00 00       	call   104ba0 <pci_enum_dev>
  104a97:	89 df                	mov    %ebx,%edi
  104a99:	be 0b 00 00 00       	mov    $0xb,%esi
  104a9e:	e8 fd 00 00 00       	call   104ba0 <pci_enum_dev>
  104aa3:	89 df                	mov    %ebx,%edi
  104aa5:	be 0c 00 00 00       	mov    $0xc,%esi
  104aaa:	e8 f1 00 00 00       	call   104ba0 <pci_enum_dev>
  104aaf:	89 df                	mov    %ebx,%edi
  104ab1:	be 0d 00 00 00       	mov    $0xd,%esi
  104ab6:	e8 e5 00 00 00       	call   104ba0 <pci_enum_dev>
  104abb:	89 df                	mov    %ebx,%edi
  104abd:	be 0e 00 00 00       	mov    $0xe,%esi
  104ac2:	e8 d9 00 00 00       	call   104ba0 <pci_enum_dev>
  104ac7:	89 df                	mov    %ebx,%edi
  104ac9:	be 0f 00 00 00       	mov    $0xf,%esi
  104ace:	e8 cd 00 00 00       	call   104ba0 <pci_enum_dev>
  104ad3:	89 df                	mov    %ebx,%edi
  104ad5:	be 10 00 00 00       	mov    $0x10,%esi
  104ada:	e8 c1 00 00 00       	call   104ba0 <pci_enum_dev>
  104adf:	89 df                	mov    %ebx,%edi
  104ae1:	be 11 00 00 00       	mov    $0x11,%esi
  104ae6:	e8 b5 00 00 00       	call   104ba0 <pci_enum_dev>
  104aeb:	89 df                	mov    %ebx,%edi
  104aed:	be 12 00 00 00       	mov    $0x12,%esi
  104af2:	e8 a9 00 00 00       	call   104ba0 <pci_enum_dev>
  104af7:	89 df                	mov    %ebx,%edi
  104af9:	be 13 00 00 00       	mov    $0x13,%esi
  104afe:	e8 9d 00 00 00       	call   104ba0 <pci_enum_dev>
  104b03:	89 df                	mov    %ebx,%edi
  104b05:	be 14 00 00 00       	mov    $0x14,%esi
  104b0a:	e8 91 00 00 00       	call   104ba0 <pci_enum_dev>
  104b0f:	89 df                	mov    %ebx,%edi
  104b11:	be 15 00 00 00       	mov    $0x15,%esi
  104b16:	e8 85 00 00 00       	call   104ba0 <pci_enum_dev>
  104b1b:	89 df                	mov    %ebx,%edi
  104b1d:	be 16 00 00 00       	mov    $0x16,%esi
  104b22:	e8 79 00 00 00       	call   104ba0 <pci_enum_dev>
  104b27:	89 df                	mov    %ebx,%edi
  104b29:	be 17 00 00 00       	mov    $0x17,%esi
  104b2e:	e8 6d 00 00 00       	call   104ba0 <pci_enum_dev>
  104b33:	89 df                	mov    %ebx,%edi
  104b35:	be 18 00 00 00       	mov    $0x18,%esi
  104b3a:	e8 61 00 00 00       	call   104ba0 <pci_enum_dev>
  104b3f:	89 df                	mov    %ebx,%edi
  104b41:	be 19 00 00 00       	mov    $0x19,%esi
  104b46:	e8 55 00 00 00       	call   104ba0 <pci_enum_dev>
  104b4b:	89 df                	mov    %ebx,%edi
  104b4d:	be 1a 00 00 00       	mov    $0x1a,%esi
  104b52:	e8 49 00 00 00       	call   104ba0 <pci_enum_dev>
  104b57:	89 df                	mov    %ebx,%edi
  104b59:	be 1b 00 00 00       	mov    $0x1b,%esi
  104b5e:	e8 3d 00 00 00       	call   104ba0 <pci_enum_dev>
  104b63:	89 df                	mov    %ebx,%edi
  104b65:	be 1c 00 00 00       	mov    $0x1c,%esi
  104b6a:	e8 31 00 00 00       	call   104ba0 <pci_enum_dev>
  104b6f:	89 df                	mov    %ebx,%edi
  104b71:	be 1d 00 00 00       	mov    $0x1d,%esi
  104b76:	e8 25 00 00 00       	call   104ba0 <pci_enum_dev>
  104b7b:	89 df                	mov    %ebx,%edi
  104b7d:	be 1e 00 00 00       	mov    $0x1e,%esi
  104b82:	e8 19 00 00 00       	call   104ba0 <pci_enum_dev>
  104b87:	89 df                	mov    %ebx,%edi
  104b89:	be 1f 00 00 00       	mov    $0x1f,%esi
  104b8e:	48 83 c4 08          	add    $0x8,%rsp
  104b92:	5b                   	pop    %rbx
  104b93:	5d                   	pop    %rbp
  104b94:	e9 07 00 00 00       	jmp    104ba0 <pci_enum_dev>
  104b99:	0f 1f 80 00 00 00 00 	nopl   0x0(%rax)

0000000000104ba0 <pci_enum_dev>:
  104ba0:	55                   	push   %rbp
  104ba1:	48 89 e5             	mov    %rsp,%rbp
  104ba4:	41 57                	push   %r15
  104ba6:	41 56                	push   %r14
  104ba8:	53                   	push   %rbx
  104ba9:	50                   	push   %rax
  104baa:	89 f8                	mov    %edi,%eax
  104bac:	c1 e0 10             	shl    $0x10,%eax
  104baf:	89 f3                	mov    %esi,%ebx
  104bb1:	c1 e3 0b             	shl    $0xb,%ebx
  104bb4:	09 c3                	or     %eax,%ebx
  104bb6:	8d 83 00 00 00 80    	lea    -0x80000000(%rbx),%eax
  104bbc:	66 ba f8 0c          	mov    $0xcf8,%dx
  104bc0:	ef                   	out    %eax,(%dx)
  104bc1:	66 ba fc 0c          	mov    $0xcfc,%dx
  104bc5:	ed                   	in     (%dx),%eax
  104bc6:	66 83 f8 ff          	cmp    $0xffff,%ax
  104bca:	0f 84 33 01 00 00    	je     104d03 <pci_enum_dev+0x163>
  104bd0:	44 0f b6 f7          	movzbl %dil,%r14d
  104bd4:	44 0f b6 fe          	movzbl %sil,%r15d
  104bd8:	44 89 f7             	mov    %r14d,%edi
  104bdb:	44 89 fe             	mov    %r15d,%esi
  104bde:	31 d2                	xor    %edx,%edx
  104be0:	e8 4b fb ff ff       	call   104730 <pci_enum_func>
  104be5:	89 d8                	mov    %ebx,%eax
  104be7:	0d 0c 00 00 80       	or     $0x8000000c,%eax
  104bec:	66 ba f8 0c          	mov    $0xcf8,%dx
  104bf0:	ef                   	out    %eax,(%dx)
  104bf1:	66 ba fc 0c          	mov    $0xcfc,%dx
  104bf5:	ed                   	in     (%dx),%eax
  104bf6:	a9 00 00 80 00       	test   $0x800000,%eax
  104bfb:	0f 84 02 01 00 00    	je     104d03 <pci_enum_dev+0x163>
  104c01:	89 d8                	mov    %ebx,%eax
  104c03:	0d 00 01 00 80       	or     $0x80000100,%eax
  104c08:	66 ba f8 0c          	mov    $0xcf8,%dx
  104c0c:	ef                   	out    %eax,(%dx)
  104c0d:	66 ba fc 0c          	mov    $0xcfc,%dx
  104c11:	ed                   	in     (%dx),%eax
  104c12:	66 83 f8 ff          	cmp    $0xffff,%ax
  104c16:	74 10                	je     104c28 <pci_enum_dev+0x88>
  104c18:	44 89 f7             	mov    %r14d,%edi
  104c1b:	44 89 fe             	mov    %r15d,%esi
  104c1e:	ba 01 00 00 00       	mov    $0x1,%edx
  104c23:	e8 08 fb ff ff       	call   104730 <pci_enum_func>
  104c28:	89 d8                	mov    %ebx,%eax
  104c2a:	0d 00 02 00 80       	or     $0x80000200,%eax
  104c2f:	66 ba f8 0c          	mov    $0xcf8,%dx
  104c33:	ef                   	out    %eax,(%dx)
  104c34:	66 ba fc 0c          	mov    $0xcfc,%dx
  104c38:	ed                   	in     (%dx),%eax
  104c39:	66 83 f8 ff          	cmp    $0xffff,%ax
  104c3d:	74 10                	je     104c4f <pci_enum_dev+0xaf>
  104c3f:	44 89 f7             	mov    %r14d,%edi
  104c42:	44 89 fe             	mov    %r15d,%esi
  104c45:	ba 02 00 00 00       	mov    $0x2,%edx
  104c4a:	e8 e1 fa ff ff       	call   104730 <pci_enum_func>
  104c4f:	89 d8                	mov    %ebx,%eax
  104c51:	0d 00 03 00 80       	or     $0x80000300,%eax
  104c56:	66 ba f8 0c          	mov    $0xcf8,%dx
  104c5a:	ef                   	out    %eax,(%dx)
  104c5b:	66 ba fc 0c          	mov    $0xcfc,%dx
  104c5f:	ed                   	in     (%dx),%eax
  104c60:	66 83 f8 ff          	cmp    $0xffff,%ax
  104c64:	74 10                	je     104c76 <pci_enum_dev+0xd6>
  104c66:	44 89 f7             	mov    %r14d,%edi
  104c69:	44 89 fe             	mov    %r15d,%esi
  104c6c:	ba 03 00 00 00       	mov    $0x3,%edx
  104c71:	e8 ba fa ff ff       	call   104730 <pci_enum_func>
  104c76:	89 d8                	mov    %ebx,%eax
  104c78:	0d 00 04 00 80       	or     $0x80000400,%eax
  104c7d:	66 ba f8 0c          	mov    $0xcf8,%dx
  104c81:	ef                   	out    %eax,(%dx)
  104c82:	66 ba fc 0c          	mov    $0xcfc,%dx
  104c86:	ed                   	in     (%dx),%eax
  104c87:	66 83 f8 ff          	cmp    $0xffff,%ax
  104c8b:	74 10                	je     104c9d <pci_enum_dev+0xfd>
  104c8d:	44 89 f7             	mov    %r14d,%edi
  104c90:	44 89 fe             	mov    %r15d,%esi
  104c93:	ba 04 00 00 00       	mov    $0x4,%edx
  104c98:	e8 93 fa ff ff       	call   104730 <pci_enum_func>
  104c9d:	89 d8                	mov    %ebx,%eax
  104c9f:	0d 00 05 00 80       	or     $0x80000500,%eax
  104ca4:	66 ba f8 0c          	mov    $0xcf8,%dx
  104ca8:	ef                   	out    %eax,(%dx)
  104ca9:	66 ba fc 0c          	mov    $0xcfc,%dx
  104cad:	ed                   	in     (%dx),%eax
  104cae:	66 83 f8 ff          	cmp    $0xffff,%ax
  104cb2:	74 10                	je     104cc4 <pci_enum_dev+0x124>
  104cb4:	44 89 f7             	mov    %r14d,%edi
  104cb7:	44 89 fe             	mov    %r15d,%esi
  104cba:	ba 05 00 00 00       	mov    $0x5,%edx
  104cbf:	e8 6c fa ff ff       	call   104730 <pci_enum_func>
  104cc4:	89 d8                	mov    %ebx,%eax
  104cc6:	0d 00 06 00 80       	or     $0x80000600,%eax
  104ccb:	66 ba f8 0c          	mov    $0xcf8,%dx
  104ccf:	ef                   	out    %eax,(%dx)
  104cd0:	66 ba fc 0c          	mov    $0xcfc,%dx
  104cd4:	ed                   	in     (%dx),%eax
  104cd5:	66 83 f8 ff          	cmp    $0xffff,%ax
  104cd9:	74 10                	je     104ceb <pci_enum_dev+0x14b>
  104cdb:	44 89 f7             	mov    %r14d,%edi
  104cde:	44 89 fe             	mov    %r15d,%esi
  104ce1:	ba 06 00 00 00       	mov    $0x6,%edx
  104ce6:	e8 45 fa ff ff       	call   104730 <pci_enum_func>
  104ceb:	81 cb 00 07 00 80    	or     $0x80000700,%ebx
  104cf1:	89 d8                	mov    %ebx,%eax
  104cf3:	66 ba f8 0c          	mov    $0xcf8,%dx
  104cf7:	ef                   	out    %eax,(%dx)
  104cf8:	66 ba fc 0c          	mov    $0xcfc,%dx
  104cfc:	ed                   	in     (%dx),%eax
  104cfd:	66 83 f8 ff          	cmp    $0xffff,%ax
  104d01:	75 0b                	jne    104d0e <pci_enum_dev+0x16e>
  104d03:	48 83 c4 08          	add    $0x8,%rsp
  104d07:	5b                   	pop    %rbx
  104d08:	41 5e                	pop    %r14
  104d0a:	41 5f                	pop    %r15
  104d0c:	5d                   	pop    %rbp
  104d0d:	c3                   	ret
  104d0e:	44 89 f7             	mov    %r14d,%edi
  104d11:	44 89 fe             	mov    %r15d,%esi
  104d14:	ba 07 00 00 00       	mov    $0x7,%edx
  104d19:	48 83 c4 08          	add    $0x8,%rsp
  104d1d:	5b                   	pop    %rbx
  104d1e:	41 5e                	pop    %r14
  104d20:	41 5f                	pop    %r15
  104d22:	5d                   	pop    %rbp
  104d23:	e9 08 fa ff ff       	jmp    104730 <pci_enum_func>
  104d28:	0f 1f 84 00 00 00 00 	nopl   0x0(%rax,%rax,1)
  104d2f:	00 

0000000000104d30 <pci_enum>:
  104d30:	55                   	push   %rbp
  104d31:	48 89 e5             	mov    %rsp,%rbp
  104d34:	b8 0c 00 00 80       	mov    $0x8000000c,%eax
  104d39:	66 ba f8 0c          	mov    $0xcf8,%dx
  104d3d:	ef                   	out    %eax,(%dx)
  104d3e:	66 ba fc 0c          	mov    $0xcfc,%dx
  104d42:	ed                   	in     (%dx),%eax
  104d43:	a9 00 00 80 00       	test   $0x800000,%eax
  104d48:	75 0b                	jne    104d55 <pci_enum+0x25>
  104d4a:	31 c9                	xor    %ecx,%ecx
  104d4c:	0f b6 f9             	movzbl %cl,%edi
  104d4f:	5d                   	pop    %rbp
  104d50:	e9 bb fc ff ff       	jmp    104a10 <pci_enum_bus>
  104d55:	b8 00 00 00 80       	mov    $0x80000000,%eax
  104d5a:	66 ba f8 0c          	mov    $0xcf8,%dx
  104d5e:	ef                   	out    %eax,(%dx)
  104d5f:	66 ba fc 0c          	mov    $0xcfc,%dx
  104d63:	ed                   	in     (%dx),%eax
  104d64:	66 83 f8 ff          	cmp    $0xffff,%ax
  104d68:	0f 85 e8 00 00 00    	jne    104e56 <pci_enum+0x126>
  104d6e:	31 ff                	xor    %edi,%edi
  104d70:	e8 9b fc ff ff       	call   104a10 <pci_enum_bus>
  104d75:	b8 00 01 00 80       	mov    $0x80000100,%eax
  104d7a:	66 ba f8 0c          	mov    $0xcf8,%dx
  104d7e:	ef                   	out    %eax,(%dx)
  104d7f:	66 ba fc 0c          	mov    $0xcfc,%dx
  104d83:	ed                   	in     (%dx),%eax
  104d84:	66 83 f8 ff          	cmp    $0xffff,%ax
  104d88:	0f 85 c8 00 00 00    	jne    104e56 <pci_enum+0x126>
  104d8e:	bf 01 00 00 00       	mov    $0x1,%edi
  104d93:	e8 78 fc ff ff       	call   104a10 <pci_enum_bus>
  104d98:	b8 00 02 00 80       	mov    $0x80000200,%eax
  104d9d:	66 ba f8 0c          	mov    $0xcf8,%dx
  104da1:	ef                   	out    %eax,(%dx)
  104da2:	66 ba fc 0c          	mov    $0xcfc,%dx
  104da6:	ed                   	in     (%dx),%eax
  104da7:	66 83 f8 ff          	cmp    $0xffff,%ax
  104dab:	0f 85 a5 00 00 00    	jne    104e56 <pci_enum+0x126>
  104db1:	bf 02 00 00 00       	mov    $0x2,%edi
  104db6:	e8 55 fc ff ff       	call   104a10 <pci_enum_bus>
  104dbb:	b8 00 03 00 80       	mov    $0x80000300,%eax
  104dc0:	66 ba f8 0c          	mov    $0xcf8,%dx
  104dc4:	ef                   	out    %eax,(%dx)
  104dc5:	66 ba fc 0c          	mov    $0xcfc,%dx
  104dc9:	ed                   	in     (%dx),%eax
  104dca:	66 83 f8 ff          	cmp    $0xffff,%ax
  104dce:	0f 85 82 00 00 00    	jne    104e56 <pci_enum+0x126>
  104dd4:	bf 03 00 00 00       	mov    $0x3,%edi
  104dd9:	e8 32 fc ff ff       	call   104a10 <pci_enum_bus>
  104dde:	b8 00 04 00 80       	mov    $0x80000400,%eax
  104de3:	66 ba f8 0c          	mov    $0xcf8,%dx
  104de7:	ef                   	out    %eax,(%dx)
  104de8:	66 ba fc 0c          	mov    $0xcfc,%dx
  104dec:	ed                   	in     (%dx),%eax
  104ded:	66 83 f8 ff          	cmp    $0xffff,%ax
  104df1:	75 63                	jne    104e56 <pci_enum+0x126>
  104df3:	bf 04 00 00 00       	mov    $0x4,%edi
  104df8:	e8 13 fc ff ff       	call   104a10 <pci_enum_bus>
  104dfd:	b8 00 05 00 80       	mov    $0x80000500,%eax
  104e02:	66 ba f8 0c          	mov    $0xcf8,%dx
  104e06:	ef                   	out    %eax,(%dx)
  104e07:	66 ba fc 0c          	mov    $0xcfc,%dx
  104e0b:	ed                   	in     (%dx),%eax
  104e0c:	66 83 f8 ff          	cmp    $0xffff,%ax
  104e10:	75 44                	jne    104e56 <pci_enum+0x126>
  104e12:	bf 05 00 00 00       	mov    $0x5,%edi
  104e17:	e8 f4 fb ff ff       	call   104a10 <pci_enum_bus>
  104e1c:	b8 00 06 00 80       	mov    $0x80000600,%eax
  104e21:	66 ba f8 0c          	mov    $0xcf8,%dx
  104e25:	ef                   	out    %eax,(%dx)
  104e26:	66 ba fc 0c          	mov    $0xcfc,%dx
  104e2a:	ed                   	in     (%dx),%eax
  104e2b:	66 83 f8 ff          	cmp    $0xffff,%ax
  104e2f:	75 25                	jne    104e56 <pci_enum+0x126>
  104e31:	bf 06 00 00 00       	mov    $0x6,%edi
  104e36:	e8 d5 fb ff ff       	call   104a10 <pci_enum_bus>
  104e3b:	b8 00 07 00 80       	mov    $0x80000700,%eax
  104e40:	66 ba f8 0c          	mov    $0xcf8,%dx
  104e44:	ef                   	out    %eax,(%dx)
  104e45:	66 ba fc 0c          	mov    $0xcfc,%dx
  104e49:	ed                   	in     (%dx),%eax
  104e4a:	b1 07                	mov    $0x7,%cl
  104e4c:	66 83 f8 ff          	cmp    $0xffff,%ax
  104e50:	0f 84 f6 fe ff ff    	je     104d4c <pci_enum+0x1c>
  104e56:	5d                   	pop    %rbp
  104e57:	c3                   	ret
  104e58:	0f 1f 84 00 00 00 00 	nopl   0x0(%rax,%rax,1)
  104e5f:	00 

0000000000104e60 <timer_setup>:
  104e60:	55                   	push   %rbp
  104e61:	48 89 e5             	mov    %rsp,%rbp
  104e64:	bf 20 00 00 00       	mov    $0x20,%edi
  104e69:	be 22 a1 10 00       	mov    $0x10a122,%esi
  104e6e:	e8 8d d6 ff ff       	call   102500 <idt_set_irq_ent>
  104e73:	31 c0                	xor    %eax,%eax
  104e75:	5d                   	pop    %rbp
  104e76:	e9 c5 d6 ff ff       	jmp    102540 <idt_flush>
  104e7b:	0f 1f 44 00 00       	nopl   0x0(%rax,%rax,1)

0000000000104e80 <timer_wait>:
  104e80:	55                   	push   %rbp
  104e81:	48 89 e5             	mov    %rsp,%rbp
  104e84:	5d                   	pop    %rbp
  104e85:	c3                   	ret
  104e86:	66 2e 0f 1f 84 00 00 	cs nopw 0x0(%rax,%rax,1)
  104e8d:	00 00 00 
  104e90:	66 2e 0f 1f 84 00 00 	cs nopw 0x0(%rax,%rax,1)
  104e97:	00 00 00 
  104e9a:	66 2e 0f 1f 84 00 00 	cs nopw 0x0(%rax,%rax,1)
  104ea1:	00 00 00 
  104ea4:	66 2e 0f 1f 84 00 00 	cs nopw 0x0(%rax,%rax,1)
  104eab:	00 00 00 
  104eae:	66 2e 0f 1f 84 00 00 	cs nopw 0x0(%rax,%rax,1)
  104eb5:	00 00 00 
  104eb8:	66 2e 0f 1f 84 00 00 	cs nopw 0x0(%rax,%rax,1)
  104ebf:	00 00 00 
  104ec2:	66 2e 0f 1f 84 00 00 	cs nopw 0x0(%rax,%rax,1)
  104ec9:	00 00 00 
  104ecc:	66 2e 0f 1f 84 00 00 	cs nopw 0x0(%rax,%rax,1)
  104ed3:	00 00 00 
  104ed6:	66 2e 0f 1f 84 00 00 	cs nopw 0x0(%rax,%rax,1)
  104edd:	00 00 00 
  104ee0:	66 2e 0f 1f 84 00 00 	cs nopw 0x0(%rax,%rax,1)
  104ee7:	00 00 00 
  104eea:	66 2e 0f 1f 84 00 00 	cs nopw 0x0(%rax,%rax,1)
  104ef1:	00 00 00 
  104ef4:	66 2e 0f 1f 84 00 00 	cs nopw 0x0(%rax,%rax,1)
  104efb:	00 00 00 
  104efe:	66 2e 0f 1f 84 00 00 	cs nopw 0x0(%rax,%rax,1)
  104f05:	00 00 00 
  104f08:	66 2e 0f 1f 84 00 00 	cs nopw 0x0(%rax,%rax,1)
  104f0f:	00 00 00 
  104f12:	66 2e 0f 1f 84 00 00 	cs nopw 0x0(%rax,%rax,1)
  104f19:	00 00 00 
  104f1c:	66 2e 0f 1f 84 00 00 	cs nopw 0x0(%rax,%rax,1)
  104f23:	00 00 00 
  104f26:	66 2e 0f 1f 84 00 00 	cs nopw 0x0(%rax,%rax,1)
  104f2d:	00 00 00 
  104f30:	66 2e 0f 1f 84 00 00 	cs nopw 0x0(%rax,%rax,1)
  104f37:	00 00 00 
  104f3a:	66 2e 0f 1f 84 00 00 	cs nopw 0x0(%rax,%rax,1)
  104f41:	00 00 00 
  104f44:	66 2e 0f 1f 84 00 00 	cs nopw 0x0(%rax,%rax,1)
  104f4b:	00 00 00 
  104f4e:	66 2e 0f 1f 84 00 00 	cs nopw 0x0(%rax,%rax,1)
  104f55:	00 00 00 
  104f58:	66 2e 0f 1f 84 00 00 	cs nopw 0x0(%rax,%rax,1)
  104f5f:	00 00 00 
  104f62:	66 2e 0f 1f 84 00 00 	cs nopw 0x0(%rax,%rax,1)
  104f69:	00 00 00 
  104f6c:	66 2e 0f 1f 84 00 00 	cs nopw 0x0(%rax,%rax,1)
  104f73:	00 00 00 
  104f76:	66 2e 0f 1f 84 00 00 	cs nopw 0x0(%rax,%rax,1)
  104f7d:	00 00 00 
  104f80:	66 2e 0f 1f 84 00 00 	cs nopw 0x0(%rax,%rax,1)
  104f87:	00 00 00 
  104f8a:	66 2e 0f 1f 84 00 00 	cs nopw 0x0(%rax,%rax,1)
  104f91:	00 00 00 
  104f94:	66 2e 0f 1f 84 00 00 	cs nopw 0x0(%rax,%rax,1)
  104f9b:	00 00 00 
  104f9e:	66 2e 0f 1f 84 00 00 	cs nopw 0x0(%rax,%rax,1)
  104fa5:	00 00 00 
  104fa8:	66 2e 0f 1f 84 00 00 	cs nopw 0x0(%rax,%rax,1)
  104faf:	00 00 00 
  104fb2:	66 2e 0f 1f 84 00 00 	cs nopw 0x0(%rax,%rax,1)
  104fb9:	00 00 00 
  104fbc:	66 2e 0f 1f 84 00 00 	cs nopw 0x0(%rax,%rax,1)
  104fc3:	00 00 00 
  104fc6:	66 2e 0f 1f 84 00 00 	cs nopw 0x0(%rax,%rax,1)
  104fcd:	00 00 00 
  104fd0:	66 2e 0f 1f 84 00 00 	cs nopw 0x0(%rax,%rax,1)
  104fd7:	00 00 00 
  104fda:	66 2e 0f 1f 84 00 00 	cs nopw 0x0(%rax,%rax,1)
  104fe1:	00 00 00 
  104fe4:	66 2e 0f 1f 84 00 00 	cs nopw 0x0(%rax,%rax,1)
  104feb:	00 00 00 
  104fee:	66 2e 0f 1f 84 00 00 	cs nopw 0x0(%rax,%rax,1)
  104ff5:	00 00 00 
  104ff8:	0f 1f 84 00 00 00 00 	nopl   0x0(%rax,%rax,1)
  104fff:	00 

0000000000105000 <tss>:
	...

0000000000105064 <gdtr>:
  105064:	35 00 6e 50 10       	xor    $0x10506e00,%eax
  105069:	00 00                	add    %al,(%rax)
  10506b:	00 00                	add    %al,(%rax)
	...

000000000010506e <gdt_start>:
	...

0000000000105076 <.krnlT_sd>:
  105076:	ff                   	(bad)
  105077:	ff 00                	incl   (%rax)
  105079:	00 00                	add    %al,(%rax)
  10507b:	9a                   	(bad)
  10507c:	af                   	scas   %es:(%rdi),%eax
	...

000000000010507e <.krnlD_sd>:
  10507e:	ff                   	(bad)
  10507f:	ff 00                	incl   (%rax)
  105081:	00 00                	add    %al,(%rax)
  105083:	92                   	xchg   %eax,%edx
  105084:	cf                   	iret
	...

0000000000105086 <.userT_sd>:
  105086:	ff                   	(bad)
  105087:	ff 00                	incl   (%rax)
  105089:	00 00                	add    %al,(%rax)
  10508b:	00 fa                	add    %bh,%dl
  10508d:	af                   	scas   %es:(%rdi),%eax
	...

000000000010508f <.userD_sd>:
  10508f:	ff                   	(bad)
  105090:	ff 00                	incl   (%rax)
  105092:	00 00                	add    %al,(%rax)
  105094:	00 f2                	add    %dh,%dl
  105096:	cf                   	iret
	...

0000000000105098 <.tss_sd>:
  105098:	64 00              	add    %al,%fs:(%rax)

000000000010509a <.tss_addr_w16>:
	...

000000000010509c <.tss_addr_b24>:
  10509c:	00 89 00       	add    %cl,0x0(%rcx)

000000000010509f <.tss_addr_b32>:
	...

00000000001050a0 <.tss_addr_i64>:
  1050a0:	00 00                	add    %al,(%rax)
	...

00000000001050a4 <eax_keep>:
	...

00000000001050ac <ebx_keep>:
	...
  1050b4:	66 2e 0f 1f 84 00 00 	cs nopw 0x0(%rax,%rax,1)
  1050bb:	00 00 00 
  1050be:	66 2e 0f 1f 84 00 00 	cs nopw 0x0(%rax,%rax,1)
  1050c5:	00 00 00 
  1050c8:	66 2e 0f 1f 84 00 00 	cs nopw 0x0(%rax,%rax,1)
  1050cf:	00 00 00 
  1050d2:	66 2e 0f 1f 84 00 00 	cs nopw 0x0(%rax,%rax,1)
  1050d9:	00 00 00 
  1050dc:	66 2e 0f 1f 84 00 00 	cs nopw 0x0(%rax,%rax,1)
  1050e3:	00 00 00 
  1050e6:	66 2e 0f 1f 84 00 00 	cs nopw 0x0(%rax,%rax,1)
  1050ed:	00 00 00 
  1050f0:	66 2e 0f 1f 84 00 00 	cs nopw 0x0(%rax,%rax,1)
  1050f7:	00 00 00 
  1050fa:	66 2e 0f 1f 84 00 00 	cs nopw 0x0(%rax,%rax,1)
  105101:	00 00 00 
  105104:	66 2e 0f 1f 84 00 00 	cs nopw 0x0(%rax,%rax,1)
  10510b:	00 00 00 
  10510e:	66 2e 0f 1f 84 00 00 	cs nopw 0x0(%rax,%rax,1)
  105115:	00 00 00 
  105118:	66 2e 0f 1f 84 00 00 	cs nopw 0x0(%rax,%rax,1)
  10511f:	00 00 00 
  105122:	66 2e 0f 1f 84 00 00 	cs nopw 0x0(%rax,%rax,1)
  105129:	00 00 00 
  10512c:	66 2e 0f 1f 84 00 00 	cs nopw 0x0(%rax,%rax,1)
  105133:	00 00 00 
  105136:	66 2e 0f 1f 84 00 00 	cs nopw 0x0(%rax,%rax,1)
  10513d:	00 00 00 
  105140:	66 2e 0f 1f 84 00 00 	cs nopw 0x0(%rax,%rax,1)
  105147:	00 00 00 
  10514a:	66 2e 0f 1f 84 00 00 	cs nopw 0x0(%rax,%rax,1)
  105151:	00 00 00 
  105154:	66 2e 0f 1f 84 00 00 	cs nopw 0x0(%rax,%rax,1)
  10515b:	00 00 00 
  10515e:	66 2e 0f 1f 84 00 00 	cs nopw 0x0(%rax,%rax,1)
  105165:	00 00 00 
  105168:	66 2e 0f 1f 84 00 00 	cs nopw 0x0(%rax,%rax,1)
  10516f:	00 00 00 
  105172:	66 2e 0f 1f 84 00 00 	cs nopw 0x0(%rax,%rax,1)
  105179:	00 00 00 
  10517c:	66 2e 0f 1f 84 00 00 	cs nopw 0x0(%rax,%rax,1)
  105183:	00 00 00 
  105186:	66 2e 0f 1f 84 00 00 	cs nopw 0x0(%rax,%rax,1)
  10518d:	00 00 00 
  105190:	66 2e 0f 1f 84 00 00 	cs nopw 0x0(%rax,%rax,1)
  105197:	00 00 00 
  10519a:	66 2e 0f 1f 84 00 00 	cs nopw 0x0(%rax,%rax,1)
  1051a1:	00 00 00 
  1051a4:	66 2e 0f 1f 84 00 00 	cs nopw 0x0(%rax,%rax,1)
  1051ab:	00 00 00 
  1051ae:	66 2e 0f 1f 84 00 00 	cs nopw 0x0(%rax,%rax,1)
  1051b5:	00 00 00 
  1051b8:	66 2e 0f 1f 84 00 00 	cs nopw 0x0(%rax,%rax,1)
  1051bf:	00 00 00 
  1051c2:	66 2e 0f 1f 84 00 00 	cs nopw 0x0(%rax,%rax,1)
  1051c9:	00 00 00 
  1051cc:	66 2e 0f 1f 84 00 00 	cs nopw 0x0(%rax,%rax,1)
  1051d3:	00 00 00 
  1051d6:	66 2e 0f 1f 84 00 00 	cs nopw 0x0(%rax,%rax,1)
  1051dd:	00 00 00 
  1051e0:	66 2e 0f 1f 84 00 00 	cs nopw 0x0(%rax,%rax,1)
  1051e7:	00 00 00 
  1051ea:	66 2e 0f 1f 84 00 00 	cs nopw 0x0(%rax,%rax,1)
  1051f1:	00 00 00 
  1051f4:	66 2e 0f 1f 84 00 00 	cs nopw 0x0(%rax,%rax,1)
  1051fb:	00 00 00 
  1051fe:	66 2e 0f 1f 84 00 00 	cs nopw 0x0(%rax,%rax,1)
  105205:	00 00 00 
  105208:	66 2e 0f 1f 84 00 00 	cs nopw 0x0(%rax,%rax,1)
  10520f:	00 00 00 
  105212:	66 2e 0f 1f 84 00 00 	cs nopw 0x0(%rax,%rax,1)
  105219:	00 00 00 
  10521c:	66 2e 0f 1f 84 00 00 	cs nopw 0x0(%rax,%rax,1)
  105223:	00 00 00 
  105226:	66 2e 0f 1f 84 00 00 	cs nopw 0x0(%rax,%rax,1)
  10522d:	00 00 00 
  105230:	66 2e 0f 1f 84 00 00 	cs nopw 0x0(%rax,%rax,1)
  105237:	00 00 00 
  10523a:	66 2e 0f 1f 84 00 00 	cs nopw 0x0(%rax,%rax,1)
  105241:	00 00 00 
  105244:	66 2e 0f 1f 84 00 00 	cs nopw 0x0(%rax,%rax,1)
  10524b:	00 00 00 
  10524e:	66 2e 0f 1f 84 00 00 	cs nopw 0x0(%rax,%rax,1)
  105255:	00 00 00 
  105258:	66 2e 0f 1f 84 00 00 	cs nopw 0x0(%rax,%rax,1)
  10525f:	00 00 00 
  105262:	66 2e 0f 1f 84 00 00 	cs nopw 0x0(%rax,%rax,1)
  105269:	00 00 00 
  10526c:	66 2e 0f 1f 84 00 00 	cs nopw 0x0(%rax,%rax,1)
  105273:	00 00 00 
  105276:	66 2e 0f 1f 84 00 00 	cs nopw 0x0(%rax,%rax,1)
  10527d:	00 00 00 
  105280:	66 2e 0f 1f 84 00 00 	cs nopw 0x0(%rax,%rax,1)
  105287:	00 00 00 
  10528a:	66 2e 0f 1f 84 00 00 	cs nopw 0x0(%rax,%rax,1)
  105291:	00 00 00 
  105294:	66 2e 0f 1f 84 00 00 	cs nopw 0x0(%rax,%rax,1)
  10529b:	00 00 00 
  10529e:	66 2e 0f 1f 84 00 00 	cs nopw 0x0(%rax,%rax,1)
  1052a5:	00 00 00 
  1052a8:	66 2e 0f 1f 84 00 00 	cs nopw 0x0(%rax,%rax,1)
  1052af:	00 00 00 
  1052b2:	66 2e 0f 1f 84 00 00 	cs nopw 0x0(%rax,%rax,1)
  1052b9:	00 00 00 
  1052bc:	66 2e 0f 1f 84 00 00 	cs nopw 0x0(%rax,%rax,1)
  1052c3:	00 00 00 
  1052c6:	66 2e 0f 1f 84 00 00 	cs nopw 0x0(%rax,%rax,1)
  1052cd:	00 00 00 
  1052d0:	66 2e 0f 1f 84 00 00 	cs nopw 0x0(%rax,%rax,1)
  1052d7:	00 00 00 
  1052da:	66 2e 0f 1f 84 00 00 	cs nopw 0x0(%rax,%rax,1)
  1052e1:	00 00 00 
  1052e4:	66 2e 0f 1f 84 00 00 	cs nopw 0x0(%rax,%rax,1)
  1052eb:	00 00 00 
  1052ee:	66 2e 0f 1f 84 00 00 	cs nopw 0x0(%rax,%rax,1)
  1052f5:	00 00 00 
  1052f8:	66 2e 0f 1f 84 00 00 	cs nopw 0x0(%rax,%rax,1)
  1052ff:	00 00 00 
  105302:	66 2e 0f 1f 84 00 00 	cs nopw 0x0(%rax,%rax,1)
  105309:	00 00 00 
  10530c:	66 2e 0f 1f 84 00 00 	cs nopw 0x0(%rax,%rax,1)
  105313:	00 00 00 
  105316:	66 2e 0f 1f 84 00 00 	cs nopw 0x0(%rax,%rax,1)
  10531d:	00 00 00 
  105320:	66 2e 0f 1f 84 00 00 	cs nopw 0x0(%rax,%rax,1)
  105327:	00 00 00 
  10532a:	66 2e 0f 1f 84 00 00 	cs nopw 0x0(%rax,%rax,1)
  105331:	00 00 00 
  105334:	66 2e 0f 1f 84 00 00 	cs nopw 0x0(%rax,%rax,1)
  10533b:	00 00 00 
  10533e:	66 2e 0f 1f 84 00 00 	cs nopw 0x0(%rax,%rax,1)
  105345:	00 00 00 
  105348:	66 2e 0f 1f 84 00 00 	cs nopw 0x0(%rax,%rax,1)
  10534f:	00 00 00 
  105352:	66 2e 0f 1f 84 00 00 	cs nopw 0x0(%rax,%rax,1)
  105359:	00 00 00 
  10535c:	66 2e 0f 1f 84 00 00 	cs nopw 0x0(%rax,%rax,1)
  105363:	00 00 00 
  105366:	66 2e 0f 1f 84 00 00 	cs nopw 0x0(%rax,%rax,1)
  10536d:	00 00 00 
  105370:	66 2e 0f 1f 84 00 00 	cs nopw 0x0(%rax,%rax,1)
  105377:	00 00 00 
  10537a:	66 2e 0f 1f 84 00 00 	cs nopw 0x0(%rax,%rax,1)
  105381:	00 00 00 
  105384:	66 2e 0f 1f 84 00 00 	cs nopw 0x0(%rax,%rax,1)
  10538b:	00 00 00 
  10538e:	66 2e 0f 1f 84 00 00 	cs nopw 0x0(%rax,%rax,1)
  105395:	00 00 00 
  105398:	66 2e 0f 1f 84 00 00 	cs nopw 0x0(%rax,%rax,1)
  10539f:	00 00 00 
  1053a2:	66 2e 0f 1f 84 00 00 	cs nopw 0x0(%rax,%rax,1)
  1053a9:	00 00 00 
  1053ac:	66 2e 0f 1f 84 00 00 	cs nopw 0x0(%rax,%rax,1)
  1053b3:	00 00 00 
  1053b6:	66 2e 0f 1f 84 00 00 	cs nopw 0x0(%rax,%rax,1)
  1053bd:	00 00 00 
  1053c0:	66 2e 0f 1f 84 00 00 	cs nopw 0x0(%rax,%rax,1)
  1053c7:	00 00 00 
  1053ca:	66 2e 0f 1f 84 00 00 	cs nopw 0x0(%rax,%rax,1)
  1053d1:	00 00 00 
  1053d4:	66 2e 0f 1f 84 00 00 	cs nopw 0x0(%rax,%rax,1)
  1053db:	00 00 00 
  1053de:	66 2e 0f 1f 84 00 00 	cs nopw 0x0(%rax,%rax,1)
  1053e5:	00 00 00 
  1053e8:	66 2e 0f 1f 84 00 00 	cs nopw 0x0(%rax,%rax,1)
  1053ef:	00 00 00 
  1053f2:	66 2e 0f 1f 84 00 00 	cs nopw 0x0(%rax,%rax,1)
  1053f9:	00 00 00 
  1053fc:	66 2e 0f 1f 84 00 00 	cs nopw 0x0(%rax,%rax,1)
  105403:	00 00 00 
  105406:	66 2e 0f 1f 84 00 00 	cs nopw 0x0(%rax,%rax,1)
  10540d:	00 00 00 
  105410:	66 2e 0f 1f 84 00 00 	cs nopw 0x0(%rax,%rax,1)
  105417:	00 00 00 
  10541a:	66 2e 0f 1f 84 00 00 	cs nopw 0x0(%rax,%rax,1)
  105421:	00 00 00 
  105424:	66 2e 0f 1f 84 00 00 	cs nopw 0x0(%rax,%rax,1)
  10542b:	00 00 00 
  10542e:	66 2e 0f 1f 84 00 00 	cs nopw 0x0(%rax,%rax,1)
  105435:	00 00 00 
  105438:	66 2e 0f 1f 84 00 00 	cs nopw 0x0(%rax,%rax,1)
  10543f:	00 00 00 
  105442:	66 2e 0f 1f 84 00 00 	cs nopw 0x0(%rax,%rax,1)
  105449:	00 00 00 
  10544c:	66 2e 0f 1f 84 00 00 	cs nopw 0x0(%rax,%rax,1)
  105453:	00 00 00 
  105456:	66 2e 0f 1f 84 00 00 	cs nopw 0x0(%rax,%rax,1)
  10545d:	00 00 00 
  105460:	66 2e 0f 1f 84 00 00 	cs nopw 0x0(%rax,%rax,1)
  105467:	00 00 00 
  10546a:	66 2e 0f 1f 84 00 00 	cs nopw 0x0(%rax,%rax,1)
  105471:	00 00 00 
  105474:	66 2e 0f 1f 84 00 00 	cs nopw 0x0(%rax,%rax,1)
  10547b:	00 00 00 
  10547e:	66 2e 0f 1f 84 00 00 	cs nopw 0x0(%rax,%rax,1)
  105485:	00 00 00 
  105488:	66 2e 0f 1f 84 00 00 	cs nopw 0x0(%rax,%rax,1)
  10548f:	00 00 00 
  105492:	66 2e 0f 1f 84 00 00 	cs nopw 0x0(%rax,%rax,1)
  105499:	00 00 00 
  10549c:	66 2e 0f 1f 84 00 00 	cs nopw 0x0(%rax,%rax,1)
  1054a3:	00 00 00 
  1054a6:	66 2e 0f 1f 84 00 00 	cs nopw 0x0(%rax,%rax,1)
  1054ad:	00 00 00 
  1054b0:	66 2e 0f 1f 84 00 00 	cs nopw 0x0(%rax,%rax,1)
  1054b7:	00 00 00 
  1054ba:	66 2e 0f 1f 84 00 00 	cs nopw 0x0(%rax,%rax,1)
  1054c1:	00 00 00 
  1054c4:	66 2e 0f 1f 84 00 00 	cs nopw 0x0(%rax,%rax,1)
  1054cb:	00 00 00 
  1054ce:	66 2e 0f 1f 84 00 00 	cs nopw 0x0(%rax,%rax,1)
  1054d5:	00 00 00 
  1054d8:	66 2e 0f 1f 84 00 00 	cs nopw 0x0(%rax,%rax,1)
  1054df:	00 00 00 
  1054e2:	66 2e 0f 1f 84 00 00 	cs nopw 0x0(%rax,%rax,1)
  1054e9:	00 00 00 
  1054ec:	66 2e 0f 1f 84 00 00 	cs nopw 0x0(%rax,%rax,1)
  1054f3:	00 00 00 
  1054f6:	66 2e 0f 1f 84 00 00 	cs nopw 0x0(%rax,%rax,1)
  1054fd:	00 00 00 
  105500:	66 2e 0f 1f 84 00 00 	cs nopw 0x0(%rax,%rax,1)
  105507:	00 00 00 
  10550a:	66 2e 0f 1f 84 00 00 	cs nopw 0x0(%rax,%rax,1)
  105511:	00 00 00 
  105514:	66 2e 0f 1f 84 00 00 	cs nopw 0x0(%rax,%rax,1)
  10551b:	00 00 00 
  10551e:	66 2e 0f 1f 84 00 00 	cs nopw 0x0(%rax,%rax,1)
  105525:	00 00 00 
  105528:	66 2e 0f 1f 84 00 00 	cs nopw 0x0(%rax,%rax,1)
  10552f:	00 00 00 
  105532:	66 2e 0f 1f 84 00 00 	cs nopw 0x0(%rax,%rax,1)
  105539:	00 00 00 
  10553c:	66 2e 0f 1f 84 00 00 	cs nopw 0x0(%rax,%rax,1)
  105543:	00 00 00 
  105546:	66 2e 0f 1f 84 00 00 	cs nopw 0x0(%rax,%rax,1)
  10554d:	00 00 00 
  105550:	66 2e 0f 1f 84 00 00 	cs nopw 0x0(%rax,%rax,1)
  105557:	00 00 00 
  10555a:	66 2e 0f 1f 84 00 00 	cs nopw 0x0(%rax,%rax,1)
  105561:	00 00 00 
  105564:	66 2e 0f 1f 84 00 00 	cs nopw 0x0(%rax,%rax,1)
  10556b:	00 00 00 
  10556e:	66 2e 0f 1f 84 00 00 	cs nopw 0x0(%rax,%rax,1)
  105575:	00 00 00 
  105578:	66 2e 0f 1f 84 00 00 	cs nopw 0x0(%rax,%rax,1)
  10557f:	00 00 00 
  105582:	66 2e 0f 1f 84 00 00 	cs nopw 0x0(%rax,%rax,1)
  105589:	00 00 00 
  10558c:	66 2e 0f 1f 84 00 00 	cs nopw 0x0(%rax,%rax,1)
  105593:	00 00 00 
  105596:	66 2e 0f 1f 84 00 00 	cs nopw 0x0(%rax,%rax,1)
  10559d:	00 00 00 
  1055a0:	66 2e 0f 1f 84 00 00 	cs nopw 0x0(%rax,%rax,1)
  1055a7:	00 00 00 
  1055aa:	66 2e 0f 1f 84 00 00 	cs nopw 0x0(%rax,%rax,1)
  1055b1:	00 00 00 
  1055b4:	66 2e 0f 1f 84 00 00 	cs nopw 0x0(%rax,%rax,1)
  1055bb:	00 00 00 
  1055be:	66 2e 0f 1f 84 00 00 	cs nopw 0x0(%rax,%rax,1)
  1055c5:	00 00 00 
  1055c8:	66 2e 0f 1f 84 00 00 	cs nopw 0x0(%rax,%rax,1)
  1055cf:	00 00 00 
  1055d2:	66 2e 0f 1f 84 00 00 	cs nopw 0x0(%rax,%rax,1)
  1055d9:	00 00 00 
  1055dc:	66 2e 0f 1f 84 00 00 	cs nopw 0x0(%rax,%rax,1)
  1055e3:	00 00 00 
  1055e6:	66 2e 0f 1f 84 00 00 	cs nopw 0x0(%rax,%rax,1)
  1055ed:	00 00 00 
  1055f0:	66 2e 0f 1f 84 00 00 	cs nopw 0x0(%rax,%rax,1)
  1055f7:	00 00 00 
  1055fa:	66 2e 0f 1f 84 00 00 	cs nopw 0x0(%rax,%rax,1)
  105601:	00 00 00 
  105604:	66 2e 0f 1f 84 00 00 	cs nopw 0x0(%rax,%rax,1)
  10560b:	00 00 00 
  10560e:	66 2e 0f 1f 84 00 00 	cs nopw 0x0(%rax,%rax,1)
  105615:	00 00 00 
  105618:	66 2e 0f 1f 84 00 00 	cs nopw 0x0(%rax,%rax,1)
  10561f:	00 00 00 
  105622:	66 2e 0f 1f 84 00 00 	cs nopw 0x0(%rax,%rax,1)
  105629:	00 00 00 
  10562c:	66 2e 0f 1f 84 00 00 	cs nopw 0x0(%rax,%rax,1)
  105633:	00 00 00 
  105636:	66 2e 0f 1f 84 00 00 	cs nopw 0x0(%rax,%rax,1)
  10563d:	00 00 00 
  105640:	66 2e 0f 1f 84 00 00 	cs nopw 0x0(%rax,%rax,1)
  105647:	00 00 00 
  10564a:	66 2e 0f 1f 84 00 00 	cs nopw 0x0(%rax,%rax,1)
  105651:	00 00 00 
  105654:	66 2e 0f 1f 84 00 00 	cs nopw 0x0(%rax,%rax,1)
  10565b:	00 00 00 
  10565e:	66 2e 0f 1f 84 00 00 	cs nopw 0x0(%rax,%rax,1)
  105665:	00 00 00 
  105668:	66 2e 0f 1f 84 00 00 	cs nopw 0x0(%rax,%rax,1)
  10566f:	00 00 00 
  105672:	66 2e 0f 1f 84 00 00 	cs nopw 0x0(%rax,%rax,1)
  105679:	00 00 00 
  10567c:	66 2e 0f 1f 84 00 00 	cs nopw 0x0(%rax,%rax,1)
  105683:	00 00 00 
  105686:	66 2e 0f 1f 84 00 00 	cs nopw 0x0(%rax,%rax,1)
  10568d:	00 00 00 
  105690:	66 2e 0f 1f 84 00 00 	cs nopw 0x0(%rax,%rax,1)
  105697:	00 00 00 
  10569a:	66 2e 0f 1f 84 00 00 	cs nopw 0x0(%rax,%rax,1)
  1056a1:	00 00 00 
  1056a4:	66 2e 0f 1f 84 00 00 	cs nopw 0x0(%rax,%rax,1)
  1056ab:	00 00 00 
  1056ae:	66 2e 0f 1f 84 00 00 	cs nopw 0x0(%rax,%rax,1)
  1056b5:	00 00 00 
  1056b8:	66 2e 0f 1f 84 00 00 	cs nopw 0x0(%rax,%rax,1)
  1056bf:	00 00 00 
  1056c2:	66 2e 0f 1f 84 00 00 	cs nopw 0x0(%rax,%rax,1)
  1056c9:	00 00 00 
  1056cc:	66 2e 0f 1f 84 00 00 	cs nopw 0x0(%rax,%rax,1)
  1056d3:	00 00 00 
  1056d6:	66 2e 0f 1f 84 00 00 	cs nopw 0x0(%rax,%rax,1)
  1056dd:	00 00 00 
  1056e0:	66 2e 0f 1f 84 00 00 	cs nopw 0x0(%rax,%rax,1)
  1056e7:	00 00 00 
  1056ea:	66 2e 0f 1f 84 00 00 	cs nopw 0x0(%rax,%rax,1)
  1056f1:	00 00 00 
  1056f4:	66 2e 0f 1f 84 00 00 	cs nopw 0x0(%rax,%rax,1)
  1056fb:	00 00 00 
  1056fe:	66 2e 0f 1f 84 00 00 	cs nopw 0x0(%rax,%rax,1)
  105705:	00 00 00 
  105708:	66 2e 0f 1f 84 00 00 	cs nopw 0x0(%rax,%rax,1)
  10570f:	00 00 00 
  105712:	66 2e 0f 1f 84 00 00 	cs nopw 0x0(%rax,%rax,1)
  105719:	00 00 00 
  10571c:	66 2e 0f 1f 84 00 00 	cs nopw 0x0(%rax,%rax,1)
  105723:	00 00 00 
  105726:	66 2e 0f 1f 84 00 00 	cs nopw 0x0(%rax,%rax,1)
  10572d:	00 00 00 
  105730:	66 2e 0f 1f 84 00 00 	cs nopw 0x0(%rax,%rax,1)
  105737:	00 00 00 
  10573a:	66 2e 0f 1f 84 00 00 	cs nopw 0x0(%rax,%rax,1)
  105741:	00 00 00 
  105744:	66 2e 0f 1f 84 00 00 	cs nopw 0x0(%rax,%rax,1)
  10574b:	00 00 00 
  10574e:	66 2e 0f 1f 84 00 00 	cs nopw 0x0(%rax,%rax,1)
  105755:	00 00 00 
  105758:	66 2e 0f 1f 84 00 00 	cs nopw 0x0(%rax,%rax,1)
  10575f:	00 00 00 
  105762:	66 2e 0f 1f 84 00 00 	cs nopw 0x0(%rax,%rax,1)
  105769:	00 00 00 
  10576c:	66 2e 0f 1f 84 00 00 	cs nopw 0x0(%rax,%rax,1)
  105773:	00 00 00 
  105776:	66 2e 0f 1f 84 00 00 	cs nopw 0x0(%rax,%rax,1)
  10577d:	00 00 00 
  105780:	66 2e 0f 1f 84 00 00 	cs nopw 0x0(%rax,%rax,1)
  105787:	00 00 00 
  10578a:	66 2e 0f 1f 84 00 00 	cs nopw 0x0(%rax,%rax,1)
  105791:	00 00 00 
  105794:	66 2e 0f 1f 84 00 00 	cs nopw 0x0(%rax,%rax,1)
  10579b:	00 00 00 
  10579e:	66 2e 0f 1f 84 00 00 	cs nopw 0x0(%rax,%rax,1)
  1057a5:	00 00 00 
  1057a8:	66 2e 0f 1f 84 00 00 	cs nopw 0x0(%rax,%rax,1)
  1057af:	00 00 00 
  1057b2:	66 2e 0f 1f 84 00 00 	cs nopw 0x0(%rax,%rax,1)
  1057b9:	00 00 00 
  1057bc:	66 2e 0f 1f 84 00 00 	cs nopw 0x0(%rax,%rax,1)
  1057c3:	00 00 00 
  1057c6:	66 2e 0f 1f 84 00 00 	cs nopw 0x0(%rax,%rax,1)
  1057cd:	00 00 00 
  1057d0:	66 2e 0f 1f 84 00 00 	cs nopw 0x0(%rax,%rax,1)
  1057d7:	00 00 00 
  1057da:	66 2e 0f 1f 84 00 00 	cs nopw 0x0(%rax,%rax,1)
  1057e1:	00 00 00 
  1057e4:	66 2e 0f 1f 84 00 00 	cs nopw 0x0(%rax,%rax,1)
  1057eb:	00 00 00 
  1057ee:	66 2e 0f 1f 84 00 00 	cs nopw 0x0(%rax,%rax,1)
  1057f5:	00 00 00 
  1057f8:	66 2e 0f 1f 84 00 00 	cs nopw 0x0(%rax,%rax,1)
  1057ff:	00 00 00 
  105802:	66 2e 0f 1f 84 00 00 	cs nopw 0x0(%rax,%rax,1)
  105809:	00 00 00 
  10580c:	66 2e 0f 1f 84 00 00 	cs nopw 0x0(%rax,%rax,1)
  105813:	00 00 00 
  105816:	66 2e 0f 1f 84 00 00 	cs nopw 0x0(%rax,%rax,1)
  10581d:	00 00 00 
  105820:	66 2e 0f 1f 84 00 00 	cs nopw 0x0(%rax,%rax,1)
  105827:	00 00 00 
  10582a:	66 2e 0f 1f 84 00 00 	cs nopw 0x0(%rax,%rax,1)
  105831:	00 00 00 
  105834:	66 2e 0f 1f 84 00 00 	cs nopw 0x0(%rax,%rax,1)
  10583b:	00 00 00 
  10583e:	66 2e 0f 1f 84 00 00 	cs nopw 0x0(%rax,%rax,1)
  105845:	00 00 00 
  105848:	66 2e 0f 1f 84 00 00 	cs nopw 0x0(%rax,%rax,1)
  10584f:	00 00 00 
  105852:	66 2e 0f 1f 84 00 00 	cs nopw 0x0(%rax,%rax,1)
  105859:	00 00 00 
  10585c:	66 2e 0f 1f 84 00 00 	cs nopw 0x0(%rax,%rax,1)
  105863:	00 00 00 
  105866:	66 2e 0f 1f 84 00 00 	cs nopw 0x0(%rax,%rax,1)
  10586d:	00 00 00 
  105870:	66 2e 0f 1f 84 00 00 	cs nopw 0x0(%rax,%rax,1)
  105877:	00 00 00 
  10587a:	66 2e 0f 1f 84 00 00 	cs nopw 0x0(%rax,%rax,1)
  105881:	00 00 00 
  105884:	66 2e 0f 1f 84 00 00 	cs nopw 0x0(%rax,%rax,1)
  10588b:	00 00 00 
  10588e:	66 2e 0f 1f 84 00 00 	cs nopw 0x0(%rax,%rax,1)
  105895:	00 00 00 
  105898:	66 2e 0f 1f 84 00 00 	cs nopw 0x0(%rax,%rax,1)
  10589f:	00 00 00 
  1058a2:	66 2e 0f 1f 84 00 00 	cs nopw 0x0(%rax,%rax,1)
  1058a9:	00 00 00 
  1058ac:	66 2e 0f 1f 84 00 00 	cs nopw 0x0(%rax,%rax,1)
  1058b3:	00 00 00 
  1058b6:	66 2e 0f 1f 84 00 00 	cs nopw 0x0(%rax,%rax,1)
  1058bd:	00 00 00 
  1058c0:	66 2e 0f 1f 84 00 00 	cs nopw 0x0(%rax,%rax,1)
  1058c7:	00 00 00 
  1058ca:	66 2e 0f 1f 84 00 00 	cs nopw 0x0(%rax,%rax,1)
  1058d1:	00 00 00 
  1058d4:	66 2e 0f 1f 84 00 00 	cs nopw 0x0(%rax,%rax,1)
  1058db:	00 00 00 
  1058de:	66 2e 0f 1f 84 00 00 	cs nopw 0x0(%rax,%rax,1)
  1058e5:	00 00 00 
  1058e8:	66 2e 0f 1f 84 00 00 	cs nopw 0x0(%rax,%rax,1)
  1058ef:	00 00 00 
  1058f2:	66 2e 0f 1f 84 00 00 	cs nopw 0x0(%rax,%rax,1)
  1058f9:	00 00 00 
  1058fc:	66 2e 0f 1f 84 00 00 	cs nopw 0x0(%rax,%rax,1)
  105903:	00 00 00 
  105906:	66 2e 0f 1f 84 00 00 	cs nopw 0x0(%rax,%rax,1)
  10590d:	00 00 00 
  105910:	66 2e 0f 1f 84 00 00 	cs nopw 0x0(%rax,%rax,1)
  105917:	00 00 00 
  10591a:	66 2e 0f 1f 84 00 00 	cs nopw 0x0(%rax,%rax,1)
  105921:	00 00 00 
  105924:	66 2e 0f 1f 84 00 00 	cs nopw 0x0(%rax,%rax,1)
  10592b:	00 00 00 
  10592e:	66 2e 0f 1f 84 00 00 	cs nopw 0x0(%rax,%rax,1)
  105935:	00 00 00 
  105938:	66 2e 0f 1f 84 00 00 	cs nopw 0x0(%rax,%rax,1)
  10593f:	00 00 00 
  105942:	66 2e 0f 1f 84 00 00 	cs nopw 0x0(%rax,%rax,1)
  105949:	00 00 00 
  10594c:	66 2e 0f 1f 84 00 00 	cs nopw 0x0(%rax,%rax,1)
  105953:	00 00 00 
  105956:	66 2e 0f 1f 84 00 00 	cs nopw 0x0(%rax,%rax,1)
  10595d:	00 00 00 
  105960:	66 2e 0f 1f 84 00 00 	cs nopw 0x0(%rax,%rax,1)
  105967:	00 00 00 
  10596a:	66 2e 0f 1f 84 00 00 	cs nopw 0x0(%rax,%rax,1)
  105971:	00 00 00 
  105974:	66 2e 0f 1f 84 00 00 	cs nopw 0x0(%rax,%rax,1)
  10597b:	00 00 00 
  10597e:	66 2e 0f 1f 84 00 00 	cs nopw 0x0(%rax,%rax,1)
  105985:	00 00 00 
  105988:	66 2e 0f 1f 84 00 00 	cs nopw 0x0(%rax,%rax,1)
  10598f:	00 00 00 
  105992:	66 2e 0f 1f 84 00 00 	cs nopw 0x0(%rax,%rax,1)
  105999:	00 00 00 
  10599c:	66 2e 0f 1f 84 00 00 	cs nopw 0x0(%rax,%rax,1)
  1059a3:	00 00 00 
  1059a6:	66 2e 0f 1f 84 00 00 	cs nopw 0x0(%rax,%rax,1)
  1059ad:	00 00 00 
  1059b0:	66 2e 0f 1f 84 00 00 	cs nopw 0x0(%rax,%rax,1)
  1059b7:	00 00 00 
  1059ba:	66 2e 0f 1f 84 00 00 	cs nopw 0x0(%rax,%rax,1)
  1059c1:	00 00 00 
  1059c4:	66 2e 0f 1f 84 00 00 	cs nopw 0x0(%rax,%rax,1)
  1059cb:	00 00 00 
  1059ce:	66 2e 0f 1f 84 00 00 	cs nopw 0x0(%rax,%rax,1)
  1059d5:	00 00 00 
  1059d8:	66 2e 0f 1f 84 00 00 	cs nopw 0x0(%rax,%rax,1)
  1059df:	00 00 00 
  1059e2:	66 2e 0f 1f 84 00 00 	cs nopw 0x0(%rax,%rax,1)
  1059e9:	00 00 00 
  1059ec:	66 2e 0f 1f 84 00 00 	cs nopw 0x0(%rax,%rax,1)
  1059f3:	00 00 00 
  1059f6:	66 2e 0f 1f 84 00 00 	cs nopw 0x0(%rax,%rax,1)
  1059fd:	00 00 00 
  105a00:	66 2e 0f 1f 84 00 00 	cs nopw 0x0(%rax,%rax,1)
  105a07:	00 00 00 
  105a0a:	66 2e 0f 1f 84 00 00 	cs nopw 0x0(%rax,%rax,1)
  105a11:	00 00 00 
  105a14:	66 2e 0f 1f 84 00 00 	cs nopw 0x0(%rax,%rax,1)
  105a1b:	00 00 00 
  105a1e:	66 2e 0f 1f 84 00 00 	cs nopw 0x0(%rax,%rax,1)
  105a25:	00 00 00 
  105a28:	66 2e 0f 1f 84 00 00 	cs nopw 0x0(%rax,%rax,1)
  105a2f:	00 00 00 
  105a32:	66 2e 0f 1f 84 00 00 	cs nopw 0x0(%rax,%rax,1)
  105a39:	00 00 00 
  105a3c:	66 2e 0f 1f 84 00 00 	cs nopw 0x0(%rax,%rax,1)
  105a43:	00 00 00 
  105a46:	66 2e 0f 1f 84 00 00 	cs nopw 0x0(%rax,%rax,1)
  105a4d:	00 00 00 
  105a50:	66 2e 0f 1f 84 00 00 	cs nopw 0x0(%rax,%rax,1)
  105a57:	00 00 00 
  105a5a:	66 2e 0f 1f 84 00 00 	cs nopw 0x0(%rax,%rax,1)
  105a61:	00 00 00 
  105a64:	66 2e 0f 1f 84 00 00 	cs nopw 0x0(%rax,%rax,1)
  105a6b:	00 00 00 
  105a6e:	66 2e 0f 1f 84 00 00 	cs nopw 0x0(%rax,%rax,1)
  105a75:	00 00 00 
  105a78:	66 2e 0f 1f 84 00 00 	cs nopw 0x0(%rax,%rax,1)
  105a7f:	00 00 00 
  105a82:	66 2e 0f 1f 84 00 00 	cs nopw 0x0(%rax,%rax,1)
  105a89:	00 00 00 
  105a8c:	66 2e 0f 1f 84 00 00 	cs nopw 0x0(%rax,%rax,1)
  105a93:	00 00 00 
  105a96:	66 2e 0f 1f 84 00 00 	cs nopw 0x0(%rax,%rax,1)
  105a9d:	00 00 00 
  105aa0:	66 2e 0f 1f 84 00 00 	cs nopw 0x0(%rax,%rax,1)
  105aa7:	00 00 00 
  105aaa:	66 2e 0f 1f 84 00 00 	cs nopw 0x0(%rax,%rax,1)
  105ab1:	00 00 00 
  105ab4:	66 2e 0f 1f 84 00 00 	cs nopw 0x0(%rax,%rax,1)
  105abb:	00 00 00 
  105abe:	66 2e 0f 1f 84 00 00 	cs nopw 0x0(%rax,%rax,1)
  105ac5:	00 00 00 
  105ac8:	66 2e 0f 1f 84 00 00 	cs nopw 0x0(%rax,%rax,1)
  105acf:	00 00 00 
  105ad2:	66 2e 0f 1f 84 00 00 	cs nopw 0x0(%rax,%rax,1)
  105ad9:	00 00 00 
  105adc:	66 2e 0f 1f 84 00 00 	cs nopw 0x0(%rax,%rax,1)
  105ae3:	00 00 00 
  105ae6:	66 2e 0f 1f 84 00 00 	cs nopw 0x0(%rax,%rax,1)
  105aed:	00 00 00 
  105af0:	66 2e 0f 1f 84 00 00 	cs nopw 0x0(%rax,%rax,1)
  105af7:	00 00 00 
  105afa:	66 2e 0f 1f 84 00 00 	cs nopw 0x0(%rax,%rax,1)
  105b01:	00 00 00 
  105b04:	66 2e 0f 1f 84 00 00 	cs nopw 0x0(%rax,%rax,1)
  105b0b:	00 00 00 
  105b0e:	66 2e 0f 1f 84 00 00 	cs nopw 0x0(%rax,%rax,1)
  105b15:	00 00 00 
  105b18:	66 2e 0f 1f 84 00 00 	cs nopw 0x0(%rax,%rax,1)
  105b1f:	00 00 00 
  105b22:	66 2e 0f 1f 84 00 00 	cs nopw 0x0(%rax,%rax,1)
  105b29:	00 00 00 
  105b2c:	66 2e 0f 1f 84 00 00 	cs nopw 0x0(%rax,%rax,1)
  105b33:	00 00 00 
  105b36:	66 2e 0f 1f 84 00 00 	cs nopw 0x0(%rax,%rax,1)
  105b3d:	00 00 00 
  105b40:	66 2e 0f 1f 84 00 00 	cs nopw 0x0(%rax,%rax,1)
  105b47:	00 00 00 
  105b4a:	66 2e 0f 1f 84 00 00 	cs nopw 0x0(%rax,%rax,1)
  105b51:	00 00 00 
  105b54:	66 2e 0f 1f 84 00 00 	cs nopw 0x0(%rax,%rax,1)
  105b5b:	00 00 00 
  105b5e:	66 2e 0f 1f 84 00 00 	cs nopw 0x0(%rax,%rax,1)
  105b65:	00 00 00 
  105b68:	66 2e 0f 1f 84 00 00 	cs nopw 0x0(%rax,%rax,1)
  105b6f:	00 00 00 
  105b72:	66 2e 0f 1f 84 00 00 	cs nopw 0x0(%rax,%rax,1)
  105b79:	00 00 00 
  105b7c:	66 2e 0f 1f 84 00 00 	cs nopw 0x0(%rax,%rax,1)
  105b83:	00 00 00 
  105b86:	66 2e 0f 1f 84 00 00 	cs nopw 0x0(%rax,%rax,1)
  105b8d:	00 00 00 
  105b90:	66 2e 0f 1f 84 00 00 	cs nopw 0x0(%rax,%rax,1)
  105b97:	00 00 00 
  105b9a:	66 2e 0f 1f 84 00 00 	cs nopw 0x0(%rax,%rax,1)
  105ba1:	00 00 00 
  105ba4:	66 2e 0f 1f 84 00 00 	cs nopw 0x0(%rax,%rax,1)
  105bab:	00 00 00 
  105bae:	66 2e 0f 1f 84 00 00 	cs nopw 0x0(%rax,%rax,1)
  105bb5:	00 00 00 
  105bb8:	66 2e 0f 1f 84 00 00 	cs nopw 0x0(%rax,%rax,1)
  105bbf:	00 00 00 
  105bc2:	66 2e 0f 1f 84 00 00 	cs nopw 0x0(%rax,%rax,1)
  105bc9:	00 00 00 
  105bcc:	66 2e 0f 1f 84 00 00 	cs nopw 0x0(%rax,%rax,1)
  105bd3:	00 00 00 
  105bd6:	66 2e 0f 1f 84 00 00 	cs nopw 0x0(%rax,%rax,1)
  105bdd:	00 00 00 
  105be0:	66 2e 0f 1f 84 00 00 	cs nopw 0x0(%rax,%rax,1)
  105be7:	00 00 00 
  105bea:	66 2e 0f 1f 84 00 00 	cs nopw 0x0(%rax,%rax,1)
  105bf1:	00 00 00 
  105bf4:	66 2e 0f 1f 84 00 00 	cs nopw 0x0(%rax,%rax,1)
  105bfb:	00 00 00 
  105bfe:	66 2e 0f 1f 84 00 00 	cs nopw 0x0(%rax,%rax,1)
  105c05:	00 00 00 
  105c08:	66 2e 0f 1f 84 00 00 	cs nopw 0x0(%rax,%rax,1)
  105c0f:	00 00 00 
  105c12:	66 2e 0f 1f 84 00 00 	cs nopw 0x0(%rax,%rax,1)
  105c19:	00 00 00 
  105c1c:	66 2e 0f 1f 84 00 00 	cs nopw 0x0(%rax,%rax,1)
  105c23:	00 00 00 
  105c26:	66 2e 0f 1f 84 00 00 	cs nopw 0x0(%rax,%rax,1)
  105c2d:	00 00 00 
  105c30:	66 2e 0f 1f 84 00 00 	cs nopw 0x0(%rax,%rax,1)
  105c37:	00 00 00 
  105c3a:	66 2e 0f 1f 84 00 00 	cs nopw 0x0(%rax,%rax,1)
  105c41:	00 00 00 
  105c44:	66 2e 0f 1f 84 00 00 	cs nopw 0x0(%rax,%rax,1)
  105c4b:	00 00 00 
  105c4e:	66 2e 0f 1f 84 00 00 	cs nopw 0x0(%rax,%rax,1)
  105c55:	00 00 00 
  105c58:	66 2e 0f 1f 84 00 00 	cs nopw 0x0(%rax,%rax,1)
  105c5f:	00 00 00 
  105c62:	66 2e 0f 1f 84 00 00 	cs nopw 0x0(%rax,%rax,1)
  105c69:	00 00 00 
  105c6c:	66 2e 0f 1f 84 00 00 	cs nopw 0x0(%rax,%rax,1)
  105c73:	00 00 00 
  105c76:	66 2e 0f 1f 84 00 00 	cs nopw 0x0(%rax,%rax,1)
  105c7d:	00 00 00 
  105c80:	66 2e 0f 1f 84 00 00 	cs nopw 0x0(%rax,%rax,1)
  105c87:	00 00 00 
  105c8a:	66 2e 0f 1f 84 00 00 	cs nopw 0x0(%rax,%rax,1)
  105c91:	00 00 00 
  105c94:	66 2e 0f 1f 84 00 00 	cs nopw 0x0(%rax,%rax,1)
  105c9b:	00 00 00 
  105c9e:	66 2e 0f 1f 84 00 00 	cs nopw 0x0(%rax,%rax,1)
  105ca5:	00 00 00 
  105ca8:	66 2e 0f 1f 84 00 00 	cs nopw 0x0(%rax,%rax,1)
  105caf:	00 00 00 
  105cb2:	66 2e 0f 1f 84 00 00 	cs nopw 0x0(%rax,%rax,1)
  105cb9:	00 00 00 
  105cbc:	66 2e 0f 1f 84 00 00 	cs nopw 0x0(%rax,%rax,1)
  105cc3:	00 00 00 
  105cc6:	66 2e 0f 1f 84 00 00 	cs nopw 0x0(%rax,%rax,1)
  105ccd:	00 00 00 
  105cd0:	66 2e 0f 1f 84 00 00 	cs nopw 0x0(%rax,%rax,1)
  105cd7:	00 00 00 
  105cda:	66 2e 0f 1f 84 00 00 	cs nopw 0x0(%rax,%rax,1)
  105ce1:	00 00 00 
  105ce4:	66 2e 0f 1f 84 00 00 	cs nopw 0x0(%rax,%rax,1)
  105ceb:	00 00 00 
  105cee:	66 2e 0f 1f 84 00 00 	cs nopw 0x0(%rax,%rax,1)
  105cf5:	00 00 00 
  105cf8:	66 2e 0f 1f 84 00 00 	cs nopw 0x0(%rax,%rax,1)
  105cff:	00 00 00 
  105d02:	66 2e 0f 1f 84 00 00 	cs nopw 0x0(%rax,%rax,1)
  105d09:	00 00 00 
  105d0c:	66 2e 0f 1f 84 00 00 	cs nopw 0x0(%rax,%rax,1)
  105d13:	00 00 00 
  105d16:	66 2e 0f 1f 84 00 00 	cs nopw 0x0(%rax,%rax,1)
  105d1d:	00 00 00 
  105d20:	66 2e 0f 1f 84 00 00 	cs nopw 0x0(%rax,%rax,1)
  105d27:	00 00 00 
  105d2a:	66 2e 0f 1f 84 00 00 	cs nopw 0x0(%rax,%rax,1)
  105d31:	00 00 00 
  105d34:	66 2e 0f 1f 84 00 00 	cs nopw 0x0(%rax,%rax,1)
  105d3b:	00 00 00 
  105d3e:	66 2e 0f 1f 84 00 00 	cs nopw 0x0(%rax,%rax,1)
  105d45:	00 00 00 
  105d48:	66 2e 0f 1f 84 00 00 	cs nopw 0x0(%rax,%rax,1)
  105d4f:	00 00 00 
  105d52:	66 2e 0f 1f 84 00 00 	cs nopw 0x0(%rax,%rax,1)
  105d59:	00 00 00 
  105d5c:	66 2e 0f 1f 84 00 00 	cs nopw 0x0(%rax,%rax,1)
  105d63:	00 00 00 
  105d66:	66 2e 0f 1f 84 00 00 	cs nopw 0x0(%rax,%rax,1)
  105d6d:	00 00 00 
  105d70:	66 2e 0f 1f 84 00 00 	cs nopw 0x0(%rax,%rax,1)
  105d77:	00 00 00 
  105d7a:	66 2e 0f 1f 84 00 00 	cs nopw 0x0(%rax,%rax,1)
  105d81:	00 00 00 
  105d84:	66 2e 0f 1f 84 00 00 	cs nopw 0x0(%rax,%rax,1)
  105d8b:	00 00 00 
  105d8e:	66 2e 0f 1f 84 00 00 	cs nopw 0x0(%rax,%rax,1)
  105d95:	00 00 00 
  105d98:	66 2e 0f 1f 84 00 00 	cs nopw 0x0(%rax,%rax,1)
  105d9f:	00 00 00 
  105da2:	66 2e 0f 1f 84 00 00 	cs nopw 0x0(%rax,%rax,1)
  105da9:	00 00 00 
  105dac:	66 2e 0f 1f 84 00 00 	cs nopw 0x0(%rax,%rax,1)
  105db3:	00 00 00 
  105db6:	66 2e 0f 1f 84 00 00 	cs nopw 0x0(%rax,%rax,1)
  105dbd:	00 00 00 
  105dc0:	66 2e 0f 1f 84 00 00 	cs nopw 0x0(%rax,%rax,1)
  105dc7:	00 00 00 
  105dca:	66 2e 0f 1f 84 00 00 	cs nopw 0x0(%rax,%rax,1)
  105dd1:	00 00 00 
  105dd4:	66 2e 0f 1f 84 00 00 	cs nopw 0x0(%rax,%rax,1)
  105ddb:	00 00 00 
  105dde:	66 2e 0f 1f 84 00 00 	cs nopw 0x0(%rax,%rax,1)
  105de5:	00 00 00 
  105de8:	66 2e 0f 1f 84 00 00 	cs nopw 0x0(%rax,%rax,1)
  105def:	00 00 00 
  105df2:	66 2e 0f 1f 84 00 00 	cs nopw 0x0(%rax,%rax,1)
  105df9:	00 00 00 
  105dfc:	66 2e 0f 1f 84 00 00 	cs nopw 0x0(%rax,%rax,1)
  105e03:	00 00 00 
  105e06:	66 2e 0f 1f 84 00 00 	cs nopw 0x0(%rax,%rax,1)
  105e0d:	00 00 00 
  105e10:	66 2e 0f 1f 84 00 00 	cs nopw 0x0(%rax,%rax,1)
  105e17:	00 00 00 
  105e1a:	66 2e 0f 1f 84 00 00 	cs nopw 0x0(%rax,%rax,1)
  105e21:	00 00 00 
  105e24:	66 2e 0f 1f 84 00 00 	cs nopw 0x0(%rax,%rax,1)
  105e2b:	00 00 00 
  105e2e:	66 2e 0f 1f 84 00 00 	cs nopw 0x0(%rax,%rax,1)
  105e35:	00 00 00 
  105e38:	66 2e 0f 1f 84 00 00 	cs nopw 0x0(%rax,%rax,1)
  105e3f:	00 00 00 
  105e42:	66 2e 0f 1f 84 00 00 	cs nopw 0x0(%rax,%rax,1)
  105e49:	00 00 00 
  105e4c:	66 2e 0f 1f 84 00 00 	cs nopw 0x0(%rax,%rax,1)
  105e53:	00 00 00 
  105e56:	66 2e 0f 1f 84 00 00 	cs nopw 0x0(%rax,%rax,1)
  105e5d:	00 00 00 
  105e60:	66 2e 0f 1f 84 00 00 	cs nopw 0x0(%rax,%rax,1)
  105e67:	00 00 00 
  105e6a:	66 2e 0f 1f 84 00 00 	cs nopw 0x0(%rax,%rax,1)
  105e71:	00 00 00 
  105e74:	66 2e 0f 1f 84 00 00 	cs nopw 0x0(%rax,%rax,1)
  105e7b:	00 00 00 
  105e7e:	66 2e 0f 1f 84 00 00 	cs nopw 0x0(%rax,%rax,1)
  105e85:	00 00 00 
  105e88:	66 2e 0f 1f 84 00 00 	cs nopw 0x0(%rax,%rax,1)
  105e8f:	00 00 00 
  105e92:	66 2e 0f 1f 84 00 00 	cs nopw 0x0(%rax,%rax,1)
  105e99:	00 00 00 
  105e9c:	66 2e 0f 1f 84 00 00 	cs nopw 0x0(%rax,%rax,1)
  105ea3:	00 00 00 
  105ea6:	66 2e 0f 1f 84 00 00 	cs nopw 0x0(%rax,%rax,1)
  105ead:	00 00 00 
  105eb0:	66 2e 0f 1f 84 00 00 	cs nopw 0x0(%rax,%rax,1)
  105eb7:	00 00 00 
  105eba:	66 2e 0f 1f 84 00 00 	cs nopw 0x0(%rax,%rax,1)
  105ec1:	00 00 00 
  105ec4:	66 2e 0f 1f 84 00 00 	cs nopw 0x0(%rax,%rax,1)
  105ecb:	00 00 00 
  105ece:	66 2e 0f 1f 84 00 00 	cs nopw 0x0(%rax,%rax,1)
  105ed5:	00 00 00 
  105ed8:	66 2e 0f 1f 84 00 00 	cs nopw 0x0(%rax,%rax,1)
  105edf:	00 00 00 
  105ee2:	66 2e 0f 1f 84 00 00 	cs nopw 0x0(%rax,%rax,1)
  105ee9:	00 00 00 
  105eec:	66 2e 0f 1f 84 00 00 	cs nopw 0x0(%rax,%rax,1)
  105ef3:	00 00 00 
  105ef6:	66 2e 0f 1f 84 00 00 	cs nopw 0x0(%rax,%rax,1)
  105efd:	00 00 00 
  105f00:	66 2e 0f 1f 84 00 00 	cs nopw 0x0(%rax,%rax,1)
  105f07:	00 00 00 
  105f0a:	66 2e 0f 1f 84 00 00 	cs nopw 0x0(%rax,%rax,1)
  105f11:	00 00 00 
  105f14:	66 2e 0f 1f 84 00 00 	cs nopw 0x0(%rax,%rax,1)
  105f1b:	00 00 00 
  105f1e:	66 2e 0f 1f 84 00 00 	cs nopw 0x0(%rax,%rax,1)
  105f25:	00 00 00 
  105f28:	66 2e 0f 1f 84 00 00 	cs nopw 0x0(%rax,%rax,1)
  105f2f:	00 00 00 
  105f32:	66 2e 0f 1f 84 00 00 	cs nopw 0x0(%rax,%rax,1)
  105f39:	00 00 00 
  105f3c:	66 2e 0f 1f 84 00 00 	cs nopw 0x0(%rax,%rax,1)
  105f43:	00 00 00 
  105f46:	66 2e 0f 1f 84 00 00 	cs nopw 0x0(%rax,%rax,1)
  105f4d:	00 00 00 
  105f50:	66 2e 0f 1f 84 00 00 	cs nopw 0x0(%rax,%rax,1)
  105f57:	00 00 00 
  105f5a:	66 2e 0f 1f 84 00 00 	cs nopw 0x0(%rax,%rax,1)
  105f61:	00 00 00 
  105f64:	66 2e 0f 1f 84 00 00 	cs nopw 0x0(%rax,%rax,1)
  105f6b:	00 00 00 
  105f6e:	66 2e 0f 1f 84 00 00 	cs nopw 0x0(%rax,%rax,1)
  105f75:	00 00 00 
  105f78:	66 2e 0f 1f 84 00 00 	cs nopw 0x0(%rax,%rax,1)
  105f7f:	00 00 00 
  105f82:	66 2e 0f 1f 84 00 00 	cs nopw 0x0(%rax,%rax,1)
  105f89:	00 00 00 
  105f8c:	66 2e 0f 1f 84 00 00 	cs nopw 0x0(%rax,%rax,1)
  105f93:	00 00 00 
  105f96:	66 2e 0f 1f 84 00 00 	cs nopw 0x0(%rax,%rax,1)
  105f9d:	00 00 00 
  105fa0:	66 2e 0f 1f 84 00 00 	cs nopw 0x0(%rax,%rax,1)
  105fa7:	00 00 00 
  105faa:	66 2e 0f 1f 84 00 00 	cs nopw 0x0(%rax,%rax,1)
  105fb1:	00 00 00 
  105fb4:	66 2e 0f 1f 84 00 00 	cs nopw 0x0(%rax,%rax,1)
  105fbb:	00 00 00 
  105fbe:	66 2e 0f 1f 84 00 00 	cs nopw 0x0(%rax,%rax,1)
  105fc5:	00 00 00 
  105fc8:	66 2e 0f 1f 84 00 00 	cs nopw 0x0(%rax,%rax,1)
  105fcf:	00 00 00 
  105fd2:	66 2e 0f 1f 84 00 00 	cs nopw 0x0(%rax,%rax,1)
  105fd9:	00 00 00 
  105fdc:	66 2e 0f 1f 84 00 00 	cs nopw 0x0(%rax,%rax,1)
  105fe3:	00 00 00 
  105fe6:	66 2e 0f 1f 84 00 00 	cs nopw 0x0(%rax,%rax,1)
  105fed:	00 00 00 
  105ff0:	66 2e 0f 1f 84 00 00 	cs nopw 0x0(%rax,%rax,1)
  105ff7:	00 00 00 
  105ffa:	66 0f 1f 44 00 00    	nopw   0x0(%rax,%rax,1)

0000000000106000 <dummy_page>:
	...

000000000010a000 <_start>:
  10a000:	bc 20 f0 11 01       	mov    $0x111f020,%esp
  10a005:	a3 a4 50 10 00 89 1d 	movabs %eax,0x50ac1d89001050a4
  10a00c:	ac 50 
  10a00e:	10 00                	adc    %al,(%rax)
  10a010:	b9 80 00 00 c0       	mov    $0xc0000080,%ecx
  10a015:	0f 32                	rdmsr
  10a017:	0d 00 01 00 00       	or     $0x100,%eax
  10a01c:	0f 30                	wrmsr
  10a01e:	b8 00 70 10 00       	mov    $0x107000,%eax
  10a023:	83 c8 03             	or     $0x3,%eax
  10a026:	a3 00 60 10 00 b8 00 	movabs %eax,0x108000b800106000
  10a02d:	80 10 
  10a02f:	00 83 c8 03 a3 00    	add    %al,0xa303c8(%rbx)
  10a035:	70 10                	jo     10a047 <_start+0x47>
  10a037:	00 b9 00 00 00 00    	add    %bh,0x0(%rcx)
  10a03d:	bf 00 80 10 00       	mov    $0x108000,%edi
  10a042:	89 c8                	mov    %ecx,%eax
  10a044:	0d 83 00 00 00       	or     $0x83,%eax
  10a049:	89 07                	mov    %eax,(%rdi)
  10a04b:	81 c1 00 00 20 00    	add    $0x200000,%ecx
  10a051:	83 c7 08             	add    $0x8,%edi
  10a054:	81 f9 00 00 00 08    	cmp    $0x8000000,%ecx
  10a05a:	75 e6                	jne    10a042 <_start+0x42>
  10a05c:	0f 20 e0             	mov    %cr4,%rax
  10a05f:	83 c8 20             	or     $0x20,%eax
  10a062:	0f 22 e0             	mov    %rax,%cr4
  10a065:	ba 00 60 10 00       	mov    $0x106000,%edx
  10a06a:	0f 22 da             	mov    %rdx,%cr3
  10a06d:	0f 20 c3             	mov    %cr0,%rbx
  10a070:	81 cb 01 00 00 80    	or     $0x80000001,%ebx
  10a076:	0f 22 c3             	mov    %rbx,%cr0
  10a079:	ba 00 50 10 00       	mov    $0x105000,%edx
  10a07e:	66 89 15 9a 50 10 00 	mov    %dx,0x10509a(%rip)        # 20f11f <phys_mem_map+0x10111f>
  10a085:	c1 ea 10             	shr    $0x10,%edx
  10a088:	88 15 9c 50 10 00    	mov    %dl,0x10509c(%rip)        # 20f12a <phys_mem_map+0x10112a>
  10a08e:	c1 ea 08             	shr    $0x8,%edx
  10a091:	88 15 9f 50 10 00    	mov    %dl,0x10509f(%rip)        # 20f136 <phys_mem_map+0x101136>
  10a097:	c1 ea 08             	shr    $0x8,%edx
  10a09a:	66 89 15 a0 50 10 00 	mov    %dx,0x1050a0(%rip)        # 20f141 <phys_mem_map+0x101141>
  10a0a1:	0f 01 15 64 50 10 00 	lgdt   0x105064(%rip)        # 20f10c <phys_mem_map+0x10110c>
  10a0a8:	66 ba 10 00          	mov    $0x10,%dx
  10a0ac:	8e da                	mov    %edx,%ds
  10a0ae:	8e c2                	mov    %edx,%es
  10a0b0:	8e e2                	mov    %edx,%fs
  10a0b2:	8e ea                	mov    %edx,%gs
  10a0b4:	8e d2                	mov    %edx,%ss
  10a0b6:	6a 10                	push   $0x10
  10a0b8:	6a 08                	push   $0x8
  10a0ba:	68 c0 a0 10 00       	push   $0x10a0c0
  10a0bf:	cf                   	iret
  10a0c0:	0f 20 c0             	mov    %cr0,%rax
  10a0c3:	48 0f ba f0 02       	btr    $0x2,%rax
  10a0c8:	0f 22 c0             	mov    %rax,%cr0
  10a0cb:	0f 20 e0             	mov    %cr4,%rax
  10a0ce:	48 0f ba e8 09       	bts    $0x9,%rax
  10a0d3:	48 0f ba e8 0a       	bts    $0xa,%rax
  10a0d8:	0f 22 e0             	mov    %rax,%cr4
  10a0db:	48 8b 3c 25 a4 50 10 	mov    0x1050a4,%rdi
  10a0e2:	00 
  10a0e3:	48 8b 34 25 ac 50 10 	mov    0x1050ac,%rsi
  10a0ea:	00 
  10a0eb:	e8 20 89 ff ff       	call   102a10 <krnl_main>
  10a0f0:	eb fe                	jmp    10a0f0 <_start+0xf0>
  10a0f2:	66 90                	xchg   %ax,%ax

000000000010a0f4 <tmp_r15>:
	...

000000000010a0fc <rip_save>:
	...

000000000010a104 <idt_save_regs>:
  10a104:	50                   	push   %rax
  10a105:	57                   	push   %rdi
  10a106:	56                   	push   %rsi
  10a107:	52                   	push   %rdx
  10a108:	51                   	push   %rcx
  10a109:	41 50                	push   %r8
  10a10b:	41 51                	push   %r9
  10a10d:	41 52                	push   %r10
  10a10f:	41 53                	push   %r11
  10a111:	eb e9                	jmp    10a0fc <rip_save>

000000000010a113 <idt_load_regs>:
  10a113:	41 5b                	pop    %r11
  10a115:	41 5a                	pop    %r10
  10a117:	41 59                	pop    %r9
  10a119:	41 58                	pop    %r8
  10a11b:	59                   	pop    %rcx
  10a11c:	5a                   	pop    %rdx
  10a11d:	5e                   	pop    %rsi
  10a11e:	5f                   	pop    %rdi
  10a11f:	58                   	pop    %rax
  10a120:	eb da                	jmp    10a0fc <rip_save>

000000000010a122 <idt_timer_handler_s>:
  10a122:	eb fe                	jmp    10a122 <idt_timer_handler_s>
  10a124:	48 c7 04 25 fc a0 10 	movq   $0x10a132,0x10a0fc
  10a12b:	00 32 a1 10 00 
  10a130:	eb d2                	jmp    10a104 <idt_save_regs>
  10a132:	b0 20                	mov    $0x20,%al
  10a134:	e6 20                	out    %al,$0x20
  10a136:	48 c7 04 25 fc a0 10 	movq   $0x10a144,0x10a0fc
  10a13d:	00 44 a1 10 00 
  10a142:	eb cf                	jmp    10a113 <idt_load_regs>
  10a144:	eb fe                	jmp    10a144 <idt_timer_handler_s+0x22>
  10a146:	48 cf                	iretq

000000000010a148 <idt_pagefault_handler_s>:
  10a148:	4c 89 3c 25 f4 a0 10 	mov    %r15,0x10a0f4
  10a14f:	00 
  10a150:	41 0f 20 d7          	mov    %cr2,%r15
  10a154:	41 57                	push   %r15
  10a156:	4c 8b 3c 25 f4 a0 10 	mov    0x10a0f4,%r15
  10a15d:	00 
  10a15e:	41 57                	push   %r15
  10a160:	41 56                	push   %r14
  10a162:	41 55                	push   %r13
  10a164:	41 54                	push   %r12
  10a166:	41 53                	push   %r11
  10a168:	41 52                	push   %r10
  10a16a:	55                   	push   %rbp
  10a16b:	54                   	push   %rsp
  10a16c:	53                   	push   %rbx
  10a16d:	50                   	push   %rax
  10a16e:	e8 8d 82 ff ff       	call   102400 <idt_pagefault_handler>
  10a173:	eb fe                	jmp    10a173 <idt_pagefault_handler_s+0x2b>

Disassembly of section .rodata:

000000000010b000 <font_bits>:
  10b000:	78 81                	js     10af83 <idt_pagefault_handler_s+0xe3b>
  10b002:	81 99 e7 e7 e7 ff 76 	sbbl   $0x7e76,-0x181819(%rcx)
  10b009:	7e 00 00 
  10b00c:	c3                   	ret
  10b00d:	c3                   	ret
  10b00e:	c3                   	ret
  10b00f:	ff 6e 5a             	ljmp   *0x5a(%rsi)
  10b012:	24 00                	and    $0x0,%al
  10b014:	81 a5 81 e7 1e 7e 00 	andl   $0x0,0x7e1ee781(%rbp)
  10b01b:	00 00 00 
  10b01e:	00 c3                	add    %al,%bl
  10b020:	fe                   	(bad)
  10b021:	5a                   	pop    %rdx
  10b022:	24 81                	and    $0x81,%al
  10b024:	00 00                	add    %al,(%rax)
  10b026:	00 c3                	add    %al,%bl
  10b028:	fe                   	(bad)
  10b029:	66 18 81 81 a5 a5 e7 	data16 sbb %al,-0x185a5a7f(%rcx)
  10b030:	fe                   	(bad)
  10b031:	7e 00                	jle    10b033 <font_bits+0x33>
  10b033:	c3                   	ret
  10b034:	c3                   	ret
  10b035:	c3                   	ret
  10b036:	c3                   	ret
  10b037:	ff 00                	incl   (%rax)
  10b039:	81 81 e7 e7 c3 c3 ff 	addl   $0xff00ff,-0x3c3c1819(%rcx)
  10b040:	00 ff 00 
  10b043:	0f e3 87 03 66 00 e7 	pavgw  -0x18ff99fd(%rdi),%mm0
  10b04a:	18 1f                	sbb    %bl,(%rdi)
  10b04c:	c9                   	leave
  10b04d:	27                   	(bad)
  10b04e:	7b bd                	jnp    10b00d <font_bits+0xd>
  10b050:	18 db                	sbb    %bl,%bl
  10b052:	24 0f                	and    $0xf,%al
  10b054:	c9                   	leave
  10b055:	67 7b e7             	addr32 jnp 10b03f <font_bits+0x3f>
  10b058:	3c bd                	cmp    $0xbd,%al
  10b05a:	42                   	rex.X
  10b05b:	41 e3 e7             	rex.B jrcxz 10b045 <font_bits+0x45>
  10b05e:	7b 42                	jnp    10b0a2 <font_bits+0xa2>
  10b060:	3c bd                	cmp    $0xbd,%al
  10b062:	42 e4 f7             	rex.X in $0xf7,%al
  10b065:	e7 7b                	out    %eax,$0x7b
  10b067:	42 18 db             	rex.X sbb %bl,%bl
  10b06a:	24 ee                	and    $0xee,%al
  10b06c:	f7 e1                	mul    %ecx
  10b06e:	39 e7                	cmp    %esp,%edi
  10b070:	00 e7                	add    %ah,%bh
  10b072:	18 e4                	sbb    %ah,%ah
  10b074:	e3 e0                	jrcxz  10b056 <font_bits+0x56>
  10b076:	18 bd 00 ff 00 f1    	sbb    %bh,-0xeff0100(%rbp)
  10b07c:	f7 f1                	div    %ecx
  10b07e:	bd 66 fc 3f e7       	mov    $0xe73ffc66,%ebp
  10b083:	99                   	cltd
  10b084:	83 c7 ff             	add    $0xffffffff,%edi
  10b087:	e7 f0                	out    %eax,$0xf0
  10b089:	0f c3 99 a1 fb ff c3 	movnti %ebx,-0x3c00045f(%rcx)
  10b090:	c0 03 81             	rolb   $0x81,(%rbx)
  10b093:	99                   	cltd
  10b094:	a1 e7 ff 81 00 00 e7 	movabs 0xa399e7000081ffe7,%eax
  10b09b:	99 a3 
  10b09d:	db 00                	fildl  (%rax)
  10b09f:	e7 00                	out    %eax,$0x0
  10b0a1:	00 e7                	add    %ah,%bh
  10b0a3:	99                   	cltd
  10b0a4:	af                   	scas   %es:(%rdi),%eax
  10b0a5:	e7 00                	out    %eax,$0x0
  10b0a7:	81 c0 03 81 99 af    	add    $0xaf998103,%eax
  10b0ad:	df ff                	(bad)
  10b0af:	c3                   	ret
  10b0b0:	f0 0f c3             	lock (bad)
  10b0b3:	ff af db ff e7 fc    	ljmp   *-0x3180025(%rdi)
  10b0b9:	3f                   	(bad)
  10b0ba:	e7 99                	out    %eax,$0x99
  10b0bc:	af                   	scas   %es:(%rdi),%eax
  10b0bd:	e7 ff                	out    %eax,$0xff
  10b0bf:	81 e7 e7 ff ff ff    	and    $0xffffffe7,%edi
  10b0c5:	ff e7                	jmp    *%rdi
  10b0c7:	00 c3                	add    %al,%bl
  10b0c9:	e7 df                	out    %eax,$0xdf
  10b0cb:	fb                   	sti
  10b0cc:	ff                   	(bad)
  10b0cd:	db e7                	(bad)
  10b0cf:	00 81 e7 9f f9 fe    	add    %al,-0x1066019(%rcx)
  10b0d5:	99                   	cltd
  10b0d6:	c3                   	ret
  10b0d7:	81 e7 e7 00 00 fe    	and    $0xfe0000e7,%edi
  10b0dd:	00 c3                	add    %al,%bl
  10b0df:	81 e7 e7 00 00 fe    	and    $0xfe0000e7,%edi
  10b0e5:	00 81 c3 e7 81 9f    	add    %al,-0x607e183d(%rcx)
  10b0eb:	f9                   	stc
  10b0ec:	00 99 81 c3 e7 c3    	add    %bl,-0x3c183c7f(%rcx)
  10b0f2:	df fb                	(bad)
  10b0f4:	ff                   	(bad)
  10b0f5:	db 00                	fildl  (%rax)
  10b0f7:	e7 e7                	out    %eax,$0xe7
  10b0f9:	e7 ff                	out    %eax,$0xff
  10b0fb:	ff                   	(bad)
  10b0fc:	ff                   	(bad)
  10b0fd:	ff 00                	incl   (%rax)
  10b0ff:	e7 ff                	out    %eax,$0xff
  10b101:	e7 db                	out    %eax,$0xdb
  10b103:	db db                	fcmovnu %st(3),%st
  10b105:	79 e3                	jns    10b0ea <font_bits+0xea>
  10b107:	ef                   	out    %eax,(%dx)
  10b108:	ff e7                	jmp    *%rdi
  10b10a:	db db                	fcmovnu %st(3),%st
  10b10c:	01 b6 dd f7 ff e7    	add    %esi,-0x18000823(%rsi)
  10b112:	ff 00                	incl   (%rax)
  10b114:	da d6                	fcmovbe %st(6),%st
  10b116:	dd ff                	(bad)
  10b118:	ff e7                	jmp    *%rdi
  10b11a:	ff                   	(bad)
  10b11b:	db 81 e9 e3 ff ff    	fildl  -0x1c17(%rcx)
  10b121:	e7 ff                	out    %eax,$0xff
  10b123:	00 5b 97             	add    %bl,-0x69(%rbx)
  10b126:	5d                   	pop    %rbp
  10b127:	ff                   	(bad)
  10b128:	ff e7                	jmp    *%rdi
  10b12a:	ff                   	(bad)
  10b12b:	db 5a 6b             	fistpl 0x6b(%rdx)
  10b12e:	bd ff ff ff ff       	mov    $0xffffffff,%ebp
  10b133:	db 81 6d bd ff ff    	fildl  -0x4293(%rcx)
  10b139:	e7 ff                	out    %eax,$0xff
  10b13b:	db db                	fcmovnu %st(3),%st
  10b13d:	9e                   	sahf
  10b13e:	43 ff e7             	rex.XB jmp *%r15
  10b141:	e7 ff                	out    %eax,$0xff
  10b143:	ff                   	(bad)
  10b144:	ff                   	(bad)
  10b145:	ff                   	(bad)
  10b146:	ff                   	(bad)
  10b147:	df fb                	(bad)
  10b149:	df e7                	(bad)
  10b14b:	e7 ff                	out    %eax,$0xff
  10b14d:	ff                   	(bad)
  10b14e:	ff                   	(bad)
  10b14f:	df fd                	(bad)
  10b151:	bf 24 e7 ff ff       	mov    $0xffffe724,%edi
  10b156:	ff                   	(bad)
  10b157:	ef                   	out    %eax,(%dx)
  10b158:	fd                   	std
  10b159:	bf 81 81 ff 81       	mov    $0x81ff8181,%edi
  10b15e:	ff                   	(bad)
  10b15f:	ef                   	out    %eax,(%dx)
  10b160:	fd                   	std
  10b161:	bf e7 81 ff 81       	mov    $0x81ff81e7,%edi
  10b166:	ff f7                	push   %rdi
  10b168:	fd                   	std
  10b169:	bf 81 e7 ef ff       	mov    $0xffefe781,%edi
  10b16e:	e7 f7                	out    %eax,$0xf7
  10b170:	fb                   	sti
  10b171:	df 24 e7             	fbld   (%rdi,%riz,8)
  10b174:	f7 ff                	idiv   %edi
  10b176:	e7 fb                	out    %eax,$0xfb
  10b178:	e7 e7                	out    %eax,$0xe7
  10b17a:	e7 ff                	out    %eax,$0xff
  10b17c:	ff                   	(bad)
  10b17d:	ff                   	(bad)
  10b17e:	ff                   	(bad)
  10b17f:	fb                   	sti
  10b180:	c3                   	ret
  10b181:	e7 c3                	out    %eax,$0xc3
  10b183:	c3                   	ret
  10b184:	9f                   	lahf
  10b185:	81 c3 81 99 e1 99    	add    $0x99e19981,%ebx
  10b18b:	99                   	cltd
  10b18c:	8f                   	(bad)
  10b18d:	f9                   	stc
  10b18e:	99                   	cltd
  10b18f:	9f                   	lahf
  10b190:	89 e7                	mov    %esp,%edi
  10b192:	9f                   	lahf
  10b193:	9f                   	lahf
  10b194:	87 f9                	xchg   %edi,%ecx
  10b196:	f9                   	stc
  10b197:	cf                   	iret
  10b198:	89 e7                	mov    %esp,%edi
  10b19a:	cf                   	iret
  10b19b:	c7                   	(bad)
  10b19c:	93                   	xchg   %eax,%ebx
  10b19d:	c1 c1 cf             	rol    $0xcf,%ecx
  10b1a0:	91                   	xchg   %eax,%ecx
  10b1a1:	e7 e7                	out    %eax,$0xe7
  10b1a3:	9f                   	lahf
  10b1a4:	99                   	cltd
  10b1a5:	9f                   	lahf
  10b1a6:	99                   	cltd
  10b1a7:	e7 91                	out    %eax,$0x91
  10b1a9:	e7 f3                	out    %eax,$0xf3
  10b1ab:	9f                   	lahf
  10b1ac:	01 9f 99 e7 99 e7    	add    %ebx,-0x18661867(%rdi)
  10b1b2:	f9                   	stc
  10b1b3:	99                   	cltd
  10b1b4:	9f                   	lahf
  10b1b5:	99                   	cltd
  10b1b6:	99                   	cltd
  10b1b7:	e7 c3                	out    %eax,$0xc3
  10b1b9:	81 81 c3 0f c3 c3 e7 	addl   $0xffc3c3e7,-0x3c3cf03d(%rcx)
  10b1c0:	c3 c3 ff 
  10b1c3:	ff                   	(bad)
  10b1c4:	ff                   	(bad)
  10b1c5:	ff                   	(bad)
  10b1c6:	ff c3                	inc    %ebx
  10b1c8:	99                   	cltd
  10b1c9:	99                   	cltd
  10b1ca:	ff                   	(bad)
  10b1cb:	ff                   	(bad)
  10b1cc:	ff                   	(bad)
  10b1cd:	ff                   	(bad)
  10b1ce:	ff 99 99 99 f7 f7    	lcall  *-0x8086667(%rcx)
  10b1d4:	8f 81 f1 9f c3 c3    	pop    -0x3c3c600f(%rcx)
  10b1da:	ff                   	(bad)
  10b1db:	ff e3                	jmp    *%rbx
  10b1dd:	ff c7                	inc    %edi
  10b1df:	cf                   	iret
  10b1e0:	99                   	cltd
  10b1e1:	9f                   	lahf
  10b1e2:	ff                   	(bad)
  10b1e3:	ff                   	(bad)
  10b1e4:	f9                   	stc
  10b1e5:	ff 9f e7 99 9f f7    	lcall  *-0x8606619(%rdi)
  10b1eb:	f7 e3                	mul    %ebx
  10b1ed:	81 c7 e7 99 99 ff    	add    $0xff9999e7,%edi
  10b1f3:	fb                   	sti
  10b1f4:	8f                   	(bad)
  10b1f5:	ff f1                	push   %rcx
  10b1f7:	ff c3                	inc    %ebx
  10b1f9:	c3                   	ret
  10b1fa:	ff                   	(bad)
  10b1fb:	ff                   	(bad)
  10b1fc:	ff                   	(bad)
  10b1fd:	ff                   	(bad)
  10b1fe:	ff e7                	jmp    *%rdi
  10b200:	81 c3 c1 c3 c1 81    	add    $0x81c1c3c1,%ebx
  10b206:	81 c3 3c 99 99 99    	add    $0x9999993c,%ebx
  10b20c:	99                   	cltd
  10b20d:	f9                   	stc
  10b20e:	f9                   	stc
  10b20f:	99                   	cltd
  10b210:	66 99                	cwtd
  10b212:	99                   	cltd
  10b213:	f9                   	stc
  10b214:	99                   	cltd
  10b215:	f9                   	stc
  10b216:	f9                   	stc
  10b217:	f9                   	stc
  10b218:	42 81 c1 f9 99 81 81 	rex.X add $0x818199f9,%ecx
  10b21f:	c9                   	leave
  10b220:	42 99                	rex.X cltd
  10b222:	99                   	cltd
  10b223:	f9                   	stc
  10b224:	99                   	cltd
  10b225:	f9                   	stc
  10b226:	f9                   	stc
  10b227:	99                   	cltd
  10b228:	06                   	(bad)
  10b229:	99                   	cltd
  10b22a:	99                   	cltd
  10b22b:	f9                   	stc
  10b22c:	99                   	cltd
  10b22d:	f9                   	stc
  10b22e:	f9                   	stc
  10b22f:	99                   	cltd
  10b230:	fc                   	cld
  10b231:	99                   	cltd
  10b232:	99                   	cltd
  10b233:	99                   	cltd
  10b234:	99                   	cltd
  10b235:	f9                   	stc
  10b236:	f9                   	stc
  10b237:	99                   	cltd
  10b238:	81 99 c1 c3 c1 81 f9 	sbbl   $0xc399c3f9,-0x7e3e3c3f(%rcx)
  10b23f:	c3 99 c3 
  10b242:	c3                   	ret
  10b243:	99                   	cltd
  10b244:	f9                   	stc
  10b245:	3c 99                	cmp    $0x99,%al
  10b247:	c3                   	ret
  10b248:	99                   	cltd
  10b249:	e7 e7                	out    %eax,$0xe7
  10b24b:	c9                   	leave
  10b24c:	f9                   	stc
  10b24d:	18 91 99 81 e7 e7    	sbb    %dl,-0x18187e67(%rcx)
  10b253:	e1 f9                	loope  10b24e <font_bits+0x24e>
  10b255:	00 81 99 99 e7 e7    	add    %al,-0x18186667(%rcx)
  10b25b:	c9                   	leave
  10b25c:	f9                   	stc
  10b25d:	24 89                	and    $0x89,%al
  10b25f:	99                   	cltd
  10b260:	99                   	cltd
  10b261:	e7 e7                	out    %eax,$0xe7
  10b263:	99                   	cltd
  10b264:	f9                   	stc
  10b265:	24 99                	and    $0x99,%al
  10b267:	99                   	cltd
  10b268:	99                   	cltd
  10b269:	e7 e7                	out    %eax,$0xe7
  10b26b:	99                   	cltd
  10b26c:	f9                   	stc
  10b26d:	24 99                	and    $0x99,%al
  10b26f:	99                   	cltd
  10b270:	99                   	cltd
  10b271:	e7 e4                	out    %eax,$0xe4
  10b273:	99                   	cltd
  10b274:	f9                   	stc
  10b275:	24 99                	and    $0x99,%al
  10b277:	99                   	cltd
  10b278:	99                   	cltd
  10b279:	c3                   	ret
  10b27a:	f1                   	int1
  10b27b:	99                   	cltd
  10b27c:	81 3c 99 c3 c1 c3 c1 	cmpl   $0xc1c3c1c3,(%rcx,%rbx,4)
  10b283:	c3                   	ret
  10b284:	81 99 99 3c 99 99 99 	sbbl   $0x99e79999,-0x6666c367(%rcx)
  10b28b:	99 e7 99 
  10b28e:	99                   	cltd
  10b28f:	24 99                	and    $0x99,%al
  10b291:	99                   	cltd
  10b292:	99                   	cltd
  10b293:	f9                   	stc
  10b294:	e7 99                	out    %eax,$0x99
  10b296:	99                   	cltd
  10b297:	24 c1                	and    $0xc1,%al
  10b299:	99                   	cltd
  10b29a:	c1 c3 e7             	rol    $0xe7,%ebx
  10b29d:	99                   	cltd
  10b29e:	99                   	cltd
  10b29f:	24 f9                	and    $0xf9,%al
  10b2a1:	89 99 9f e7 99 c3    	mov    %ebx,-0x3c661861(%rcx)
  10b2a7:	24 f9                	and    $0xf9,%al
  10b2a9:	89 99 9f e7 99 c3    	mov    %ebx,-0x3c661861(%rcx)
  10b2af:	00 f9                	add    %bh,%cl
  10b2b1:	c3                   	ret
  10b2b2:	99                   	cltd
  10b2b3:	99                   	cltd
  10b2b4:	e7 81                	out    %eax,$0x81
  10b2b6:	e7 18                	out    %eax,$0x18
  10b2b8:	f9                   	stc
  10b2b9:	8f                   	(bad)
  10b2ba:	99                   	cltd
  10b2bb:	c3                   	ret
  10b2bc:	e7 c3                	out    %eax,$0xc3
  10b2be:	e7 bd                	out    %eax,$0xbd
  10b2c0:	99                   	cltd
  10b2c1:	99                   	cltd
  10b2c2:	81 c3 fd c3 ff ff    	add    $0xffffc3fd,%ebx
  10b2c8:	99                   	cltd
  10b2c9:	99                   	cltd
  10b2ca:	9f                   	lahf
  10b2cb:	f3 fd                	repz std
  10b2cd:	cf                   	iret
  10b2ce:	e7 ff                	out    %eax,$0xff
  10b2d0:	99                   	cltd
  10b2d1:	99                   	cltd
  10b2d2:	9f                   	lahf
  10b2d3:	f3 fb                	repz sti
  10b2d5:	cf                   	iret
  10b2d6:	c3                   	ret
  10b2d7:	ff c3                	inc    %ebx
  10b2d9:	c3                   	ret
  10b2da:	cf                   	iret
  10b2db:	f3 fb                	repz sti
  10b2dd:	cf                   	iret
  10b2de:	99                   	cltd
  10b2df:	ff 99 9f e7 f3 f7    	lcall  *-0x80c1861(%rcx)
  10b2e5:	cf                   	iret
  10b2e6:	99                   	cltd
  10b2e7:	ff 99 9f f3 f3 f7    	lcall  *-0x80c0c61(%rcx)
  10b2ed:	cf                   	iret
  10b2ee:	bd ff 99 99 f9       	mov    $0xf99999ff,%ebp
  10b2f3:	f3 ef                	repz out %eax,(%dx)
  10b2f5:	cf                   	iret
  10b2f6:	bd ff 99 c3 81       	mov    $0x81c399ff,%ebp
  10b2fb:	c3                   	ret
  10b2fc:	ef                   	out    %eax,(%dx)
  10b2fd:	c3                   	ret
  10b2fe:	bf 81 f7 ff f9       	mov    $0xf9fff781,%edi
  10b303:	ff 9f ff 8f 83 ef    	lcall  *-0x107c7001(%rdi)
  10b309:	ff                   	(bad)
  10b30a:	f9                   	stc
  10b30b:	ff 9f ff e7 99 ff    	lcall  *-0x661801(%rdi)
  10b311:	ff                   	(bad)
  10b312:	f9                   	stc
  10b313:	ff 9f ff e7 99 ff    	lcall  *-0x661801(%rdi)
  10b319:	c3                   	ret
  10b31a:	c1 c3 83             	rol    $0x83,%ebx
  10b31d:	c3                   	ret
  10b31e:	81 99 ff 9f 99 99 99 	sbbl   $0xc3e79999,-0x66666001(%rcx)
  10b325:	99 e7 c3 
  10b328:	ff c3                	inc    %ebx
  10b32a:	99                   	cltd
  10b32b:	f9                   	stc
  10b32c:	99                   	cltd
  10b32d:	81 e7 9f ff 99 99    	and    $0x9999ff9f,%edi
  10b333:	99                   	cltd
  10b334:	99                   	cltd
  10b335:	f9                   	stc
  10b336:	e7 99                	out    %eax,$0x99
  10b338:	ff 03                	incl   (%rbx)
  10b33a:	c1 c3 83             	rol    $0x83,%ebx
  10b33d:	83 e7 c3             	and    $0xffffffc3,%edi
  10b340:	f9                   	stc
  10b341:	ff                   	(bad)
  10b342:	ff                   	(bad)
  10b343:	f9                   	stc
  10b344:	e7 ff                	out    %eax,$0xff
  10b346:	ff                   	(bad)
  10b347:	ff                   	(bad)
  10b348:	f9                   	stc
  10b349:	e7 e7                	out    %eax,$0xe7
  10b34b:	f9                   	stc
  10b34c:	e7 ff                	out    %eax,$0xff
  10b34e:	ff                   	(bad)
  10b34f:	ff                   	(bad)
  10b350:	f9                   	stc
  10b351:	ff                   	(bad)
  10b352:	ff                   	(bad)
  10b353:	f9                   	stc
  10b354:	e7 ff                	out    %eax,$0xff
  10b356:	ff                   	(bad)
  10b357:	ff c1                	inc    %ecx
  10b359:	e7 e7                	out    %eax,$0xe7
  10b35b:	99                   	cltd
  10b35c:	e7 e9                	out    %eax,$0xe9
  10b35e:	c1 c3 99             	rol    $0x99,%ebx
  10b361:	e7 e7                	out    %eax,$0xe7
  10b363:	c9                   	leave
  10b364:	e7 d4                	out    %eax,$0xd4
  10b366:	99                   	cltd
  10b367:	99                   	cltd
  10b368:	99                   	cltd
  10b369:	e7 e7                	out    %eax,$0xe7
  10b36b:	e1 e7                	loope  10b354 <font_bits+0x354>
  10b36d:	d4                   	(bad)
  10b36e:	99                   	cltd
  10b36f:	99                   	cltd
  10b370:	99                   	cltd
  10b371:	e7 e4                	out    %eax,$0xe4
  10b373:	c9                   	leave
  10b374:	e7 d4                	out    %eax,$0xd4
  10b376:	99                   	cltd
  10b377:	99                   	cltd
  10b378:	99                   	cltd
  10b379:	e7 f1                	out    %eax,$0xf1
  10b37b:	99                   	cltd
  10b37c:	cf                   	iret
  10b37d:	d4                   	(bad)
  10b37e:	99                   	cltd
  10b37f:	c3                   	ret
  10b380:	c3                   	ret
  10b381:	c3                   	ret
  10b382:	ff                   	(bad)
  10b383:	ff e7                	jmp    *%rdi
  10b385:	ff                   	(bad)
  10b386:	ff                   	(bad)
  10b387:	ff 99 99 ff ff e7    	lcall  *-0x18000067(%rcx)
  10b38d:	ff                   	(bad)
  10b38e:	ff                   	(bad)
  10b38f:	ff 99 99 ff ff e7    	lcall  *-0x18000067(%rcx)
  10b395:	ff                   	(bad)
  10b396:	ff                   	(bad)
  10b397:	ff 99 99 c4 c3 81    	lcall  *-0x7e3c3b67(%rcx)
  10b39d:	cc                   	int3
  10b39e:	99                   	cltd
  10b39f:	a9 c1 83 99 f9       	test   $0xf99983c1,%eax
  10b3a4:	e7 cc                	out    %eax,$0xcc
  10b3a6:	99                   	cltd
  10b3a7:	a9 f9 9f f9 c3       	test   $0xc3f99ff9,%eax
  10b3ac:	e7 cc                	out    %eax,$0xcc
  10b3ae:	99                   	cltd
  10b3af:	a9 f9 9f f9 9f       	test   $0x9ff99ff9,%eax
  10b3b4:	27                   	(bad)
  10b3b5:	cc                   	int3
  10b3b6:	c3                   	ret
  10b3b7:	a9 f9 9f f9 c3       	test   $0xc3f99ff9,%eax
  10b3bc:	8f 81 e7 d3 ff 99    	pop    -0x66002c19(%rcx)
  10b3c2:	ff c7                	inc    %edi
  10b3c4:	e7 f1                	out    %eax,$0xf1
  10b3c6:	ff e7                	jmp    *%rdi
  10b3c8:	ff 99 ff f3 e7 e7    	lcall  *-0x18180c01(%rcx)
  10b3ce:	ff c3                	inc    %ebx
  10b3d0:	ff 99 ff f3 e7 e7    	lcall  *-0x18180c01(%rcx)
  10b3d6:	f1                   	int1
  10b3d7:	99                   	cltd
  10b3d8:	99                   	cltd
  10b3d9:	99                   	cltd
  10b3da:	81 f9 e7 cf 24 3c    	cmp    $0x3c24cfe7,%ecx
  10b3e0:	99                   	cltd
  10b3e1:	c3                   	ret
  10b3e2:	9f                   	lahf
  10b3e3:	f3 e7 e7             	repz out %eax,$0xe7
  10b3e6:	8f                   	(bad)
  10b3e7:	7e c3                	jle    10b3ac <font_bits+0x3ac>
  10b3e9:	9f                   	lahf
  10b3ea:	c3                   	ret
  10b3eb:	f3 e7 e7             	repz out %eax,$0xe7
  10b3ee:	ff                   	(bad)
  10b3ef:	7e 99                	jle    10b38a <font_bits+0x38a>
  10b3f1:	99                   	cltd
  10b3f2:	f9                   	stc
  10b3f3:	f3 e7 e7             	repz out %eax,$0xe7
  10b3f6:	ff                   	(bad)
  10b3f7:	7e 99                	jle    10b392 <font_bits+0x392>
  10b3f9:	c3                   	ret
  10b3fa:	81 c7 e7 f1 ff 00    	add    $0xfff1e7,%edi
  10b400:	c3                   	ret
  10b401:	ff cf                	dec    %edi
  10b403:	e7 ff                	out    %eax,$0xff
  10b405:	f3 e7 c3             	repz out %eax,$0xc3
  10b408:	99                   	cltd
  10b409:	99                   	cltd
  10b40a:	f3 db 99 cf db f9 f9 	repz fistpl -0x6062431(%rcx)
  10b411:	ff                   	(bad)
  10b412:	ff                   	(bad)
  10b413:	ff                   	(bad)
  10b414:	ff                   	(bad)
  10b415:	ff e7                	jmp    *%rdi
  10b417:	f9                   	stc
  10b418:	f9                   	stc
  10b419:	99                   	cltd
  10b41a:	c3                   	ret
  10b41b:	c3                   	ret
  10b41c:	c3                   	ret
  10b41d:	c3                   	ret
  10b41e:	ff c3                	inc    %ebx
  10b420:	99                   	cltd
  10b421:	99                   	cltd
  10b422:	99                   	cltd
  10b423:	9f                   	lahf
  10b424:	9f                   	lahf
  10b425:	9f                   	lahf
  10b426:	43 ef                	rex.XB out %eax,(%dx)
  10b428:	c3                   	ret
  10b429:	99                   	cltd
  10b42a:	81 c3 c3 c3 99 c7    	add    $0xc799c3c3,%ebx
  10b430:	cf                   	iret
  10b431:	99                   	cltd
  10b432:	f9                   	stc
  10b433:	99                   	cltd
  10b434:	99                   	cltd
  10b435:	99                   	cltd
  10b436:	99                   	cltd
  10b437:	df e3                	(bad)
  10b439:	03 83 03 03 03 43    	add    0x43030303(%rbx),%eax
  10b43f:	e7 e7                	out    %eax,$0xe7
  10b441:	ff f3                	push   %rbx
  10b443:	ff e7                	jmp    *%rdi
  10b445:	f3 ff e7             	repz jmp *%rdi
  10b448:	db 99 cf 99 db cf    	fistpl -0x30246631(%rcx)
  10b44e:	99                   	cltd
  10b44f:	db ff                	(bad)
  10b451:	ff                   	(bad)
  10b452:	ff                   	(bad)
  10b453:	ff                   	(bad)
  10b454:	ff                   	(bad)
  10b455:	ff                   	(bad)
  10b456:	ff e7                	jmp    *%rdi
  10b458:	c3                   	ret
  10b459:	c3                   	ret
  10b45a:	c3                   	ret
  10b45b:	e7 e7                	out    %eax,$0xe7
  10b45d:	e7 c3                	out    %eax,$0xc3
  10b45f:	ff 99 99 99 e7 e7    	lcall  *-0x18186667(%rcx)
  10b465:	e7 99                	out    %eax,$0x99
  10b467:	c3                   	ret
  10b468:	81 81 81 e7 e7 e7 81 	addl   $0xf9f99981,-0x1818187f(%rcx)
  10b46f:	99 f9 f9 
  10b472:	f9                   	stc
  10b473:	e7 e7                	out    %eax,$0xe7
  10b475:	e7 99                	out    %eax,$0x99
  10b477:	81 83 83 83 e7 e7 e7 	addl   $0xcf9999e7,-0x18187c7d(%rbx)
  10b47e:	99 99 cf 
  10b481:	ff 83 e7 ff f3 e7    	incl   -0x180c0019(%rbx)
  10b487:	f3 f3 ff e5          	repz repz jmp *%rbp
  10b48b:	db 99 cf db cf ff    	fistpl -0x302431(%rcx)
  10b491:	ff e5                	jmp    *%rbp
  10b493:	ff                   	(bad)
  10b494:	ff                   	(bad)
  10b495:	ff                   	(bad)
  10b496:	ff                   	(bad)
  10b497:	ff 81 c9 81 c3 c3    	incl   -0x3c3c7e37(%rcx)
  10b49d:	c3                   	ret
  10b49e:	99                   	cltd
  10b49f:	99                   	cltd
  10b4a0:	f9                   	stc
  10b4a1:	a7                   	cmpsl  %es:(%rdi),%ds:(%rsi)
  10b4a2:	e5 99                	in     $0x99,%eax
  10b4a4:	99                   	cltd
  10b4a5:	99                   	cltd
  10b4a6:	99                   	cltd
  10b4a7:	99                   	cltd
  10b4a8:	81 81 e5 99 99 99 99 	addl   $0xe5f99999,-0x6666661b(%rcx)
  10b4af:	99 f9 e5 
  10b4b2:	e5 99                	in     $0x99,%eax
  10b4b4:	99                   	cltd
  10b4b5:	99                   	cltd
  10b4b6:	99                   	cltd
  10b4b7:	99                   	cltd
  10b4b8:	81 81 85 c3 c3 c3 03 	addl   $0x99ff0303,-0x3c3c3c7b(%rcx)
  10b4bf:	03 ff 99 
  10b4c2:	99                   	cltd
  10b4c3:	ff c7                	inc    %edi
  10b4c5:	99                   	cltd
  10b4c6:	f1                   	int1
  10b4c7:	8f                   	(bad)
  10b4c8:	99                   	cltd
  10b4c9:	ff                   	(bad)
  10b4ca:	ff f7                	push   %rdi
  10b4cc:	93                   	xchg   %eax,%ebx
  10b4cd:	99                   	cltd
  10b4ce:	ed                   	in     (%dx),%eax
  10b4cf:	27                   	(bad)
  10b4d0:	ff c3                	inc    %ebx
  10b4d2:	99                   	cltd
  10b4d3:	c3                   	ret
  10b4d4:	f3 99                	repz cltd
  10b4d6:	ed                   	in     (%dx),%eax
  10b4d7:	e7 99                	out    %eax,$0x99
  10b4d9:	99                   	cltd
  10b4da:	99                   	cltd
  10b4db:	99                   	cltd
  10b4dc:	81 c3 d1 81 99 99    	add    $0x999981d1,%ebx
  10b4e2:	99                   	cltd
  10b4e3:	f9                   	stc
  10b4e4:	f3 81 8d e7 c3 99 99 	repz orl $0xdde7f999,-0x66663c19(%rbp)
  10b4eb:	99 f9 e7 dd 
  10b4ef:	e7 9f                	out    %eax,$0x9f
  10b4f1:	99                   	cltd
  10b4f2:	99                   	cltd
  10b4f3:	c3                   	ret
  10b4f4:	f9                   	stc
  10b4f5:	81 dd e4 c1 c3 c3    	sbb    $0xc3c3c1e4,%ebp
  10b4fb:	f7 00 e7 bd f1 cf    	testl  $0xcff1bde7,(%rax)
  10b501:	cf                   	iret
  10b502:	cf                   	iret
  10b503:	cf                   	iret
  10b504:	b3 b3                	mov    $0xb3,%bl
  10b506:	ff                   	(bad)
  10b507:	ff f3                	push   %rbx
  10b509:	f3 f3 f3 cd cd       	repz repz repz int $0xcd
  10b50e:	a7                   	cmpsl  %es:(%rdi),%ds:(%rsi)
  10b50f:	e7 ff                	out    %eax,$0xff
  10b511:	ff                   	(bad)
  10b512:	ff                   	(bad)
  10b513:	ff                   	(bad)
  10b514:	ff                   	(bad)
  10b515:	ff                   	(bad)
  10b516:	db db                	fcmovnu %st(3),%st
  10b518:	c3                   	ret
  10b519:	e7 c3                	out    %eax,$0xc3
  10b51b:	99                   	cltd
  10b51c:	c1 99 db db 9f e7 99 	rcrl   $0x99,-0x18602425(%rcx)
  10b523:	99                   	cltd
  10b524:	99                   	cltd
  10b525:	91                   	xchg   %eax,%ecx
  10b526:	a7                   	cmpsl  %es:(%rdi),%ds:(%rsi)
  10b527:	e7 c3                	out    %eax,$0xc3
  10b529:	e7 99                	out    %eax,$0x99
  10b52b:	99                   	cltd
  10b52c:	99                   	cltd
  10b52d:	81 ff ff 99 e7 99    	cmp    $0x99e799ff,%edi
  10b533:	99                   	cltd
  10b534:	99                   	cltd
  10b535:	89 ff                	mov    %edi,%edi
  10b537:	ff 03                	incl   (%rbx)
  10b539:	e7 c3                	out    %eax,$0xc3
  10b53b:	03 99 99 ff ff e7    	add    -0x18000067(%rcx),%ebx
  10b541:	ff                   	(bad)
  10b542:	ff                   	(bad)
  10b543:	7b 7b                	jnp    10b5c0 <font_bits+0x5c0>
  10b545:	e7 ff                	out    %eax,$0xff
  10b547:	ff                   	(bad)
  10b548:	ff                   	(bad)
  10b549:	ff                   	(bad)
  10b54a:	ff                   	(bad)
  10b54b:	b9 b9 ff b7 ed       	mov    $0xedb7ffb9,%ecx
  10b550:	e7 ff                	out    %eax,$0xff
  10b552:	ff                   	(bad)
  10b553:	db db                	fcmovnu %st(3),%st
  10b555:	e7 db                	out    %eax,$0xdb
  10b557:	db e7                	(bad)
  10b559:	81 81 2b eb e7 ed b7 	addl   $0x9ff9f3b7,-0x121814d5(%rcx)
  10b560:	f3 f9 9f 
  10b563:	77 57                	ja     10b5bc <font_bits+0x5bc>
  10b565:	e7 ed                	out    %eax,$0xed
  10b567:	b7 f9                	mov    $0xf9,%bh
  10b569:	ff                   	(bad)
  10b56a:	ff                   	(bad)
  10b56b:	3b 1b                	cmp    (%rbx),%ebx
  10b56d:	e7 db                	out    %eax,$0xdb
  10b56f:	db 99 ff ff bd 7d    	fistpl 0x7dbdffff(%rcx)
  10b575:	e7 b7                	out    %eax,$0xb7
  10b577:	ed                   	in     (%dx),%eax
  10b578:	c3                   	ret
  10b579:	ff                   	(bad)
  10b57a:	ff                   	(bad)
  10b57b:	3e 7e e7             	jle,pt 10b565 <font_bits+0x565>
  10b57e:	99                   	cltd
  10b57f:	ff                   	(bad)
  10b580:	ee                   	out    %al,(%dx)
  10b581:	aa                   	stos   %al,%es:(%rdi)
  10b582:	11 e7                	adc    %esp,%edi
  10b584:	e7 e7                	out    %eax,$0xe7
  10b586:	99                   	cltd
  10b587:	ff                   	(bad)
  10b588:	bb 55 44 e7 e7       	mov    $0xe7e74455,%ebx
  10b58d:	e0 99                	loopne 10b528 <font_bits+0x528>
  10b58f:	ff                   	(bad)
  10b590:	ee                   	out    %al,(%dx)
  10b591:	aa                   	stos   %al,%es:(%rdi)
  10b592:	11 e7                	adc    %esp,%edi
  10b594:	e7 e0                	out    %eax,$0xe0
  10b596:	99                   	cltd
  10b597:	ff                   	(bad)
  10b598:	bb 55 44 e7 e0       	mov    $0xe0e74455,%ebx
  10b59d:	e7 98                	out    %eax,$0x98
  10b59f:	80 ee aa             	sub    $0xaa,%dh
  10b5a2:	11 e7                	adc    %esp,%edi
  10b5a4:	e0 e7                	loopne 10b58d <font_bits+0x58d>
  10b5a6:	98                   	cwtl
  10b5a7:	80 bb 55 44 e7 e7 e0 	cmpb   $0xe0,-0x1818bbab(%rbx)
  10b5ae:	99                   	cltd
  10b5af:	99                   	cltd
  10b5b0:	ee                   	out    %al,(%dx)
  10b5b1:	aa                   	stos   %al,%es:(%rdi)
  10b5b2:	11 e7                	adc    %esp,%edi
  10b5b4:	e7 e0                	out    %eax,$0xe0
  10b5b6:	99                   	cltd
  10b5b7:	99                   	cltd
  10b5b8:	bb 55 44 e7 e7       	mov    $0xe7e74455,%ebx
  10b5bd:	e7 99                	out    %eax,$0x99
  10b5bf:	99                   	cltd
  10b5c0:	ff 99 99 ff 99 99    	lcall  *-0x66660067(%rcx)
  10b5c6:	e7 ff                	out    %eax,$0xff
  10b5c8:	e0 98                	loopne 10b562 <font_bits+0x562>
  10b5ca:	99                   	cltd
  10b5cb:	80 98 99 e0 ff e0 98 	sbbb   $0x98,-0x1f001f67(%rax)
  10b5d2:	99                   	cltd
  10b5d3:	80 98 99 e0 ff e7 9f 	sbbb   $0x9f,-0x18001f67(%rax)
  10b5da:	99                   	cltd
  10b5db:	9f                   	lahf
  10b5dc:	9f                   	lahf
  10b5dd:	80 e7 e0             	and    $0xe0,%bh
  10b5e0:	e7 9f                	out    %eax,$0x9f
  10b5e2:	99                   	cltd
  10b5e3:	9f                   	lahf
  10b5e4:	9f                   	lahf
  10b5e5:	80 e7 e0             	and    $0xe0,%bh
  10b5e8:	e0 98                	loopne 10b582 <font_bits+0x582>
  10b5ea:	99                   	cltd
  10b5eb:	98                   	cwtl
  10b5ec:	80 ff e0             	cmp    $0xe0,%bh
  10b5ef:	e7 e0                	out    %eax,$0xe0
  10b5f1:	98                   	cwtl
  10b5f2:	99                   	cltd
  10b5f3:	98                   	cwtl
  10b5f4:	80 ff e0             	cmp    $0xe0,%bh
  10b5f7:	e7 e7                	out    %eax,$0xe7
  10b5f9:	99                   	cltd
  10b5fa:	99                   	cltd
  10b5fb:	99                   	cltd
  10b5fc:	ff                   	(bad)
  10b5fd:	ff                   	(bad)
  10b5fe:	ff e7                	jmp    *%rdi
  10b600:	e7 e7                	out    %eax,$0xe7
  10b602:	ff e7                	jmp    *%rdi
  10b604:	ff e7                	jmp    *%rdi
  10b606:	e7 99                	out    %eax,$0x99
  10b608:	e7 e7                	out    %eax,$0xe7
  10b60a:	ff e7                	jmp    *%rdi
  10b60c:	ff e7                	jmp    *%rdi
  10b60e:	07                   	(bad)
  10b60f:	99                   	cltd
  10b610:	e7 e7                	out    %eax,$0xe7
  10b612:	ff e7                	jmp    *%rdi
  10b614:	ff e7                	jmp    *%rdi
  10b616:	07                   	(bad)
  10b617:	99                   	cltd
  10b618:	07                   	(bad)
  10b619:	00 00                	add    %al,(%rax)
  10b61b:	07                   	(bad)
  10b61c:	00 00                	add    %al,(%rax)
  10b61e:	e7 19                	out    %eax,$0x19
  10b620:	07                   	(bad)
  10b621:	00 00                	add    %al,(%rax)
  10b623:	07                   	(bad)
  10b624:	00 00                	add    %al,(%rax)
  10b626:	e7 19                	out    %eax,$0x19
  10b628:	ff                   	(bad)
  10b629:	ff e7                	jmp    *%rdi
  10b62b:	e7 ff                	out    %eax,$0xff
  10b62d:	e7 07                	out    %eax,$0x7
  10b62f:	99                   	cltd
  10b630:	ff                   	(bad)
  10b631:	ff e7                	jmp    *%rdi
  10b633:	e7 ff                	out    %eax,$0xff
  10b635:	e7 07                	out    %eax,$0x7
  10b637:	99                   	cltd
  10b638:	ff                   	(bad)
  10b639:	ff e7                	jmp    *%rdi
  10b63b:	e7 ff                	out    %eax,$0xff
  10b63d:	e7 e7                	out    %eax,$0xe7
  10b63f:	99                   	cltd
  10b640:	99                   	cltd
  10b641:	ff 99 ff 99 ff 99    	lcall  *-0x66006601(%rcx)
  10b647:	e7 19                	out    %eax,$0x19
  10b649:	01 18                	add    %ebx,(%rax)
  10b64b:	00 19                	add    %bl,(%rcx)
  10b64d:	00 18                	add    %bl,(%rax)
  10b64f:	00 19                	add    %bl,(%rcx)
  10b651:	01 18                	add    %ebx,(%rax)
  10b653:	00 19                	add    %bl,(%rcx)
  10b655:	00 18                	add    %bl,(%rax)
  10b657:	00 f9                	add    %bh,%cl
  10b659:	f9                   	stc
  10b65a:	ff                   	(bad)
  10b65b:	ff                   	(bad)
  10b65c:	f9                   	stc
  10b65d:	ff                   	(bad)
  10b65e:	ff                   	(bad)
  10b65f:	ff                   	(bad)
  10b660:	f9                   	stc
  10b661:	f9                   	stc
  10b662:	ff                   	(bad)
  10b663:	ff                   	(bad)
  10b664:	f9                   	stc
  10b665:	ff                   	(bad)
  10b666:	ff                   	(bad)
  10b667:	ff 01                	incl   (%rcx)
  10b669:	19 00                	sbb    %eax,(%rax)
  10b66b:	18 19                	sbb    %bl,(%rcx)
  10b66d:	00 18                	add    %bl,(%rax)
  10b66f:	00 01                	add    %al,(%rcx)
  10b671:	19 00                	sbb    %eax,(%rax)
  10b673:	18 19                	sbb    %bl,(%rcx)
  10b675:	00 18                	add    %bl,(%rax)
  10b677:	00 ff                	add    %bh,%bh
  10b679:	99                   	cltd
  10b67a:	ff 99 99 ff 99 ff    	lcall  *-0x660067(%rcx)
  10b680:	99                   	cltd
  10b681:	ff                   	(bad)
  10b682:	ff 99 e7 ff ff 99    	lcall  *-0x66000019(%rcx)
  10b688:	99                   	cltd
  10b689:	00 ff                	add    %bh,%bh
  10b68b:	99                   	cltd
  10b68c:	07                   	(bad)
  10b68d:	07                   	(bad)
  10b68e:	ff 99 99 00 ff 99    	lcall  *-0x6600ff67(%rcx)
  10b694:	07                   	(bad)
  10b695:	07                   	(bad)
  10b696:	ff 99 00 ff 00 01    	lcall  *0x100ff00(%rcx)
  10b69c:	e7 e7                	out    %eax,$0xe7
  10b69e:	01 00                	add    %eax,(%rax)
  10b6a0:	00 ff                	add    %bh,%bh
  10b6a2:	00 01                	add    %al,(%rcx)
  10b6a4:	e7 e7                	out    %eax,$0xe7
  10b6a6:	01 00                	add    %eax,(%rax)
  10b6a8:	ff 00                	incl   (%rax)
  10b6aa:	99                   	cltd
  10b6ab:	ff 07                	incl   (%rdi)
  10b6ad:	07                   	(bad)
  10b6ae:	99                   	cltd
  10b6af:	99                   	cltd
  10b6b0:	ff 00                	incl   (%rax)
  10b6b2:	99                   	cltd
  10b6b3:	ff 07                	incl   (%rdi)
  10b6b5:	07                   	(bad)
  10b6b6:	99                   	cltd
  10b6b7:	99                   	cltd
  10b6b8:	ff e7                	jmp    *%rdi
  10b6ba:	99                   	cltd
  10b6bb:	ff                   	(bad)
  10b6bc:	ff e7                	jmp    *%rdi
  10b6be:	99                   	cltd
  10b6bf:	99                   	cltd
  10b6c0:	e7 e7                	out    %eax,$0xe7
  10b6c2:	ff 00                	incl   (%rax)
  10b6c4:	fe                   	(bad)
  10b6c5:	e1 1f                	loope  10b6e6 <font_bits+0x6e6>
  10b6c7:	00 00                	add    %al,(%rax)
  10b6c9:	e7 ff                	out    %eax,$0xff
  10b6cb:	00 fe                	add    %bh,%dh
  10b6cd:	e1 1f                	loope  10b6ee <font_bits+0x6ee>
  10b6cf:	00 00                	add    %al,(%rax)
  10b6d1:	e7 ff                	out    %eax,$0xff
  10b6d3:	00 fe                	add    %bh,%dh
  10b6d5:	e1 1f                	loope  10b6f6 <font_bits+0x6f6>
  10b6d7:	00 e7                	add    %ah,%bh
  10b6d9:	e0 07                	loopne 10b6e2 <font_bits+0x6e2>
  10b6db:	00 fe                	add    %bh,%dh
  10b6dd:	e1 1f                	loope  10b6fe <font_bits+0x6fe>
  10b6df:	00 e7                	add    %ah,%bh
  10b6e1:	e0 07                	loopne 10b6ea <font_bits+0x6ea>
  10b6e3:	00 00                	add    %al,(%rax)
  10b6e5:	e0 1f                	loopne 10b706 <font_bits+0x706>
  10b6e7:	fe 00                	incb   (%rax)
  10b6e9:	ff e7                	jmp    *%rdi
  10b6eb:	00 00                	add    %al,(%rax)
  10b6ed:	e0 1f                	loopne 10b70e <font_bits+0x70e>
  10b6ef:	fe 00                	incb   (%rax)
  10b6f1:	ff e7                	jmp    *%rdi
  10b6f3:	00 00                	add    %al,(%rax)
  10b6f5:	e0 1f                	loopne 10b716 <font_bits+0x716>
  10b6f7:	fe                   	(bad)
  10b6f8:	e7 ff                	out    %eax,$0xff
  10b6fa:	e7 00                	out    %eax,$0x0
  10b6fc:	00 e0                	add    %ah,%al
  10b6fe:	1f                   	(bad)
  10b6ff:	fe                   	(bad)
  10b700:	ff c3                	inc    %ebx
  10b702:	81 ff 81 ff 99 ff    	cmp    $0xff99ff81,%edi
  10b708:	ff 99 f9 ff f9 ff    	lcall  *-0x60007(%rcx)
  10b70e:	99                   	cltd
  10b70f:	ff                   	(bad)
  10b710:	ff c9                	dec    %ecx
  10b712:	f9                   	stc
  10b713:	ff f3                	push   %rbx
  10b715:	ff 99 ff 43 e1 f9    	lcall  *-0x61ebc01(%rcx)
  10b71b:	81 e7 03 81 81 99    	and    $0x99818103,%edi
  10b721:	c9                   	leave
  10b722:	f9                   	stc
  10b723:	db e7                	(bad)
  10b725:	99                   	cltd
  10b726:	c9                   	leave
  10b727:	e7 99                	out    %eax,$0x99
  10b729:	99                   	cltd
  10b72a:	f9                   	stc
  10b72b:	db f3                	fcomi  %st(3),%st
  10b72d:	99                   	cltd
  10b72e:	f9                   	stc
  10b72f:	e7 99                	out    %eax,$0x99
  10b731:	99                   	cltd
  10b732:	f9                   	stc
  10b733:	db f9                	(bad)
  10b735:	99                   	cltd
  10b736:	f9                   	stc
  10b737:	e7 43                	out    %eax,$0x43
  10b739:	c9                   	leave
  10b73a:	f9                   	stc
  10b73b:	db 81 c3 f9 cf e7    	fildl  -0x1830063d(%rcx)
  10b741:	c3                   	ret
  10b742:	81 87 ff ef ff ff 81 	addl   $0xe73c9981,-0x1001(%rdi)
  10b749:	99 3c e7 
  10b74c:	ff                   	(bad)
  10b74d:	ef                   	out    %eax,(%dx)
  10b74e:	ff                   	(bad)
  10b74f:	ff 24 99             	jmp    *(%rcx,%rbx,4)
  10b752:	3c cf                	cmp    $0xcf,%al
  10b754:	ff 83 ff ff 24 81    	incl   -0x7edb0001(%rbx)
  10b75a:	3c c3                	cmp    $0xc3,%al
  10b75c:	99                   	cltd
  10b75d:	29 c3                	sub    %eax,%ebx
  10b75f:	c3                   	ret
  10b760:	24 99                	and    $0x99,%al
  10b762:	3c 99                	cmp    $0x99,%al
  10b764:	66 29 b9 99 24 99 18 	sub    %di,0x18992499(%rcx)
  10b76b:	99                   	cltd
  10b76c:	66 29 e3             	sub    %sp,%bx
  10b76f:	99                   	cltd
  10b770:	81 99 99 99 66 83 b9 	sbbl   $0xc3e799b9,-0x7c996667(%rcx)
  10b777:	99 e7 c3 
  10b77a:	18 c3                	sbb    %al,%bl
  10b77c:	99                   	cltd
  10b77d:	ef                   	out    %eax,(%dx)
  10b77e:	c3                   	ret
  10b77f:	99                   	cltd
  10b780:	ff                   	(bad)
  10b781:	ff                   	(bad)
  10b782:	ff                   	(bad)
  10b783:	ff 8f e7 e7 ff 81    	decl   -0x7e001819(%rdi)
  10b789:	e7 f1                	out    %eax,$0xf1
  10b78b:	8f                   	(bad)
  10b78c:	27                   	(bad)
  10b78d:	e7 e7                	out    %eax,$0xe7
  10b78f:	93                   	xchg   %eax,%ebx
  10b790:	ff e7                	jmp    *%rdi
  10b792:	c7                   	(bad)
  10b793:	e3 e7                	jrcxz  10b77c <font_bits+0x77c>
  10b795:	e7 ff                	out    %eax,$0xff
  10b797:	c9                   	leave
  10b798:	81 81 9f f9 e7 e7 00 	addl   $0xe7ffff00,-0x18180661(%rcx)
  10b79f:	ff ff e7 
  10b7a2:	c7                   	(bad)
  10b7a3:	e3 e7                	jrcxz  10b78c <font_bits+0x78c>
  10b7a5:	e7 00                	out    %eax,$0x0
  10b7a7:	93                   	xchg   %eax,%ebx
  10b7a8:	81 e7 f1 8f e7 e7    	and    $0xe7e78ff1,%edi
  10b7ae:	ff c9                	dec    %ecx
  10b7b0:	ff                   	(bad)
  10b7b1:	ff                   	(bad)
  10b7b2:	ff                   	(bad)
  10b7b3:	ff e7                	jmp    *%rdi
  10b7b5:	e4 e7                	in     $0xe7,%al
  10b7b7:	ff                   	(bad)
  10b7b8:	ff 81 81 81 e7 f1    	incl   -0xe187e7f(%rcx)
  10b7be:	e7 ff                	out    %eax,$0xff
  10b7c0:	ff                   	(bad)
  10b7c1:	ff                   	(bad)
  10b7c2:	ff 8f ff e7 ff ff    	decl   -0x1801(%rdi)
  10b7c8:	f7 ff                	idiv   %edi
  10b7ca:	ff cf                	dec    %edi
  10b7cc:	ff                   	(bad)
  10b7cd:	ef                   	out    %eax,(%dx)
  10b7ce:	81 ff eb e7 ff cf    	cmp    $0xcfffe7eb,%edi
  10b7d4:	e3 f7                	jrcxz  10b7cd <font_bits+0x7cd>
  10b7d6:	81 ff f7 c3 e7 c9    	cmp    $0xc9e7c3f7,%edi
  10b7dc:	db e7                	(bad)
  10b7de:	81 ff ff c3 e7 c9    	cmp    $0xc9e7c3ff,%edi
  10b7e4:	db ff                	(bad)
  10b7e6:	81 ff ff e7 ff c1    	cmp    $0xc1ffe7ff,%edi
  10b7ec:	ff                   	(bad)
  10b7ed:	ff 81 ff ff ff ff    	incl   -0x1(%rcx)
  10b7f3:	e3 ff                	jrcxz  10b7f4 <font_bits+0x7f4>
  10b7f5:	ff 81 ff ff ff ff    	incl   -0x1(%rcx)
  10b7fb:	e7 ff                	out    %eax,$0xff
  10b7fd:	ff                   	(bad)
  10b7fe:	ff                   	(bad)
  10b7ff:	ff                   	.byte 0xff

Disassembly of section .rodata.str1.1:

000000000010b800 <.rodata.str1.1>:
  10b800:	52                   	push   %rdx
  10b801:	53                   	push   %rbx
  10b802:	44 20 50 54          	and    %r10b,0x54(%rax)
  10b806:	52                   	push   %rdx
  10b807:	20 00                	and    %al,(%rax)
  10b809:	42                   	rex.X
  10b80a:	41                   	rex.B
  10b80b:	44 20 52 53          	and    %r10b,0x53(%rdx)
  10b80f:	44 50                	rex.R push %rax
  10b811:	20 4d 41             	and    %cl,0x41(%rbp)
  10b814:	47                   	rex.RXB
  10b815:	49                   	rex.WB
  10b816:	43 3a 20             	rex.XB cmp (%r8),%spl
  10b819:	00 44 4f 44          	add    %al,0x44(%rdi,%rcx,2)
  10b81d:	47 59                	rex.RXB pop %r9
  10b81f:	20 4c 45 47          	and    %cl,0x47(%rbp,%rax,2)
  10b823:	41                   	rex.B
  10b824:	43 59                	rex.XB pop %r9
  10b826:	20 52 53             	and    %dl,0x53(%rdx)
  10b829:	44 50                	rex.R push %rax
  10b82b:	3a 20                	cmp    (%rax),%ah
  10b82d:	43                   	rex.XB
  10b82e:	48                   	rex.W
  10b82f:	45                   	rex.RB
  10b830:	43                   	rex.XB
  10b831:	4b 53                	rex.WXB push %r11
  10b833:	55                   	push   %rbp
  10b834:	4d 20 4e 4f          	rex.WRB and %r9b,0x4f(%r14)
  10b838:	54                   	push   %rsp
  10b839:	20 30                	and    %dh,(%rax)
  10b83b:	0a 00                	or     (%rax),%al
  10b83d:	44                   	rex.R
  10b83e:	4f                   	rex.WRXB
  10b83f:	44                   	rex.R
  10b840:	47 59                	rex.RXB pop %r9
  10b842:	20 52 53             	and    %dl,0x53(%rdx)
  10b845:	44 50                	rex.R push %rax
  10b847:	3a 20                	cmp    (%rax),%ah
  10b849:	43                   	rex.XB
  10b84a:	48                   	rex.W
  10b84b:	45                   	rex.RB
  10b84c:	43                   	rex.XB
  10b84d:	4b 53                	rex.WXB push %r11
  10b84f:	55                   	push   %rbp
  10b850:	4d 20 4e 4f          	rex.WRB and %r9b,0x4f(%r14)
  10b854:	54                   	push   %rsp
  10b855:	20 30                	and    %dh,(%rax)
  10b857:	0a 00                	or     (%rax),%al
  10b859:	52                   	push   %rdx
  10b85a:	53                   	push   %rbx
  10b85b:	44 50                	rex.R push %rax
  10b85d:	20 4f 45             	and    %cl,0x45(%rdi)
  10b860:	4d 3a 20             	rex.WRB cmp (%r8),%r12b
  10b863:	00 58 53             	add    %bl,0x53(%rax)
  10b866:	44 54                	rex.R push %rsp
  10b868:	20 50 41             	and    %dl,0x41(%rax)
  10b86b:	44                   	rex.R
  10b86c:	44 52                	rex.R push %rdx
  10b86e:	3a 20                	cmp    (%rax),%ah
  10b870:	00 58 53             	add    %bl,0x53(%rax)
  10b873:	44 54                	rex.R push %rsp
  10b875:	20 56 41             	and    %dl,0x41(%rsi)
  10b878:	44                   	rex.R
  10b879:	44 52                	rex.R push %rdx
  10b87b:	3a 20                	cmp    (%rax),%ah
  10b87d:	00 58 53             	add    %bl,0x53(%rax)
  10b880:	44 54                	rex.R push %rsp
  10b882:	20 53 5a             	and    %dl,0x5a(%rbx)
  10b885:	3a 20                	cmp    (%rax),%ah
  10b887:	00 44 4f 44          	add    %al,0x44(%rdi,%rcx,2)
  10b88b:	47 59                	rex.RXB pop %r9
  10b88d:	20 58 53             	and    %bl,0x53(%rax)
  10b890:	44 54                	rex.R push %rsp
  10b892:	3a 20                	cmp    (%rax),%ah
  10b894:	43                   	rex.XB
  10b895:	48                   	rex.W
  10b896:	45                   	rex.RB
  10b897:	43                   	rex.XB
  10b898:	4b 53                	rex.WXB push %r11
  10b89a:	55                   	push   %rbp
  10b89b:	4d 20 4e 4f          	rex.WRB and %r9b,0x4f(%r14)
  10b89f:	54                   	push   %rsp
  10b8a0:	20 30                	and    %dh,(%rax)
  10b8a2:	00 58 53             	add    %bl,0x53(%rax)
  10b8a5:	44 54                	rex.R push %rsp
  10b8a7:	00 44 4f 44          	add    %al,0x44(%rdi,%rcx,2)
  10b8ab:	47 59                	rex.RXB pop %r9
  10b8ad:	20 58 53             	and    %bl,0x53(%rax)
  10b8b0:	44 54                	rex.R push %rsp
  10b8b2:	3a 20                	cmp    (%rax),%ah
  10b8b4:	42                   	rex.X
  10b8b5:	41                   	rex.B
  10b8b6:	44 20 4d 41          	and    %r9b,0x41(%rbp)
  10b8ba:	47                   	rex.RXB
  10b8bb:	49                   	rex.WB
  10b8bc:	43 00 46 4f          	rex.XB add %al,0x4f(%r14)
  10b8c0:	55                   	push   %rbp
  10b8c1:	4e                   	rex.WRX
  10b8c2:	44 20 50 54          	and    %r10b,0x54(%rax)
  10b8c6:	52                   	push   %rdx
  10b8c7:	20 41 54             	and    %al,0x54(%rcx)
  10b8ca:	20 00                	and    %al,(%rax)
  10b8cc:	4d                   	rex.WRB
  10b8cd:	41                   	rex.B
  10b8ce:	47                   	rex.RXB
  10b8cf:	49                   	rex.WB
  10b8d0:	43 20 49 53          	rex.XB and %cl,0x53(%r9)
  10b8d4:	20 00                	and    %al,(%rax)
  10b8d6:	0a cd                	or     %ch,%cl
  10b8d8:	cd cd                	int    $0xcd
  10b8da:	0a 00                	or     (%rax),%al
  10b8dc:	41 50                	push   %r8
  10b8de:	49                   	rex.WB
  10b8df:	43 00 41 50          	rex.XB add %al,0x50(%r9)
  10b8e3:	49                   	rex.WB
  10b8e4:	43 20 41 44          	rex.XB and %al,0x44(%r9)
  10b8e8:	44 52                	rex.R push %rdx
  10b8ea:	20 00                	and    %al,(%rax)
  10b8ec:	46                   	rex.RX
  10b8ed:	4f 55                	rex.WRXB push %r13
  10b8ef:	4e                   	rex.WRX
  10b8f0:	44 20 41 50          	and    %r8b,0x50(%rcx)
  10b8f4:	49                   	rex.WB
  10b8f5:	43 20 45 4e          	rex.XB and %al,0x4e(%r13)
  10b8f9:	54                   	push   %rsp
  10b8fa:	20 54 59 50          	and    %dl,0x50(%rcx,%rbx,2)
  10b8fe:	45 20 00             	and    %r8b,(%r8)
  10b901:	49 52                	rex.WB push %r10
  10b903:	51                   	push   %rcx
  10b904:	20 49 4f             	and    %cl,0x4f(%rcx)
  10b907:	41 50                	push   %r8
  10b909:	49                   	rex.WB
  10b90a:	43 20 56 41          	rex.XB and %dl,0x41(%r14)
  10b90e:	44                   	rex.R
  10b90f:	44 52                	rex.R push %rdx
  10b911:	20 00                	and    %al,(%rax)
  10b913:	50                   	push   %rax
  10b914:	41                   	rex.B
  10b915:	47                   	rex.RXB
  10b916:	45 20 46 41          	and    %r8b,0x41(%r14)
  10b91a:	55                   	push   %rbp
  10b91b:	4c 54                	rex.WR push %rsp
  10b91d:	3a 20                	cmp    (%rax),%ah
  10b91f:	45 52                	rex.RB push %r10
  10b921:	52                   	push   %rdx
  10b922:	43                   	rex.XB
  10b923:	4f                   	rex.WRXB
  10b924:	44                   	rex.R
  10b925:	45 3d 00 52 49 50    	rex.RB cmp $0x50495200,%eax
  10b92b:	3a 20                	cmp    (%rax),%ah
  10b92d:	00 43 52             	add    %al,0x52(%rbx)
  10b930:	32 3a                	xor    (%rdx),%bh
  10b932:	20 00                	and    %al,(%rax)
  10b934:	cd cd                	int    $0xcd
  10b936:	cd cd                	int    $0xcd
  10b938:	50                   	push   %rax
  10b939:	41                   	rex.B
  10b93a:	47                   	rex.RXB
  10b93b:	45 20 46 41          	and    %r8b,0x41(%r14)
  10b93f:	55                   	push   %rbp
  10b940:	4c 54                	rex.WR push %rsp
  10b942:	cd cd                	int    $0xcd
  10b944:	cd cd                	int    $0xcd
  10b946:	0a 45 52             	or     0x52(%rbp),%al
  10b949:	52                   	push   %rdx
  10b94a:	43                   	rex.XB
  10b94b:	4f                   	rex.WRXB
  10b94c:	44                   	rex.R
  10b94d:	45 3d 00 52 49 50    	rex.RB cmp $0x50495200,%eax
  10b953:	3d 00 43 52 32       	cmp    $0x32524300,%eax
  10b958:	3d 00 42 4f 4f       	cmp    $0x4f4f4200,%eax
  10b95d:	54                   	push   %rsp
  10b95e:	4c                   	rex.WR
  10b95f:	4f                   	rex.WRXB
  10b960:	41                   	rex.B
  10b961:	44                   	rex.R
  10b962:	45 52                	rex.RB push %r10
  10b964:	20 4d 41             	and    %cl,0x41(%rbp)
  10b967:	47                   	rex.RXB
  10b968:	49                   	rex.WB
  10b969:	43 20 50 41          	rex.XB and %dl,0x41(%r8)
  10b96d:	53                   	push   %rbx
  10b96e:	53                   	push   %rbx
  10b96f:	0d 0a 00 42 4f       	or     $0x4f42000a,%eax
  10b974:	4f 54                	rex.WRXB push %r12
  10b976:	4c                   	rex.WR
  10b977:	4f                   	rex.WRXB
  10b978:	41                   	rex.B
  10b979:	44                   	rex.R
  10b97a:	45 52                	rex.RB push %r10
  10b97c:	20 4d 41             	and    %cl,0x41(%rbp)
  10b97f:	47                   	rex.RXB
  10b980:	49                   	rex.WB
  10b981:	43 20 46 41          	rex.XB and %al,0x41(%r14)
  10b985:	49                   	rex.WB
  10b986:	4c 0d 0a 00 52 45    	rex.WR or $0x4552000a,%rax
  10b98c:	41                   	rex.B
  10b98d:	43                   	rex.XB
  10b98e:	48                   	rex.W
  10b98f:	45                   	rex.RB
  10b990:	44 20 45 4e          	and    %r8b,0x4e(%rbp)
  10b994:	44 20 4f 46          	and    %r9b,0x46(%rdi)
  10b998:	20 4b 52             	and    %cl,0x52(%rbx)
  10b99b:	4e                   	rex.WRX
  10b99c:	4c 20 4d 41          	rex.WR and %r9b,0x41(%rbp)
  10b9a0:	49                   	rex.WB
  10b9a1:	4e 0d 0a 00 46 4f    	rex.WRX or $0x4f46000a,%rax
  10b9a7:	55                   	push   %rbp
  10b9a8:	4e                   	rex.WRX
  10b9a9:	44 20 4e 56          	and    %r9b,0x56(%rsi)
  10b9ad:	4d                   	rex.WRB
  10b9ae:	45 0d 0a 00 4f 59    	rex.RB or $0x594f000a,%eax
  10b9b4:	59                   	pop    %rcx
  10b9b5:	59                   	pop    %rcx
  10b9b6:	59                   	pop    %rcx
  10b9b7:	59                   	pop    %rcx
  10b9b8:	59                   	pop    %rcx
  10b9b9:	21 20                	and    %esp,(%rax)
  10b9bb:	4f                   	rex.WRXB
  10b9bc:	4f                   	rex.WRXB
  10b9bd:	4d 21 20             	and    %r12,(%r8)
  10b9c0:	48                   	rex.W
  10b9c1:	45                   	rex.RB
  10b9c2:	4c 50                	rex.WR push %rax
  10b9c4:	20 4d 45             	and    %cl,0x45(%rbp)
  10b9c7:	00 53 48             	add    %dl,0x48(%rbx)
  10b9ca:	49 54                	rex.WB push %r12
  10b9cc:	21 20                	and    %esp,(%rax)
  10b9ce:	69 6e 76 61 6c 69 64 	imul   $0x64696c61,0x76(%rsi),%ebp
  10b9d5:	20 6d 61             	and    %ch,0x61(%rbp)
  10b9d8:	67 69 63 20 00 70 64 	imul   $0x70647000,0x20(%ebx),%esp
  10b9df:	70 
  10b9e0:	74 5f                	je     10ba41 <font_bits+0xa41>
  10b9e2:	74 61                	je     10ba45 <font_bits+0xa45>
  10b9e4:	62                   	(bad)
  10b9e5:	6c                   	insb   (%dx),%es:(%rdi)
  10b9e6:	65 20 69 73          	and    %ch,%gs:0x73(%rcx)
  10b9ea:	20 30                	and    %dh,(%rax)
  10b9ec:	00 5a 45             	add    %bl,0x45(%rdx)
  10b9ef:	52                   	push   %rdx
  10b9f0:	4f 20 45 4e          	rex.WRXB and %r8b,0x4e(%r13)
  10b9f4:	54                   	push   %rsp
  10b9f5:	52                   	push   %rdx
  10b9f6:	59                   	pop    %rcx
  10b9f7:	20 41 44             	and    %al,0x44(%rcx)
  10b9fa:	44 52                	rex.R push %rdx
  10b9fc:	3a 20                	cmp    (%rax),%ah
  10b9fe:	00 50 41             	add    %dl,0x41(%rax)
  10ba01:	4e                   	rex.WRX
  10ba02:	49                   	rex.WB
  10ba03:	4b 3a 20             	rex.WXB cmp (%r8),%spl
  10ba06:	53                   	push   %rbx
  10ba07:	49 5a                	rex.WB pop %r10
  10ba09:	45 20 49 53          	and    %r9b,0x53(%r9)
  10ba0d:	20 5a 45             	and    %bl,0x45(%rdx)
  10ba10:	52                   	push   %rdx
  10ba11:	4f 20 46 49          	rex.WRXB and %r8b,0x49(%r14)
  10ba15:	4c                   	rex.WR
  10ba16:	4c                   	rex.WR
  10ba17:	45                   	rex.RB
  10ba18:	44 20 45 4e          	and    %r8b,0x4e(%rbp)
  10ba1c:	54                   	push   %rsp
  10ba1d:	49 52                	rex.WB push %r10
  10ba1f:	45 20 52 41          	and    %r10b,0x41(%r10)
  10ba23:	4d 00 50 41          	rex.WRB add %r10b,0x41(%r8)
  10ba27:	4e                   	rex.WRX
  10ba28:	49                   	rex.WB
  10ba29:	4b 3a 20             	rex.WXB cmp (%r8),%spl
  10ba2c:	53                   	push   %rbx
  10ba2d:	4f                   	rex.WRXB
  10ba2e:	4d                   	rex.WRB
  10ba2f:	45                   	rex.RB
  10ba30:	48                   	rex.W
  10ba31:	4f 57                	rex.WRXB push %r15
  10ba33:	20 52 41             	and    %dl,0x41(%rdx)
  10ba36:	4e 20 4f 55          	rex.WRX and %r9b,0x55(%rdi)
  10ba3a:	54                   	push   %rsp
  10ba3b:	20 4f 46             	and    %cl,0x46(%rdi)
  10ba3e:	20 52 41             	and    %dl,0x41(%rdx)
  10ba41:	4d 21 20             	and    %r12,(%r8)
  10ba44:	41                   	rex.B
  10ba45:	44                   	rex.R
  10ba46:	44 52                	rex.R push %rdx
  10ba48:	3a 00                	cmp    (%rax),%al
  10ba4a:	42 20 49 53          	rex.X and %cl,0x53(%rcx)
  10ba4e:	20 4e 55             	and    %cl,0x55(%rsi)
  10ba51:	4c                   	rex.WR
  10ba52:	4c 3a 20             	rex.WR cmp (%rax),%r12b
  10ba55:	00 54 48 49          	add    %dl,0x49(%rax,%rcx,2)
  10ba59:	53                   	push   %rbx
  10ba5a:	0d 0a 00 54 45       	or     $0x4554000a,%eax
  10ba5f:	53                   	push   %rbx
  10ba60:	54                   	push   %rsp
  10ba61:	43 52                	rex.XB push %r10
  10ba63:	41 53                	push   %r11
  10ba65:	48 31 0a             	xor    %rcx,(%rdx)
  10ba68:	00 54 45 53          	add    %dl,0x53(%rbp,%rax,2)
  10ba6c:	54                   	push   %rsp
  10ba6d:	43 52                	rex.XB push %r10
  10ba6f:	41 53                	push   %r11
  10ba71:	48 32 0a             	rex.W xor (%rdx),%cl
	...

Disassembly of section .rodata.str1.16:

000000000010ba80 <.rodata.str1.16>:
  10ba80:	30 31                	xor    %dh,(%rcx)
  10ba82:	32 33                	xor    (%rbx),%dh
  10ba84:	34 35                	xor    $0x35,%al
  10ba86:	36 37                	ss (bad)
  10ba88:	38 39                	cmp    %bh,(%rcx)
  10ba8a:	41                   	rex.B
  10ba8b:	42                   	rex.X
  10ba8c:	43                   	rex.XB
  10ba8d:	44                   	rex.R
  10ba8e:	45                   	rex.RB
  10ba8f:	46                   	rex.RX
	...

Disassembly of section .rodata.cst16:

000000000010baa0 <.rodata.cst16>:
  10baa0:	0c 00                	or     $0x0,%al
  10baa2:	00 00                	add    %al,(%rax)
  10baa4:	00 00                	add    %al,(%rax)
  10baa6:	00 00                	add    %al,(%rax)
  10baa8:	0d 00 00 00 00       	or     $0x0,%eax
  10baad:	00 00                	add    %al,(%rax)
  10baaf:	00 00                	add    %al,(%rax)
  10bab1:	20 00                	and    %al,(%rax)
  10bab3:	00 00                	add    %al,(%rax)
  10bab5:	00 00                	add    %al,(%rax)
  10bab7:	00 00                	add    %al,(%rax)
  10bab9:	20 00                	and    %al,(%rax)
  10babb:	00 00                	add    %al,(%rax)
  10babd:	00 00                	add    %al,(%rax)
  10babf:	00 00                	add    %al,(%rax)
  10bac1:	40 00 00             	rex add %al,(%rax)
  10bac4:	00 00                	add    %al,(%rax)
  10bac6:	00 00                	add    %al,(%rax)
  10bac8:	00 40 00             	add    %al,0x0(%rax)
  10bacb:	00 00                	add    %al,(%rax)
  10bacd:	00 00                	add    %al,(%rax)
  10bacf:	00 00                	add    %al,(%rax)
  10bad1:	60                   	(bad)
  10bad2:	00 00                	add    %al,(%rax)
  10bad4:	00 00                	add    %al,(%rax)
  10bad6:	00 00                	add    %al,(%rax)
  10bad8:	00 60 00             	add    %ah,0x0(%rax)
  10badb:	00 00                	add    %al,(%rax)
  10badd:	00 00                	add    %al,(%rax)
  10badf:	00 08                	add    %cl,(%rax)
  10bae1:	00 00                	add    %al,(%rax)
  10bae3:	00 00                	add    %al,(%rax)
  10bae5:	00 00                	add    %al,(%rax)
  10bae7:	00 08                	add    %cl,(%rax)
  10bae9:	00 00                	add    %al,(%rax)
  10baeb:	00 00                	add    %al,(%rax)
  10baed:	00 00                	add    %al,(%rax)
	...

Disassembly of section .bss:

000000000010c000 <sys_xsdt_addr>:
	...

000000000010c008 <sys_rsdp_desc>:
	...

000000000010c030 <ioapic_addr>:
	...

000000000010c038 <madt>:
	...

000000000010c040 <th>:
	...

000000000010c048 <tw>:
	...

000000000010c050 <text_buf>:
	...

000000000010c058 <w>:
	...

000000000010c060 <h>:
	...

000000000010c068 <bb>:
	...

000000000010c070 <p>:
	...

000000000010c078 <tcury>:
	...

000000000010c080 <tcurx>:
	...

000000000010c090 <idt_table>:
	...

000000000010d080 <idtr>:
	...

000000000010d090 <m_info>:
	...

000000000010d098 <l_warningCount>:
	...

000000000010d0a0 <l_memRoot>:
	...

000000000010d0a8 <l_bestBet>:
	...

000000000010d0b0 <l_inuse>:
	...

000000000010d0b8 <l_errorCount>:
	...

000000000010d0c0 <l_possibleOverruns>:
	...

000000000010d0c8 <l_allocated>:
	...

000000000010e000 <phys_mem_map>:
	...

000000000110e000 <pml4_table>:
	...

000000000110f000 <page_heap>:
	...

000000000110f010 <pci_root>:
	...

000000000110f020 <stack_bottom>:
	...

000000000111f020 <stack_top>:
	...

Disassembly of section .comment:

0000000000000000 <.comment>:
   0:	63 6c 61 6e          	movsxd 0x6e(%rcx,%riz,2),%ebp
   4:	67 20 76 65          	and    %dh,0x65(%esi)
   8:	72 73                	jb     7d <_krnl_start-0xfff83>
   a:	69 6f 6e 20 31 35 2e 	imul   $0x2e353120,0x6e(%rdi),%ebp
  11:	30 2e                	xor    %ch,(%rsi)
  13:	37                   	(bad)
	...
