
posh:     file format elf64-x86-64


Disassembly of section .init:

00000000004000b0 <_init>:
  4000b0:	e8 3b 01 00 00       	call   4001f0 <frame_dummy>
  4000b5:	e8 16 22 00 00       	call   4022d0 <__do_global_ctors_aux>
  4000ba:	c2 00 00             	ret    $0x0

Disassembly of section .text:

00000000004000c0 <abort>:
  4000c0:	48 c7 c5 00 00 00 00 	mov    $0x0,%rbp
  4000c7:	55                   	push   %rbp
  4000c8:	55                   	push   %rbp
  4000c9:	48 89 e5             	mov    %rsp,%rbp
  4000cc:	56                   	push   %rsi
  4000cd:	57                   	push   %rdi
  4000ce:	e8 dd ff ff ff       	call   4000b0 <_init>
  4000d3:	5f                   	pop    %rdi
  4000d4:	5e                   	pop    %rsi
  4000d5:	e8 1f 02 00 00       	call   4002f9 <main>
  4000da:	48 89 c6             	mov    %rax,%rsi
  4000dd:	48 c7 c7 00 00 00 00 	mov    $0x0,%rdi
  4000e4:	cd f0                	int    $0xf0
  4000e6:	66 2e 0f 1f 84 00 00 	cs nopw 0x0(%rax,%rax,1)
  4000ed:	00 00 00 

00000000004000f0 <deregister_tm_clones>:
  4000f0:	b8 88 48 40 00       	mov    $0x404888,%eax
  4000f5:	48 3d 88 48 40 00    	cmp    $0x404888,%rax
  4000fb:	74 13                	je     400110 <deregister_tm_clones+0x20>
  4000fd:	b8 00 00 00 00       	mov    $0x0,%eax
  400102:	48 85 c0             	test   %rax,%rax
  400105:	74 09                	je     400110 <deregister_tm_clones+0x20>
  400107:	bf 88 48 40 00       	mov    $0x404888,%edi
  40010c:	ff e0                	jmp    *%rax
  40010e:	66 90                	xchg   %ax,%ax
  400110:	c3                   	ret
  400111:	66 66 2e 0f 1f 84 00 	data16 cs nopw 0x0(%rax,%rax,1)
  400118:	00 00 00 00 
  40011c:	0f 1f 40 00          	nopl   0x0(%rax)

0000000000400120 <register_tm_clones>:
  400120:	be 88 48 40 00       	mov    $0x404888,%esi
  400125:	48 81 ee 88 48 40 00 	sub    $0x404888,%rsi
  40012c:	48 89 f0             	mov    %rsi,%rax
  40012f:	48 c1 ee 3f          	shr    $0x3f,%rsi
  400133:	48 c1 f8 03          	sar    $0x3,%rax
  400137:	48 01 c6             	add    %rax,%rsi
  40013a:	48 d1 fe             	sar    $1,%rsi
  40013d:	74 11                	je     400150 <register_tm_clones+0x30>
  40013f:	b8 00 00 00 00       	mov    $0x0,%eax
  400144:	48 85 c0             	test   %rax,%rax
  400147:	74 07                	je     400150 <register_tm_clones+0x30>
  400149:	bf 88 48 40 00       	mov    $0x404888,%edi
  40014e:	ff e0                	jmp    *%rax
  400150:	c3                   	ret
  400151:	66 66 2e 0f 1f 84 00 	data16 cs nopw 0x0(%rax,%rax,1)
  400158:	00 00 00 00 
  40015c:	0f 1f 40 00          	nopl   0x0(%rax)

0000000000400160 <__do_global_dtors_aux>:
  400160:	80 3d 39 47 00 00 00 	cmpb   $0x0,0x4739(%rip)        # 4048a0 <completed.2>
  400167:	75 77                	jne    4001e0 <__do_global_dtors_aux+0x80>
  400169:	55                   	push   %rbp
  40016a:	48 8b 05 37 47 00 00 	mov    0x4737(%rip),%rax        # 4048a8 <dtor_idx.1>
  400171:	48 89 e5             	mov    %rsp,%rbp
  400174:	41 54                	push   %r12
  400176:	41 bc 50 40 40 00    	mov    $0x404050,%r12d
  40017c:	53                   	push   %rbx
  40017d:	bb 58 40 40 00       	mov    $0x404058,%ebx
  400182:	48 81 eb 50 40 40 00 	sub    $0x404050,%rbx
  400189:	48 c1 fb 03          	sar    $0x3,%rbx
  40018d:	48 83 eb 01          	sub    $0x1,%rbx
  400191:	48 39 d8             	cmp    %rbx,%rax
  400194:	73 25                	jae    4001bb <__do_global_dtors_aux+0x5b>
  400196:	66 2e 0f 1f 84 00 00 	cs nopw 0x0(%rax,%rax,1)
  40019d:	00 00 00 
  4001a0:	48 83 c0 01          	add    $0x1,%rax
  4001a4:	48 89 05 fd 46 00 00 	mov    %rax,0x46fd(%rip)        # 4048a8 <dtor_idx.1>
  4001ab:	41 ff 14 c4          	call   *(%r12,%rax,8)
  4001af:	48 8b 05 f2 46 00 00 	mov    0x46f2(%rip),%rax        # 4048a8 <dtor_idx.1>
  4001b6:	48 39 d8             	cmp    %rbx,%rax
  4001b9:	72 e5                	jb     4001a0 <__do_global_dtors_aux+0x40>
  4001bb:	e8 30 ff ff ff       	call   4000f0 <deregister_tm_clones>
  4001c0:	b8 00 00 00 00       	mov    $0x0,%eax
  4001c5:	48 85 c0             	test   %rax,%rax
  4001c8:	74 0a                	je     4001d4 <__do_global_dtors_aux+0x74>
  4001ca:	bf b8 28 40 00       	mov    $0x4028b8,%edi
  4001cf:	e8 2c fe bf ff       	call   0 <_init-0x4000b0>
  4001d4:	5b                   	pop    %rbx
  4001d5:	41 5c                	pop    %r12
  4001d7:	c6 05 c2 46 00 00 01 	movb   $0x1,0x46c2(%rip)        # 4048a0 <completed.2>
  4001de:	5d                   	pop    %rbp
  4001df:	c3                   	ret
  4001e0:	c3                   	ret
  4001e1:	66 66 2e 0f 1f 84 00 	data16 cs nopw 0x0(%rax,%rax,1)
  4001e8:	00 00 00 00 
  4001ec:	0f 1f 40 00          	nopl   0x0(%rax)

00000000004001f0 <frame_dummy>:
  4001f0:	b8 00 00 00 00       	mov    $0x0,%eax
  4001f5:	48 85 c0             	test   %rax,%rax
  4001f8:	74 1e                	je     400218 <frame_dummy+0x28>
  4001fa:	55                   	push   %rbp
  4001fb:	be c0 48 40 00       	mov    $0x4048c0,%esi
  400200:	bf b8 28 40 00       	mov    $0x4028b8,%edi
  400205:	48 89 e5             	mov    %rsp,%rbp
  400208:	e8 f3 fd bf ff       	call   0 <_init-0x4000b0>
  40020d:	5d                   	pop    %rbp
  40020e:	e9 0d ff ff ff       	jmp    400120 <register_tm_clones>
  400213:	0f 1f 44 00 00       	nopl   0x0(%rax,%rax,1)
  400218:	e9 03 ff ff ff       	jmp    400120 <register_tm_clones>

000000000040021d <syscall1>:
  40021d:	55                   	push   %rbp
  40021e:	48 89 e5             	mov    %rsp,%rbp
  400221:	89 7d ec             	mov    %edi,-0x14(%rbp)
  400224:	48 89 75 e0          	mov    %rsi,-0x20(%rbp)
  400228:	8b 45 ec             	mov    -0x14(%rbp),%eax
  40022b:	48 8b 55 e0          	mov    -0x20(%rbp),%rdx
  40022f:	89 c7                	mov    %eax,%edi
  400231:	48 89 d6             	mov    %rdx,%rsi
  400234:	cd f0                	int    $0xf0
  400236:	48 89 45 f8          	mov    %rax,-0x8(%rbp)
  40023a:	48 8b 45 f8          	mov    -0x8(%rbp),%rax
  40023e:	5d                   	pop    %rbp
  40023f:	c3                   	ret

0000000000400240 <syscall2>:
  400240:	55                   	push   %rbp
  400241:	48 89 e5             	mov    %rsp,%rbp
  400244:	89 7d ec             	mov    %edi,-0x14(%rbp)
  400247:	48 89 75 e0          	mov    %rsi,-0x20(%rbp)
  40024b:	48 89 55 d8          	mov    %rdx,-0x28(%rbp)
  40024f:	8b 45 ec             	mov    -0x14(%rbp),%eax
  400252:	48 8b 4d e0          	mov    -0x20(%rbp),%rcx
  400256:	48 8b 55 d8          	mov    -0x28(%rbp),%rdx
  40025a:	89 c7                	mov    %eax,%edi
  40025c:	48 89 ce             	mov    %rcx,%rsi
  40025f:	cd f0                	int    $0xf0
  400261:	48 89 45 f8          	mov    %rax,-0x8(%rbp)
  400265:	48 8b 45 f8          	mov    -0x8(%rbp),%rax
  400269:	5d                   	pop    %rbp
  40026a:	c3                   	ret

000000000040026b <syscall3>:
  40026b:	55                   	push   %rbp
  40026c:	48 89 e5             	mov    %rsp,%rbp
  40026f:	89 7d ec             	mov    %edi,-0x14(%rbp)
  400272:	48 89 75 e0          	mov    %rsi,-0x20(%rbp)
  400276:	48 89 55 d8          	mov    %rdx,-0x28(%rbp)
  40027a:	48 89 4d d0          	mov    %rcx,-0x30(%rbp)
  40027e:	8b 45 ec             	mov    -0x14(%rbp),%eax
  400281:	48 8b 75 e0          	mov    -0x20(%rbp),%rsi
  400285:	48 8b 55 d8          	mov    -0x28(%rbp),%rdx
  400289:	48 8b 4d d0          	mov    -0x30(%rbp),%rcx
  40028d:	89 c7                	mov    %eax,%edi
  40028f:	cd f0                	int    $0xf0
  400291:	48 89 45 f8          	mov    %rax,-0x8(%rbp)
  400295:	48 8b 45 f8          	mov    -0x8(%rbp),%rax
  400299:	5d                   	pop    %rbp
  40029a:	c3                   	ret

000000000040029b <syscall4>:
  40029b:	55                   	push   %rbp
  40029c:	48 89 e5             	mov    %rsp,%rbp
  40029f:	89 7d ec             	mov    %edi,-0x14(%rbp)
  4002a2:	48 89 75 e0          	mov    %rsi,-0x20(%rbp)
  4002a6:	48 89 55 d8          	mov    %rdx,-0x28(%rbp)
  4002aa:	48 89 4d d0          	mov    %rcx,-0x30(%rbp)
  4002ae:	4c 89 45 c8          	mov    %r8,-0x38(%rbp)
  4002b2:	48 8b 45 c8          	mov    -0x38(%rbp),%rax
  4002b6:	49 89 c0             	mov    %rax,%r8
  4002b9:	8b 45 ec             	mov    -0x14(%rbp),%eax
  4002bc:	48 8b 75 e0          	mov    -0x20(%rbp),%rsi
  4002c0:	48 8b 55 d8          	mov    -0x28(%rbp),%rdx
  4002c4:	48 8b 4d d0          	mov    -0x30(%rbp),%rcx
  4002c8:	89 c7                	mov    %eax,%edi
  4002ca:	cd f0                	int    $0xf0
  4002cc:	48 89 45 f8          	mov    %rax,-0x8(%rbp)
  4002d0:	48 8b 45 f8          	mov    -0x8(%rbp),%rax
  4002d4:	5d                   	pop    %rbp
  4002d5:	c3                   	ret

00000000004002d6 <next_tok.0>:
  4002d6:	55                   	push   %rbp
  4002d7:	48 89 e5             	mov    %rsp,%rbp
  4002da:	48 83 ec 10          	sub    $0x10,%rsp
  4002de:	4c 89 d0             	mov    %r10,%rax
  4002e1:	4c 89 55 f8          	mov    %r10,-0x8(%rbp)
  4002e5:	48 89 c2             	mov    %rax,%rdx
  4002e8:	be 20 23 40 00       	mov    $0x402320,%esi
  4002ed:	bf 00 00 00 00       	mov    $0x0,%edi
  4002f2:	e8 89 1b 00 00       	call   401e80 <strtok_r>
  4002f7:	c9                   	leave
  4002f8:	c3                   	ret

00000000004002f9 <main>:
  4002f9:	55                   	push   %rbp
  4002fa:	48 89 e5             	mov    %rsp,%rbp
  4002fd:	53                   	push   %rbx
  4002fe:	48 81 ec 98 12 00 00 	sub    $0x1298,%rsp
  400305:	48 8d 45 10          	lea    0x10(%rbp),%rax
  400309:	48 89 85 78 ff ff ff 	mov    %rax,-0x88(%rbp)
  400310:	48 b8 50 69 65 63 65 	movabs $0x666f2d6563656950,%rax
  400317:	2d 6f 66 
  40031a:	48 ba 2d 73 68 65 6c 	movabs $0x76206c6c6568732d,%rdx
  400321:	6c 20 76 
  400324:	48 89 85 20 ff ff ff 	mov    %rax,-0xe0(%rbp)
  40032b:	48 89 95 28 ff ff ff 	mov    %rdx,-0xd8(%rbp)
  400332:	48 b8 31 2e 30 0a 41 	movabs $0x616220410a302e31,%rax
  400339:	20 62 61 
  40033c:	48 ba 64 6c 79 20 77 	movabs $0x7469727720796c64,%rdx
  400343:	72 69 74 
  400346:	48 89 85 30 ff ff ff 	mov    %rax,-0xd0(%rbp)
  40034d:	48 89 95 38 ff ff ff 	mov    %rdx,-0xc8(%rbp)
  400354:	48 b8 74 65 6e 20 64 	movabs $0x74637564206e6574,%rax
  40035b:	75 63 74 
  40035e:	48 ba 2d 74 61 70 65 	movabs $0x732064657061742d,%rdx
  400365:	64 20 73 
  400368:	48 89 85 40 ff ff ff 	mov    %rax,-0xc0(%rbp)
  40036f:	48 89 95 48 ff ff ff 	mov    %rdx,-0xb8(%rbp)
  400376:	48 b8 68 65 6c 6c 20 	movabs $0x726f66206c6c6568,%rax
  40037d:	66 6f 72 
  400380:	48 ba 20 53 49 45 47 	movabs $0x4952464745495320,%rdx
  400387:	46 52 49 
  40038a:	48 89 85 50 ff ff ff 	mov    %rax,-0xb0(%rbp)
  400391:	48 89 95 58 ff ff ff 	mov    %rdx,-0xa8(%rbp)
  400398:	48 b8 46 52 49 45 44 	movabs $0xa0a4445495246,%rax
  40039f:	0a 0a 00 
  4003a2:	48 89 85 5d ff ff ff 	mov    %rax,-0xa3(%rbp)
  4003a9:	48 8d 85 20 ff ff ff 	lea    -0xe0(%rbp),%rax
  4003b0:	48 89 c7             	mov    %rax,%rdi
  4003b3:	e8 08 13 00 00       	call   4016c0 <puts>
  4003b8:	be 22 23 40 00       	mov    $0x402322,%esi
  4003bd:	bf 08 00 00 00       	mov    $0x8,%edi
  4003c2:	e8 56 fe ff ff       	call   40021d <syscall1>
  4003c7:	48 89 45 c8          	mov    %rax,-0x38(%rbp)
  4003cb:	48 83 7d c8 ea       	cmpq   $0xffffffffffffffea,-0x38(%rbp)
  4003d0:	75 17                	jne    4003e9 <main+0xf0>
  4003d2:	ba 14 00 00 00       	mov    $0x14,%edx
  4003d7:	be 2c 23 40 00       	mov    $0x40232c,%esi
  4003dc:	bf 02 00 00 00       	mov    $0x2,%edi
  4003e1:	e8 5a fe ff ff       	call   400240 <syscall2>
  4003e6:	90                   	nop
  4003e7:	eb fd                	jmp    4003e6 <main+0xed>
  4003e9:	48 8d 95 70 ee ff ff 	lea    -0x1190(%rbp),%rdx
  4003f0:	b8 00 00 00 00       	mov    $0x0,%eax
  4003f5:	b9 00 02 00 00       	mov    $0x200,%ecx
  4003fa:	48 89 d7             	mov    %rdx,%rdi
  4003fd:	f3 48 ab             	rep stos %rax,(%rdi)
  400400:	48 8d 85 70 ee ff ff 	lea    -0x1190(%rbp),%rax
  400407:	be 00 10 00 00       	mov    $0x1000,%esi
  40040c:	48 89 c7             	mov    %rax,%rdi
  40040f:	e8 9c 1e 00 00       	call   4022b0 <getcwd>
  400414:	48 8d 85 70 ee ff ff 	lea    -0x1190(%rbp),%rax
  40041b:	48 89 c7             	mov    %rax,%rdi
  40041e:	e8 9d 12 00 00       	call   4016c0 <puts>
  400423:	bf 41 23 40 00       	mov    $0x402341,%edi
  400428:	e8 93 12 00 00       	call   4016c0 <puts>
  40042d:	c6 45 ef 00          	movb   $0x0,-0x11(%rbp)
  400431:	48 8d 85 90 fe ff ff 	lea    -0x170(%rbp),%rax
  400438:	48 89 c6             	mov    %rax,%rsi
  40043b:	b8 00 00 00 00       	mov    $0x0,%eax
  400440:	ba 10 00 00 00       	mov    $0x10,%edx
  400445:	48 89 f7             	mov    %rsi,%rdi
  400448:	48 89 d1             	mov    %rdx,%rcx
  40044b:	f3 48 ab             	rep stos %rax,(%rdi)
  40044e:	48 8d 95 1f ff ff ff 	lea    -0xe1(%rbp),%rdx
  400455:	48 8b 45 c8          	mov    -0x38(%rbp),%rax
  400459:	41 b8 00 00 00 00    	mov    $0x0,%r8d
  40045f:	b9 01 00 00 00       	mov    $0x1,%ecx
  400464:	48 89 c6             	mov    %rax,%rsi
  400467:	bf 06 00 00 00       	mov    $0x6,%edi
  40046c:	e8 2a fe ff ff       	call   40029b <syscall4>
  400471:	0f b6 85 1f ff ff ff 	movzbl -0xe1(%rbp),%eax
  400478:	3c 0a                	cmp    $0xa,%al
  40047a:	74 6f                	je     4004eb <main+0x1f2>
  40047c:	0f b6 85 1f ff ff ff 	movzbl -0xe1(%rbp),%eax
  400483:	3c 08                	cmp    $0x8,%al
  400485:	75 29                	jne    4004b0 <main+0x1b7>
  400487:	80 7d ef 00          	cmpb   $0x0,-0x11(%rbp)
  40048b:	74 c1                	je     40044e <main+0x155>
  40048d:	bf 44 23 40 00       	mov    $0x402344,%edi
  400492:	e8 29 12 00 00       	call   4016c0 <puts>
  400497:	0f b6 45 ef          	movzbl -0x11(%rbp),%eax
  40049b:	8d 50 ff             	lea    -0x1(%rax),%edx
  40049e:	88 55 ef             	mov    %dl,-0x11(%rbp)
  4004a1:	0f b6 c0             	movzbl %al,%eax
  4004a4:	48 98                	cltq
  4004a6:	c6 84 05 90 fe ff ff 	movb   $0x0,-0x170(%rbp,%rax,1)
  4004ad:	00 
  4004ae:	eb 9e                	jmp    40044e <main+0x155>
  4004b0:	48 8d 85 1f ff ff ff 	lea    -0xe1(%rbp),%rax
  4004b7:	ba 01 00 00 00       	mov    $0x1,%edx
  4004bc:	48 89 c6             	mov    %rax,%rsi
  4004bf:	bf 02 00 00 00       	mov    $0x2,%edi
  4004c4:	e8 77 fd ff ff       	call   400240 <syscall2>
  4004c9:	0f b6 45 ef          	movzbl -0x11(%rbp),%eax
  4004cd:	8d 50 01             	lea    0x1(%rax),%edx
  4004d0:	88 55 ef             	mov    %dl,-0x11(%rbp)
  4004d3:	0f b6 c0             	movzbl %al,%eax
  4004d6:	0f b6 95 1f ff ff ff 	movzbl -0xe1(%rbp),%edx
  4004dd:	48 98                	cltq
  4004df:	88 94 05 90 fe ff ff 	mov    %dl,-0x170(%rbp,%rax,1)
  4004e6:	e9 63 ff ff ff       	jmp    40044e <main+0x155>
  4004eb:	90                   	nop
  4004ec:	bf 48 23 40 00       	mov    $0x402348,%edi
  4004f1:	e8 ca 11 00 00       	call   4016c0 <puts>
  4004f6:	80 7d ef 00          	cmpb   $0x0,-0x11(%rbp)
  4004fa:	0f 84 64 03 00 00    	je     400864 <main+0x56b>
  400500:	b8 00 00 00 00       	mov    $0x0,%eax
  400505:	48 89 85 70 ff ff ff 	mov    %rax,-0x90(%rbp)
  40050c:	48 8d 95 70 ff ff ff 	lea    -0x90(%rbp),%rdx
  400513:	48 8d 85 90 fe ff ff 	lea    -0x170(%rbp),%rax
  40051a:	be 20 23 40 00       	mov    $0x402320,%esi
  40051f:	48 89 c7             	mov    %rax,%rdi
  400522:	e8 59 19 00 00       	call   401e80 <strtok_r>
  400527:	48 89 45 e0          	mov    %rax,-0x20(%rbp)
  40052b:	48 8d 85 70 ff ff ff 	lea    -0x90(%rbp),%rax
  400532:	49 89 c2             	mov    %rax,%r10
  400535:	b8 00 00 00 00       	mov    $0x0,%eax
  40053a:	e8 97 fd ff ff       	call   4002d6 <next_tok.0>
  40053f:	48 89 45 d8          	mov    %rax,-0x28(%rbp)
  400543:	48 83 7d d8 00       	cmpq   $0x0,-0x28(%rbp)
  400548:	75 08                	jne    400552 <main+0x259>
  40054a:	48 c7 45 d8 4a 23 40 	movq   $0x40234a,-0x28(%rbp)
  400551:	00 
  400552:	48 8b 45 e0          	mov    -0x20(%rbp),%rax
  400556:	0f b6 00             	movzbl (%rax),%eax
  400559:	3c 2e                	cmp    $0x2e,%al
  40055b:	74 0f                	je     40056c <main+0x273>
  40055d:	48 8b 45 e0          	mov    -0x20(%rbp),%rax
  400561:	0f b6 00             	movzbl (%rax),%eax
  400564:	3c 2f                	cmp    $0x2f,%al
  400566:	0f 85 8c 00 00 00    	jne    4005f8 <main+0x2ff>
  40056c:	48 8b 45 e0          	mov    -0x20(%rbp),%rax
  400570:	b9 00 00 00 00       	mov    $0x0,%ecx
  400575:	ba 00 00 00 00       	mov    $0x0,%edx
  40057a:	be 00 00 00 00       	mov    $0x0,%esi
  40057f:	48 89 c7             	mov    %rax,%rdi
  400582:	e8 89 1b 00 00       	call   402110 <spawn>
  400587:	48 89 45 90          	mov    %rax,-0x70(%rbp)
  40058b:	bf 4d 23 40 00       	mov    $0x40234d,%edi
  400590:	e8 2b 11 00 00       	call   4016c0 <puts>
  400595:	48 83 7d 90 00       	cmpq   $0x0,-0x70(%rbp)
  40059a:	7f 24                	jg     4005c0 <main+0x2c7>
  40059c:	48 8b 45 90          	mov    -0x70(%rbp),%rax
  4005a0:	f7 d8                	neg    %eax
  4005a2:	89 c7                	mov    %eax,%edi
  4005a4:	e8 d7 19 00 00       	call   401f80 <strerror>
  4005a9:	48 89 c7             	mov    %rax,%rdi
  4005ac:	e8 0f 11 00 00       	call   4016c0 <puts>
  4005b1:	bf 48 23 40 00       	mov    $0x402348,%edi
  4005b6:	e8 05 11 00 00       	call   4016c0 <puts>
  4005bb:	e9 29 fe ff ff       	jmp    4003e9 <main+0xf0>
  4005c0:	48 8d 85 70 fe ff ff 	lea    -0x190(%rbp),%rax
  4005c7:	48 89 c7             	mov    %rax,%rdi
  4005ca:	e8 71 1b 00 00       	call   402140 <gmsg>
  4005cf:	48 8d 85 70 fe ff ff 	lea    -0x190(%rbp),%rax
  4005d6:	48 83 c0 14          	add    $0x14,%rax
  4005da:	8b 00                	mov    (%rax),%eax
  4005dc:	89 45 8c             	mov    %eax,-0x74(%rbp)
  4005df:	83 7d 8c 00          	cmpl   $0x0,-0x74(%rbp)
  4005e3:	0f 84 52 02 00 00    	je     40083b <main+0x542>
  4005e9:	bf 52 23 40 00       	mov    $0x402352,%edi
  4005ee:	e8 cd 10 00 00       	call   4016c0 <puts>
  4005f3:	e9 43 02 00 00       	jmp    40083b <main+0x542>
  4005f8:	48 8b 45 e0          	mov    -0x20(%rbp),%rax
  4005fc:	be 63 23 40 00       	mov    $0x402363,%esi
  400601:	48 89 c7             	mov    %rax,%rdi
  400604:	e8 27 15 00 00       	call   401b30 <strcmp>
  400609:	85 c0                	test   %eax,%eax
  40060b:	75 0a                	jne    400617 <main+0x31e>
  40060d:	bf 00 00 00 00       	mov    $0x0,%edi
  400612:	e8 19 1b 00 00       	call   402130 <exit>
  400617:	48 8b 45 e0          	mov    -0x20(%rbp),%rax
  40061b:	be 68 23 40 00       	mov    $0x402368,%esi
  400620:	48 89 c7             	mov    %rax,%rdi
  400623:	e8 08 15 00 00       	call   401b30 <strcmp>
  400628:	85 c0                	test   %eax,%eax
  40062a:	75 2e                	jne    40065a <main+0x361>
  40062c:	48 b8 01 00 56 1e be 	movabs $0xcafebabe1e560001,%rax
  400633:	ba fe ca 
  400636:	48 89 c1             	mov    %rax,%rcx
  400639:	48 b8 55 ca 50 15 be 	movabs $0xc1ea1ebe1550ca55,%rax
  400640:	1e ea c1 
  400643:	48 89 c2             	mov    %rax,%rdx
  400646:	be 00 00 00 00       	mov    $0x0,%esi
  40064b:	bf 14 00 00 00       	mov    $0x14,%edi
  400650:	e8 16 fc ff ff       	call   40026b <syscall3>
  400655:	e9 e2 01 00 00       	jmp    40083c <main+0x543>
  40065a:	48 8b 45 e0          	mov    -0x20(%rbp),%rax
  40065e:	be 6f 23 40 00       	mov    $0x40236f,%esi
  400663:	48 89 c7             	mov    %rax,%rdi
  400666:	e8 c5 14 00 00       	call   401b30 <strcmp>
  40066b:	85 c0                	test   %eax,%eax
  40066d:	75 44                	jne    4006b3 <main+0x3ba>
  40066f:	48 8b 45 d8          	mov    -0x28(%rbp),%rax
  400673:	48 89 c7             	mov    %rax,%rdi
  400676:	e8 45 1c 00 00       	call   4022c0 <chdir>
  40067b:	89 45 a4             	mov    %eax,-0x5c(%rbp)
  40067e:	83 7d a4 00          	cmpl   $0x0,-0x5c(%rbp)
  400682:	0f 84 b4 01 00 00    	je     40083c <main+0x543>
  400688:	8b 45 a4             	mov    -0x5c(%rbp),%eax
  40068b:	f7 d8                	neg    %eax
  40068d:	89 c7                	mov    %eax,%edi
  40068f:	e8 ec 18 00 00       	call   401f80 <strerror>
  400694:	48 89 45 98          	mov    %rax,-0x68(%rbp)
  400698:	48 8b 45 98          	mov    -0x68(%rbp),%rax
  40069c:	48 89 c7             	mov    %rax,%rdi
  40069f:	e8 1c 10 00 00       	call   4016c0 <puts>
  4006a4:	bf 48 23 40 00       	mov    $0x402348,%edi
  4006a9:	e8 12 10 00 00       	call   4016c0 <puts>
  4006ae:	e9 89 01 00 00       	jmp    40083c <main+0x543>
  4006b3:	48 8b 45 e0          	mov    -0x20(%rbp),%rax
  4006b7:	be 72 23 40 00       	mov    $0x402372,%esi
  4006bc:	48 89 c7             	mov    %rax,%rdi
  4006bf:	e8 6c 14 00 00       	call   401b30 <strcmp>
  4006c4:	85 c0                	test   %eax,%eax
  4006c6:	0f 85 4d 01 00 00    	jne    400819 <main+0x520>
  4006cc:	48 89 e0             	mov    %rsp,%rax
  4006cf:	48 89 c3             	mov    %rax,%rbx
  4006d2:	48 8d 95 60 ed ff ff 	lea    -0x12a0(%rbp),%rdx
  4006d9:	48 8b 45 d8          	mov    -0x28(%rbp),%rax
  4006dd:	48 89 d6             	mov    %rdx,%rsi
  4006e0:	48 89 c7             	mov    %rax,%rdi
  4006e3:	e8 18 1a 00 00       	call   402100 <opendir>
  4006e8:	89 45 c4             	mov    %eax,-0x3c(%rbp)
  4006eb:	83 7d c4 00          	cmpl   $0x0,-0x3c(%rbp)
  4006ef:	74 4c                	je     40073d <main+0x444>
  4006f1:	83 7d c4 ec          	cmpl   $0xffffffec,-0x3c(%rbp)
  4006f5:	75 1b                	jne    400712 <main+0x419>
  4006f7:	48 8b 45 d8          	mov    -0x28(%rbp),%rax
  4006fb:	48 89 c7             	mov    %rax,%rdi
  4006fe:	e8 bd 0f 00 00       	call   4016c0 <puts>
  400703:	bf 48 23 40 00       	mov    $0x402348,%edi
  400708:	e8 b3 0f 00 00       	call   4016c0 <puts>
  40070d:	e9 ff 00 00 00       	jmp    400811 <main+0x518>
  400712:	8b 45 c4             	mov    -0x3c(%rbp),%eax
  400715:	f7 d8                	neg    %eax
  400717:	89 c7                	mov    %eax,%edi
  400719:	e8 62 18 00 00       	call   401f80 <strerror>
  40071e:	48 89 45 a8          	mov    %rax,-0x58(%rbp)
  400722:	48 8b 45 a8          	mov    -0x58(%rbp),%rax
  400726:	48 89 c7             	mov    %rax,%rdi
  400729:	e8 92 0f 00 00       	call   4016c0 <puts>
  40072e:	bf 48 23 40 00       	mov    $0x402348,%edi
  400733:	e8 88 0f 00 00       	call   4016c0 <puts>
  400738:	e9 d4 00 00 00       	jmp    400811 <main+0x518>
  40073d:	48 8b 85 60 ed ff ff 	mov    -0x12a0(%rbp),%rax
  400744:	48 89 c2             	mov    %rax,%rdx
  400747:	48 83 ea 01          	sub    $0x1,%rdx
  40074b:	48 89 55 b8          	mov    %rdx,-0x48(%rbp)
  40074f:	48 c1 e0 08          	shl    $0x8,%rax
  400753:	48 89 c2             	mov    %rax,%rdx
  400756:	b8 10 00 00 00       	mov    $0x10,%eax
  40075b:	48 83 e8 01          	sub    $0x1,%rax
  40075f:	48 01 d0             	add    %rdx,%rax
  400762:	b9 10 00 00 00       	mov    $0x10,%ecx
  400767:	ba 00 00 00 00       	mov    $0x0,%edx
  40076c:	48 f7 f1             	div    %rcx
  40076f:	48 6b c0 10          	imul   $0x10,%rax,%rax
  400773:	48 29 c4             	sub    %rax,%rsp
  400776:	48 89 e0             	mov    %rsp,%rax
  400779:	48 89 45 b0          	mov    %rax,-0x50(%rbp)
  40077d:	48 8b 85 60 ed ff ff 	mov    -0x12a0(%rbp),%rax
  400784:	48 c1 e0 08          	shl    $0x8,%rax
  400788:	48 89 c2             	mov    %rax,%rdx
  40078b:	48 8b 45 b0          	mov    -0x50(%rbp),%rax
  40078f:	be 00 00 00 00       	mov    $0x0,%esi
  400794:	48 89 c7             	mov    %rax,%rdi
  400797:	e8 e4 18 00 00       	call   402080 <memset>
  40079c:	48 8b 55 b0          	mov    -0x50(%rbp),%rdx
  4007a0:	48 8d 85 60 ed ff ff 	lea    -0x12a0(%rbp),%rax
  4007a7:	48 89 c6             	mov    %rax,%rsi
  4007aa:	bf 11 00 00 00       	mov    $0x11,%edi
  4007af:	e8 8c fa ff ff       	call   400240 <syscall2>
  4007b4:	c7 45 d4 00 00 00 00 	movl   $0x0,-0x2c(%rbp)
  4007bb:	eb 29                	jmp    4007e6 <main+0x4ed>
  4007bd:	8b 45 d4             	mov    -0x2c(%rbp),%eax
  4007c0:	48 98                	cltq
  4007c2:	48 c1 e0 08          	shl    $0x8,%rax
  4007c6:	48 89 c2             	mov    %rax,%rdx
  4007c9:	48 8b 45 b0          	mov    -0x50(%rbp),%rax
  4007cd:	48 01 d0             	add    %rdx,%rax
  4007d0:	48 89 c7             	mov    %rax,%rdi
  4007d3:	e8 e8 0e 00 00       	call   4016c0 <puts>
  4007d8:	bf 48 23 40 00       	mov    $0x402348,%edi
  4007dd:	e8 de 0e 00 00       	call   4016c0 <puts>
  4007e2:	83 45 d4 01          	addl   $0x1,-0x2c(%rbp)
  4007e6:	8b 45 d4             	mov    -0x2c(%rbp),%eax
  4007e9:	48 63 d0             	movslq %eax,%rdx
  4007ec:	48 8b 85 60 ed ff ff 	mov    -0x12a0(%rbp),%rax
  4007f3:	48 39 c2             	cmp    %rax,%rdx
  4007f6:	72 c5                	jb     4007bd <main+0x4c4>
  4007f8:	48 8d 85 60 ed ff ff 	lea    -0x12a0(%rbp),%rax
  4007ff:	48 89 c6             	mov    %rax,%rsi
  400802:	bf 12 00 00 00       	mov    $0x12,%edi
  400807:	e8 11 fa ff ff       	call   40021d <syscall1>
  40080c:	48 89 dc             	mov    %rbx,%rsp
  40080f:	eb 2b                	jmp    40083c <main+0x543>
  400811:	48 89 dc             	mov    %rbx,%rsp
  400814:	e9 d0 fb ff ff       	jmp    4003e9 <main+0xf0>
  400819:	48 8b 45 e0          	mov    -0x20(%rbp),%rax
  40081d:	48 89 c7             	mov    %rax,%rdi
  400820:	e8 9b 0e 00 00       	call   4016c0 <puts>
  400825:	bf 75 23 40 00       	mov    $0x402375,%edi
  40082a:	e8 91 0e 00 00       	call   4016c0 <puts>
  40082f:	bf 48 23 40 00       	mov    $0x402348,%edi
  400834:	e8 87 0e 00 00       	call   4016c0 <puts>
  400839:	eb 01                	jmp    40083c <main+0x543>
  40083b:	90                   	nop
  40083c:	48 8d 85 70 ff ff ff 	lea    -0x90(%rbp),%rax
  400843:	49 89 c2             	mov    %rax,%r10
  400846:	b8 00 00 00 00       	mov    $0x0,%eax
  40084b:	e8 86 fa ff ff       	call   4002d6 <next_tok.0>
  400850:	48 89 45 e0          	mov    %rax,-0x20(%rbp)
  400854:	48 83 7d e0 00       	cmpq   $0x0,-0x20(%rbp)
  400859:	0f 85 cc fc ff ff    	jne    40052b <main+0x232>
  40085f:	e9 85 fb ff ff       	jmp    4003e9 <main+0xf0>
  400864:	90                   	nop
  400865:	e9 7f fb ff ff       	jmp    4003e9 <main+0xf0>
  40086a:	66 2e 0f 1f 84 00 00 	cs nopw 0x0(%rax,%rax,1)
  400871:	00 00 00 
  400874:	66 2e 0f 1f 84 00 00 	cs nopw 0x0(%rax,%rax,1)
  40087b:	00 00 00 
  40087e:	66 90                	xchg   %ax,%ax

0000000000400880 <vsnprintf.part.0>:
  400880:	55                   	push   %rbp
  400881:	48 89 e5             	mov    %rsp,%rbp
  400884:	41 57                	push   %r15
  400886:	41 56                	push   %r14
  400888:	41 55                	push   %r13
  40088a:	49 89 fd             	mov    %rdi,%r13
  40088d:	41 54                	push   %r12
  40088f:	53                   	push   %rbx
  400890:	48 83 ec 28          	sub    $0x28,%rsp
  400894:	0f b6 02             	movzbl (%rdx),%eax
  400897:	48 83 fe 01          	cmp    $0x1,%rsi
  40089b:	0f 84 02 02 00 00    	je     400aa3 <vsnprintf.part.0+0x223>
  4008a1:	84 c0                	test   %al,%al
  4008a3:	0f 84 fa 01 00 00    	je     400aa3 <vsnprintf.part.0+0x223>
  4008a9:	48 89 4d c0          	mov    %rcx,-0x40(%rbp)
  4008ad:	49 89 d6             	mov    %rdx,%r14
  4008b0:	49 89 ff             	mov    %rdi,%r15
  4008b3:	eb 27                	jmp    4008dc <vsnprintf.part.0+0x5c>
  4008b5:	66 66 2e 0f 1f 84 00 	data16 cs nopw 0x0(%rax,%rax,1)
  4008bc:	00 00 00 00 
  4008c0:	41 88 07             	mov    %al,(%r15)
  4008c3:	4d 89 ee             	mov    %r13,%r14
  4008c6:	49 83 c7 01          	add    $0x1,%r15
  4008ca:	66 0f 1f 44 00 00    	nopw   0x0(%rax,%rax,1)
  4008d0:	41 0f b6 06          	movzbl (%r14),%eax
  4008d4:	84 c0                	test   %al,%al
  4008d6:	0f 84 c4 01 00 00    	je     400aa0 <vsnprintf.part.0+0x220>
  4008dc:	4d 8d 6e 01          	lea    0x1(%r14),%r13
  4008e0:	3c 25                	cmp    $0x25,%al
  4008e2:	75 dc                	jne    4008c0 <vsnprintf.part.0+0x40>
  4008e4:	41 0f b6 7e 01       	movzbl 0x1(%r14),%edi
  4008e9:	40 80 ff 25          	cmp    $0x25,%dil
  4008ed:	0f 84 cd 05 00 00    	je     400ec0 <vsnprintf.part.0+0x640>
  4008f3:	c7 45 c8 00 00 00 00 	movl   $0x0,-0x38(%rbp)
  4008fa:	31 d2                	xor    %edx,%edx
  4008fc:	31 f6                	xor    %esi,%esi
  4008fe:	45 31 e4             	xor    %r12d,%r12d
  400901:	c6 45 be 20          	movb   $0x20,-0x42(%rbp)
  400905:	45 31 c9             	xor    %r9d,%r9d
  400908:	45 31 db             	xor    %r11d,%r11d
  40090b:	49 8d 5e 02          	lea    0x2(%r14),%rbx
  40090f:	c6 45 bf 00          	movb   $0x0,-0x41(%rbp)
  400913:	66 90                	xchg   %ax,%ax
  400915:	66 66 2e 0f 1f 84 00 	data16 cs nopw 0x0(%rax,%rax,1)
  40091c:	00 00 00 00 
  400920:	8d 47 e0             	lea    -0x20(%rdi),%eax
  400923:	49 89 de             	mov    %rbx,%r14
  400926:	3c 58                	cmp    $0x58,%al
  400928:	77 a6                	ja     4008d0 <vsnprintf.part.0+0x50>
  40092a:	0f b6 c0             	movzbl %al,%eax
  40092d:	ff 24 c5 88 23 40 00 	jmp    *0x402388(,%rax,8)
  400934:	0f 1f 40 00          	nopl   0x0(%rax)
  400938:	4c 89 ef             	mov    %r13,%rdi
  40093b:	88 55 ba             	mov    %dl,-0x46(%rbp)
  40093e:	40 88 75 bb          	mov    %sil,-0x45(%rbp)
  400942:	44 88 5d bc          	mov    %r11b,-0x44(%rbp)
  400946:	44 88 4d bd          	mov    %r9b,-0x43(%rbp)
  40094a:	e8 b1 0d 00 00       	call   401700 <atoi>
  40094f:	41 0f b6 7d 00       	movzbl 0x0(%r13),%edi
  400954:	44 0f b6 4d bd       	movzbl -0x43(%rbp),%r9d
  400959:	44 0f b6 5d bc       	movzbl -0x44(%rbp),%r11d
  40095e:	0f b6 75 bb          	movzbl -0x45(%rbp),%esi
  400962:	89 45 c8             	mov    %eax,-0x38(%rbp)
  400965:	8d 47 d0             	lea    -0x30(%rdi),%eax
  400968:	0f b6 55 ba          	movzbl -0x46(%rbp),%edx
  40096c:	3c 09                	cmp    $0x9,%al
  40096e:	76 14                	jbe    400984 <vsnprintf.part.0+0x104>
  400970:	eb ae                	jmp    400920 <vsnprintf.part.0+0xa0>
  400972:	0f 1f 00             	nopl   (%rax)
  400975:	66 66 2e 0f 1f 84 00 	data16 cs nopw 0x0(%rax,%rax,1)
  40097c:	00 00 00 00 
  400980:	48 83 c3 01          	add    $0x1,%rbx
  400984:	0f b6 3b             	movzbl (%rbx),%edi
  400987:	49 89 dd             	mov    %rbx,%r13
  40098a:	8d 47 d0             	lea    -0x30(%rdi),%eax
  40098d:	3c 09                	cmp    $0x9,%al
  40098f:	76 ef                	jbe    400980 <vsnprintf.part.0+0x100>
  400991:	48 83 c3 01          	add    $0x1,%rbx
  400995:	eb 89                	jmp    400920 <vsnprintf.part.0+0xa0>
  400997:	84 d2                	test   %dl,%dl
  400999:	0f 84 6c 06 00 00    	je     40100b <vsnprintf.part.0+0x78b>
  40099f:	48 8b 4d c0          	mov    -0x40(%rbp),%rcx
  4009a3:	8b 01                	mov    (%rcx),%eax
  4009a5:	83 f8 2f             	cmp    $0x2f,%eax
  4009a8:	0f 87 44 09 00 00    	ja     4012f2 <vsnprintf.part.0+0xa72>
  4009ae:	89 c2                	mov    %eax,%edx
  4009b0:	83 c0 08             	add    $0x8,%eax
  4009b3:	48 03 51 10          	add    0x10(%rcx),%rdx
  4009b7:	89 01                	mov    %eax,(%rcx)
  4009b9:	48 8b 1a             	mov    (%rdx),%rbx
  4009bc:	45 84 e4             	test   %r12b,%r12b
  4009bf:	0f 85 45 09 00 00    	jne    40130a <vsnprintf.part.0+0xa8a>
  4009c5:	31 d2                	xor    %edx,%edx
  4009c7:	31 f6                	xor    %esi,%esi
  4009c9:	4d 8d 6f 01          	lea    0x1(%r15),%r13
  4009cd:	31 ff                	xor    %edi,%edi
  4009cf:	85 db                	test   %ebx,%ebx
  4009d1:	0f 8f 97 04 00 00    	jg     400e6e <vsnprintf.part.0+0x5ee>
  4009d7:	66 0f 1f 84 00 00 00 	nopw   0x0(%rax,%rax,1)
  4009de:	00 00 
  4009e0:	89 d8                	mov    %ebx,%eax
  4009e2:	41 c6 07 2d          	movb   $0x2d,(%r15)
  4009e6:	f7 d8                	neg    %eax
  4009e8:	85 db                	test   %ebx,%ebx
  4009ea:	48 98                	cltq
  4009ec:	48 0f 45 d8          	cmovne %rax,%rbx
  4009f0:	48 85 db             	test   %rbx,%rbx
  4009f3:	0f 85 70 05 00 00    	jne    400f69 <vsnprintf.part.0+0x6e9>
  4009f9:	0f 1f 80 00 00 00 00 	nopl   0x0(%rax)
  400a00:	41 bc 10 00 00 00    	mov    $0x10,%r12d
  400a06:	40 84 ff             	test   %dil,%dil
  400a09:	0f 85 74 05 00 00    	jne    400f83 <vsnprintf.part.0+0x703>
  400a0f:	40 84 f6             	test   %sil,%sil
  400a12:	0f 84 f3 07 00 00    	je     40120b <vsnprintf.part.0+0x98b>
  400a18:	41 bc 08 00 00 00    	mov    $0x8,%r12d
  400a1e:	e9 60 05 00 00       	jmp    400f83 <vsnprintf.part.0+0x703>
  400a23:	41 0f b6 7d 01       	movzbl 0x1(%r13),%edi
  400a28:	ba 01 00 00 00       	mov    $0x1,%edx
  400a2d:	49 89 dd             	mov    %rbx,%r13
  400a30:	48 83 c3 01          	add    $0x1,%rbx
  400a34:	e9 e7 fe ff ff       	jmp    400920 <vsnprintf.part.0+0xa0>
  400a39:	48 8b 75 c0          	mov    -0x40(%rbp),%rsi
  400a3d:	8b 06                	mov    (%rsi),%eax
  400a3f:	83 f8 2f             	cmp    $0x2f,%eax
  400a42:	0f 87 cd 05 00 00    	ja     401015 <vsnprintf.part.0+0x795>
  400a48:	89 c2                	mov    %eax,%edx
  400a4a:	83 c0 08             	add    $0x8,%eax
  400a4d:	48 03 56 10          	add    0x10(%rsi),%rdx
  400a51:	89 06                	mov    %eax,(%rsi)
  400a53:	44 8b 22             	mov    (%rdx),%r12d
  400a56:	80 7d bf 00          	cmpb   $0x0,-0x41(%rbp)
  400a5a:	0f 84 ce 05 00 00    	je     40102e <vsnprintf.part.0+0x7ae>
  400a60:	45 88 27             	mov    %r12b,(%r15)
  400a63:	49 8d 7f 01          	lea    0x1(%r15),%rdi
  400a67:	83 7d c8 01          	cmpl   $0x1,-0x38(%rbp)
  400a6b:	0f 8e 67 09 00 00    	jle    4013d8 <vsnprintf.part.0+0xb58>
  400a71:	8b 45 c8             	mov    -0x38(%rbp),%eax
  400a74:	0f be 75 be          	movsbl -0x42(%rbp),%esi
  400a78:	8d 58 fe             	lea    -0x2(%rax),%ebx
  400a7b:	48 8d 53 01          	lea    0x1(%rbx),%rdx
  400a7f:	4d 8d 7c 1f 02       	lea    0x2(%r15,%rbx,1),%r15
  400a84:	e8 f7 15 00 00       	call   402080 <memset>
  400a89:	41 0f b6 06          	movzbl (%r14),%eax
  400a8d:	84 c0                	test   %al,%al
  400a8f:	0f 85 47 fe ff ff    	jne    4008dc <vsnprintf.part.0+0x5c>
  400a95:	66 66 2e 0f 1f 84 00 	data16 cs nopw 0x0(%rax,%rax,1)
  400a9c:	00 00 00 00 
  400aa0:	4d 89 fd             	mov    %r15,%r13
  400aa3:	41 c6 45 00 00       	movb   $0x0,0x0(%r13)
  400aa8:	48 83 c4 28          	add    $0x28,%rsp
  400aac:	b8 01 00 00 00       	mov    $0x1,%eax
  400ab1:	5b                   	pop    %rbx
  400ab2:	41 5c                	pop    %r12
  400ab4:	41 5d                	pop    %r13
  400ab6:	41 5e                	pop    %r14
  400ab8:	41 5f                	pop    %r15
  400aba:	5d                   	pop    %rbp
  400abb:	c3                   	ret
  400abc:	84 d2                	test   %dl,%dl
  400abe:	0f 84 0d 04 00 00    	je     400ed1 <vsnprintf.part.0+0x651>
  400ac4:	48 8b 4d c0          	mov    -0x40(%rbp),%rcx
  400ac8:	8b 01                	mov    (%rcx),%eax
  400aca:	83 f8 2f             	cmp    $0x2f,%eax
  400acd:	0f 87 0e 08 00 00    	ja     4012e1 <vsnprintf.part.0+0xa61>
  400ad3:	89 c2                	mov    %eax,%edx
  400ad5:	83 c0 08             	add    $0x8,%eax
  400ad8:	48 03 51 10          	add    0x10(%rcx),%rdx
  400adc:	89 01                	mov    %eax,(%rcx)
  400ade:	48 8b 1a             	mov    (%rdx),%rbx
  400ae1:	48 85 db             	test   %rbx,%rbx
  400ae4:	0f 95 c0             	setne  %al
  400ae7:	44 21 d8             	and    %r11d,%eax
  400aea:	45 84 e4             	test   %r12b,%r12b
  400aed:	75 09                	jne    400af8 <vsnprintf.part.0+0x278>
  400aef:	45 84 c9             	test   %r9b,%r9b
  400af2:	0f 85 36 01 00 00    	jne    400c2e <vsnprintf.part.0+0x3ae>
  400af8:	84 c0                	test   %al,%al
  400afa:	0f 84 2e 07 00 00    	je     40122e <vsnprintf.part.0+0x9ae>
  400b00:	41 c6 07 30          	movb   $0x30,(%r15)
  400b04:	41 c6 47 01 58       	movb   $0x58,0x1(%r15)
  400b09:	4d 8d 6f 02          	lea    0x2(%r15),%r13
  400b0d:	41 bc 10 00 00 00    	mov    $0x10,%r12d
  400b13:	66 90                	xchg   %ax,%ax
  400b15:	66 66 2e 0f 1f 84 00 	data16 cs nopw 0x0(%rax,%rax,1)
  400b1c:	00 00 00 00 
  400b20:	49 8d 7d 01          	lea    0x1(%r13),%rdi
  400b24:	45 31 ff             	xor    %r15d,%r15d
  400b27:	66 0f 1f 84 00 00 00 	nopw   0x0(%rax,%rax,1)
  400b2e:	00 00 
  400b30:	4d 85 ff             	test   %r15,%r15
  400b33:	74 0e                	je     400b43 <vsnprintf.part.0+0x2c3>
  400b35:	4c 89 fa             	mov    %r15,%rdx
  400b38:	4c 89 ee             	mov    %r13,%rsi
  400b3b:	e8 e0 0d 00 00       	call   401920 <memmove>
  400b40:	48 89 c7             	mov    %rax,%rdi
  400b43:	48 89 d8             	mov    %rbx,%rax
  400b46:	31 d2                	xor    %edx,%edx
  400b48:	4a 8d 0c 3f          	lea    (%rdi,%r15,1),%rcx
  400b4c:	49 f7 f4             	div    %r12
  400b4f:	48 83 fa 09          	cmp    $0x9,%rdx
  400b53:	0f 87 e7 05 00 00    	ja     401140 <vsnprintf.part.0+0x8c0>
  400b59:	83 c2 30             	add    $0x30,%edx
  400b5c:	41 88 55 00          	mov    %dl,0x0(%r13)
  400b60:	4c 39 e3             	cmp    %r12,%rbx
  400b63:	0f 82 f7 05 00 00    	jb     401160 <vsnprintf.part.0+0x8e0>
  400b69:	49 83 c7 01          	add    $0x1,%r15
  400b6d:	48 89 c3             	mov    %rax,%rbx
  400b70:	4d 85 ff             	test   %r15,%r15
  400b73:	74 ce                	je     400b43 <vsnprintf.part.0+0x2c3>
  400b75:	eb be                	jmp    400b35 <vsnprintf.part.0+0x2b5>
  400b77:	40 88 7d be          	mov    %dil,-0x42(%rbp)
  400b7b:	41 0f b6 7d 01       	movzbl 0x1(%r13),%edi
  400b80:	49 89 dd             	mov    %rbx,%r13
  400b83:	48 83 c3 01          	add    $0x1,%rbx
  400b87:	e9 94 fd ff ff       	jmp    400920 <vsnprintf.part.0+0xa0>
  400b8c:	48 8b 7d c0          	mov    -0x40(%rbp),%rdi
  400b90:	8b 07                	mov    (%rdi),%eax
  400b92:	83 f8 2f             	cmp    $0x2f,%eax
  400b95:	0f 87 4e 04 00 00    	ja     400fe9 <vsnprintf.part.0+0x769>
  400b9b:	89 c1                	mov    %eax,%ecx
  400b9d:	83 c0 08             	add    $0x8,%eax
  400ba0:	48 03 4f 10          	add    0x10(%rdi),%rcx
  400ba4:	89 07                	mov    %eax,(%rdi)
  400ba6:	8b 01                	mov    (%rcx),%eax
  400ba8:	41 0f b6 7d 01       	movzbl 0x1(%r13),%edi
  400bad:	49 89 dd             	mov    %rbx,%r13
  400bb0:	48 83 c3 01          	add    $0x1,%rbx
  400bb4:	89 45 c8             	mov    %eax,-0x38(%rbp)
  400bb7:	e9 64 fd ff ff       	jmp    400920 <vsnprintf.part.0+0xa0>
  400bbc:	41 0f b6 7d 01       	movzbl 0x1(%r13),%edi
  400bc1:	41 bb 01 00 00 00    	mov    $0x1,%r11d
  400bc7:	49 89 dd             	mov    %rbx,%r13
  400bca:	48 83 c3 01          	add    $0x1,%rbx
  400bce:	e9 4d fd ff ff       	jmp    400920 <vsnprintf.part.0+0xa0>
  400bd3:	41 0f b6 7d 01       	movzbl 0x1(%r13),%edi
  400bd8:	41 bc 01 00 00 00    	mov    $0x1,%r12d
  400bde:	49 89 dd             	mov    %rbx,%r13
  400be1:	48 83 c3 01          	add    $0x1,%rbx
  400be5:	e9 36 fd ff ff       	jmp    400920 <vsnprintf.part.0+0xa0>
  400bea:	84 d2                	test   %dl,%dl
  400bec:	0f 84 e4 02 00 00    	je     400ed6 <vsnprintf.part.0+0x656>
  400bf2:	48 8b 4d c0          	mov    -0x40(%rbp),%rcx
  400bf6:	8b 01                	mov    (%rcx),%eax
  400bf8:	83 f8 2f             	cmp    $0x2f,%eax
  400bfb:	0f 86 3f 07 00 00    	jbe    401340 <vsnprintf.part.0+0xac0>
  400c01:	48 8b 51 08          	mov    0x8(%rcx),%rdx
  400c05:	48 8d 42 08          	lea    0x8(%rdx),%rax
  400c09:	48 89 41 08          	mov    %rax,0x8(%rcx)
  400c0d:	48 8b 1a             	mov    (%rdx),%rbx
  400c10:	48 85 db             	test   %rbx,%rbx
  400c13:	0f 95 c0             	setne  %al
  400c16:	44 21 d8             	and    %r11d,%eax
  400c19:	45 84 e4             	test   %r12b,%r12b
  400c1c:	0f 85 3f 07 00 00    	jne    401361 <vsnprintf.part.0+0xae1>
  400c22:	45 84 c9             	test   %r9b,%r9b
  400c25:	0f 84 36 07 00 00    	je     401361 <vsnprintf.part.0+0xae1>
  400c2b:	45 31 c9             	xor    %r9d,%r9d
  400c2e:	41 c6 07 2b          	movb   $0x2b,(%r15)
  400c32:	4d 8d 6f 01          	lea    0x1(%r15),%r13
  400c36:	48 85 db             	test   %rbx,%rbx
  400c39:	0f 84 cb 07 00 00    	je     40140a <vsnprintf.part.0+0xb8a>
  400c3f:	45 84 db             	test   %r11b,%r11b
  400c42:	0f 84 c2 07 00 00    	je     40140a <vsnprintf.part.0+0xb8a>
  400c48:	41 c6 47 01 30       	movb   $0x30,0x1(%r15)
  400c4d:	44 89 ca             	mov    %r9d,%edx
  400c50:	84 d2                	test   %dl,%dl
  400c52:	0f 85 ba 07 00 00    	jne    401412 <vsnprintf.part.0+0xb92>
  400c58:	41 c6 45 01 78       	movb   $0x78,0x1(%r13)
  400c5d:	41 bc 10 00 00 00    	mov    $0x10,%r12d
  400c63:	49 83 c5 02          	add    $0x2,%r13
  400c67:	e9 1f 03 00 00       	jmp    400f8b <vsnprintf.part.0+0x70b>
  400c6c:	84 d2                	test   %dl,%dl
  400c6e:	0f 84 ea 03 00 00    	je     40105e <vsnprintf.part.0+0x7de>
  400c74:	48 8b 4d c0          	mov    -0x40(%rbp),%rcx
  400c78:	8b 01                	mov    (%rcx),%eax
  400c7a:	83 f8 2f             	cmp    $0x2f,%eax
  400c7d:	0f 87 ac 06 00 00    	ja     40132f <vsnprintf.part.0+0xaaf>
  400c83:	89 c2                	mov    %eax,%edx
  400c85:	83 c0 08             	add    $0x8,%eax
  400c88:	48 03 51 10          	add    0x10(%rcx),%rdx
  400c8c:	89 01                	mov    %eax,(%rcx)
  400c8e:	48 8b 1a             	mov    (%rdx),%rbx
  400c91:	45 84 e4             	test   %r12b,%r12b
  400c94:	0f 85 87 06 00 00    	jne    401321 <vsnprintf.part.0+0xaa1>
  400c9a:	45 84 c9             	test   %r9b,%r9b
  400c9d:	0f 84 67 06 00 00    	je     40130a <vsnprintf.part.0+0xa8a>
  400ca3:	41 c6 07 2b          	movb   $0x2b,(%r15)
  400ca7:	4d 8d 6f 01          	lea    0x1(%r15),%r13
  400cab:	48 85 db             	test   %rbx,%rbx
  400cae:	74 0f                	je     400cbf <vsnprintf.part.0+0x43f>
  400cb0:	41 bc 0a 00 00 00    	mov    $0xa,%r12d
  400cb6:	45 84 db             	test   %r11b,%r11b
  400cb9:	0f 85 cc 02 00 00    	jne    400f8b <vsnprintf.part.0+0x70b>
  400cbf:	41 bc 0a 00 00 00    	mov    $0xa,%r12d
  400cc5:	e9 c1 02 00 00       	jmp    400f8b <vsnprintf.part.0+0x70b>
  400cca:	66 0f 1f 44 00 00    	nopw   0x0(%rax,%rax,1)
  400cd0:	48 8b 4d c0          	mov    -0x40(%rbp),%rcx
  400cd4:	8b 01                	mov    (%rcx),%eax
  400cd6:	83 f8 2f             	cmp    $0x2f,%eax
  400cd9:	0f 87 1b 03 00 00    	ja     400ffa <vsnprintf.part.0+0x77a>
  400cdf:	89 c2                	mov    %eax,%edx
  400ce1:	83 c0 08             	add    $0x8,%eax
  400ce4:	48 03 51 10          	add    0x10(%rcx),%rdx
  400ce8:	89 01                	mov    %eax,(%rcx)
  400cea:	4c 8b 2a             	mov    (%rdx),%r13
  400ced:	4c 89 ef             	mov    %r13,%rdi
  400cf0:	e8 cb 13 00 00       	call   4020c0 <strlen>
  400cf5:	48 63 5d c8          	movslq -0x38(%rbp),%rbx
  400cf9:	49 89 c4             	mov    %rax,%r12
  400cfc:	48 39 d8             	cmp    %rbx,%rax
  400cff:	0f 92 c2             	setb   %dl
  400d02:	80 7d bf 00          	cmpb   $0x0,-0x41(%rbp)
  400d06:	75 08                	jne    400d10 <vsnprintf.part.0+0x490>
  400d08:	84 d2                	test   %dl,%dl
  400d0a:	0f 85 63 06 00 00    	jne    401373 <vsnprintf.part.0+0xaf3>
  400d10:	41 0f b6 45 00       	movzbl 0x0(%r13),%eax
  400d15:	84 c0                	test   %al,%al
  400d17:	74 1b                	je     400d34 <vsnprintf.part.0+0x4b4>
  400d19:	0f 1f 80 00 00 00 00 	nopl   0x0(%rax)
  400d20:	49 83 c5 01          	add    $0x1,%r13
  400d24:	41 88 07             	mov    %al,(%r15)
  400d27:	49 83 c7 01          	add    $0x1,%r15
  400d2b:	41 0f b6 45 00       	movzbl 0x0(%r13),%eax
  400d30:	84 c0                	test   %al,%al
  400d32:	75 ec                	jne    400d20 <vsnprintf.part.0+0x4a0>
  400d34:	80 7d bf 00          	cmpb   $0x0,-0x41(%rbp)
  400d38:	0f 84 92 fb ff ff    	je     4008d0 <vsnprintf.part.0+0x50>
  400d3e:	84 d2                	test   %dl,%dl
  400d40:	0f 84 8a fb ff ff    	je     4008d0 <vsnprintf.part.0+0x50>
  400d46:	4d 8d 6c 24 01       	lea    0x1(%r12),%r13
  400d4b:	48 89 da             	mov    %rbx,%rdx
  400d4e:	b8 01 00 00 00       	mov    $0x1,%eax
  400d53:	4c 89 ff             	mov    %r15,%rdi
  400d56:	4c 29 e2             	sub    %r12,%rdx
  400d59:	4c 39 eb             	cmp    %r13,%rbx
  400d5c:	0f be 75 be          	movsbl -0x42(%rbp),%esi
  400d60:	48 0f 42 d0          	cmovb  %rax,%rdx
  400d64:	e8 17 13 00 00       	call   402080 <memset>
  400d69:	48 8d 43 ff          	lea    -0x1(%rbx),%rax
  400d6d:	31 d2                	xor    %edx,%edx
  400d6f:	4c 29 e0             	sub    %r12,%rax
  400d72:	4c 39 eb             	cmp    %r13,%rbx
  400d75:	48 0f 42 c2          	cmovb  %rdx,%rax
  400d79:	4d 8d 7c 07 01       	lea    0x1(%r15,%rax,1),%r15
  400d7e:	e9 4d fb ff ff       	jmp    4008d0 <vsnprintf.part.0+0x50>
  400d83:	41 0f b6 7d 01       	movzbl 0x1(%r13),%edi
  400d88:	c6 45 bf 01          	movb   $0x1,-0x41(%rbp)
  400d8c:	49 89 dd             	mov    %rbx,%r13
  400d8f:	48 83 c3 01          	add    $0x1,%rbx
  400d93:	e9 88 fb ff ff       	jmp    400920 <vsnprintf.part.0+0xa0>
  400d98:	41 0f b6 7d 01       	movzbl 0x1(%r13),%edi
  400d9d:	41 b9 01 00 00 00    	mov    $0x1,%r9d
  400da3:	49 89 dd             	mov    %rbx,%r13
  400da6:	48 83 c3 01          	add    $0x1,%rbx
  400daa:	e9 71 fb ff ff       	jmp    400920 <vsnprintf.part.0+0xa0>
  400daf:	41 0f b6 7d 01       	movzbl 0x1(%r13),%edi
  400db4:	40 80 ff 2a          	cmp    $0x2a,%dil
  400db8:	0f 84 87 04 00 00    	je     401245 <vsnprintf.part.0+0x9c5>
  400dbe:	8d 47 d0             	lea    -0x30(%rdi),%eax
  400dc1:	3c 09                	cmp    $0x9,%al
  400dc3:	0f 87 b7 fd ff ff    	ja     400b80 <vsnprintf.part.0+0x300>
  400dc9:	48 89 df             	mov    %rbx,%rdi
  400dcc:	88 55 ba             	mov    %dl,-0x46(%rbp)
  400dcf:	40 88 75 bb          	mov    %sil,-0x45(%rbp)
  400dd3:	44 88 5d bc          	mov    %r11b,-0x44(%rbp)
  400dd7:	44 88 4d bd          	mov    %r9b,-0x43(%rbp)
  400ddb:	e8 20 09 00 00       	call   401700 <atoi>
  400de0:	41 0f b6 7d 01       	movzbl 0x1(%r13),%edi
  400de5:	44 0f b6 4d bd       	movzbl -0x43(%rbp),%r9d
  400dea:	44 0f b6 5d bc       	movzbl -0x44(%rbp),%r11d
  400def:	0f b6 75 bb          	movzbl -0x45(%rbp),%esi
  400df3:	8d 47 d0             	lea    -0x30(%rdi),%eax
  400df6:	0f b6 55 ba          	movzbl -0x46(%rbp),%edx
  400dfa:	3c 09                	cmp    $0x9,%al
  400dfc:	0f 87 7e fd ff ff    	ja     400b80 <vsnprintf.part.0+0x300>
  400e02:	49 89 dd             	mov    %rbx,%r13
  400e05:	66 66 2e 0f 1f 84 00 	data16 cs nopw 0x0(%rax,%rax,1)
  400e0c:	00 00 00 00 
  400e10:	41 0f b6 7d 01       	movzbl 0x1(%r13),%edi
  400e15:	49 83 c5 01          	add    $0x1,%r13
  400e19:	8d 47 d0             	lea    -0x30(%rdi),%eax
  400e1c:	3c 09                	cmp    $0x9,%al
  400e1e:	76 f0                	jbe    400e10 <vsnprintf.part.0+0x590>
  400e20:	49 8d 5d 01          	lea    0x1(%r13),%rbx
  400e24:	e9 f7 fa ff ff       	jmp    400920 <vsnprintf.part.0+0xa0>
  400e29:	0f 1f 80 00 00 00 00 	nopl   0x0(%rax)
  400e30:	48 8b 7d c0          	mov    -0x40(%rbp),%rdi
  400e34:	8b 07                	mov    (%rdi),%eax
  400e36:	84 d2                	test   %dl,%dl
  400e38:	0f 84 ce 00 00 00    	je     400f0c <vsnprintf.part.0+0x68c>
  400e3e:	83 f8 2f             	cmp    $0x2f,%eax
  400e41:	0f 87 4e 02 00 00    	ja     401095 <vsnprintf.part.0+0x815>
  400e47:	89 c1                	mov    %eax,%ecx
  400e49:	83 c0 08             	add    $0x8,%eax
  400e4c:	48 03 4f 10          	add    0x10(%rdi),%rcx
  400e50:	89 07                	mov    %eax,(%rdi)
  400e52:	48 8b 19             	mov    (%rcx),%rbx
  400e55:	45 84 e4             	test   %r12b,%r12b
  400e58:	0f 85 4f 02 00 00    	jne    4010ad <vsnprintf.part.0+0x82d>
  400e5e:	89 d6                	mov    %edx,%esi
  400e60:	31 ff                	xor    %edi,%edi
  400e62:	4d 8d 6f 01          	lea    0x1(%r15),%r13
  400e66:	85 db                	test   %ebx,%ebx
  400e68:	0f 8e 72 fb ff ff    	jle    4009e0 <vsnprintf.part.0+0x160>
  400e6e:	45 84 c9             	test   %r9b,%r9b
  400e71:	0f 85 c5 03 00 00    	jne    40123c <vsnprintf.part.0+0x9bc>
  400e77:	4d 89 fd             	mov    %r15,%r13
  400e7a:	e9 e1 00 00 00       	jmp    400f60 <vsnprintf.part.0+0x6e0>
  400e7f:	41 0f b6 7d 01       	movzbl 0x1(%r13),%edi
  400e84:	be 01 00 00 00       	mov    $0x1,%esi
  400e89:	49 89 dd             	mov    %rbx,%r13
  400e8c:	48 83 c3 01          	add    $0x1,%rbx
  400e90:	e9 8b fa ff ff       	jmp    400920 <vsnprintf.part.0+0xa0>
  400e95:	48 8b 4d c0          	mov    -0x40(%rbp),%rcx
  400e99:	8b 01                	mov    (%rcx),%eax
  400e9b:	84 d2                	test   %dl,%dl
  400e9d:	0f 84 c4 03 00 00    	je     401267 <vsnprintf.part.0+0x9e7>
  400ea3:	83 f8 2f             	cmp    $0x2f,%eax
  400ea6:	0f 86 27 fc ff ff    	jbe    400ad3 <vsnprintf.part.0+0x253>
  400eac:	48 8b 51 08          	mov    0x8(%rcx),%rdx
  400eb0:	48 8d 42 08          	lea    0x8(%rdx),%rax
  400eb4:	48 89 41 08          	mov    %rax,0x8(%rcx)
  400eb8:	e9 21 fc ff ff       	jmp    400ade <vsnprintf.part.0+0x25e>
  400ebd:	0f 1f 00             	nopl   (%rax)
  400ec0:	41 c6 07 25          	movb   $0x25,(%r15)
  400ec4:	49 83 c6 02          	add    $0x2,%r14
  400ec8:	49 83 c7 01          	add    $0x1,%r15
  400ecc:	e9 ff f9 ff ff       	jmp    4008d0 <vsnprintf.part.0+0x50>
  400ed1:	ba 01 00 00 00       	mov    $0x1,%edx
  400ed6:	bf 01 00 00 00       	mov    $0x1,%edi
  400edb:	41 ba 01 00 00 00    	mov    $0x1,%r10d
  400ee1:	48 8b 45 c0          	mov    -0x40(%rbp),%rax
  400ee5:	8b 00                	mov    (%rax),%eax
  400ee7:	40 84 f6             	test   %sil,%sil
  400eea:	74 38                	je     400f24 <vsnprintf.part.0+0x6a4>
  400eec:	83 f8 2f             	cmp    $0x2f,%eax
  400eef:	0f 87 8b 01 00 00    	ja     401080 <vsnprintf.part.0+0x800>
  400ef5:	48 8b 75 c0          	mov    -0x40(%rbp),%rsi
  400ef9:	89 c1                	mov    %eax,%ecx
  400efb:	83 c0 08             	add    $0x8,%eax
  400efe:	89 06                	mov    %eax,(%rsi)
  400f00:	48 03 4e 10          	add    0x10(%rsi),%rcx
  400f04:	48 0f bf 19          	movswq (%rcx),%rbx
  400f08:	31 f6                	xor    %esi,%esi
  400f0a:	eb 33                	jmp    400f3f <vsnprintf.part.0+0x6bf>
  400f0c:	40 84 f6             	test   %sil,%sil
  400f0f:	0f 85 bd 01 00 00    	jne    4010d2 <vsnprintf.part.0+0x852>
  400f15:	31 ff                	xor    %edi,%edi
  400f17:	45 31 d2             	xor    %r10d,%r10d
  400f1a:	ba 01 00 00 00       	mov    $0x1,%edx
  400f1f:	be 01 00 00 00       	mov    $0x1,%esi
  400f24:	83 f8 2f             	cmp    $0x2f,%eax
  400f27:	0f 87 3e 01 00 00    	ja     40106b <vsnprintf.part.0+0x7eb>
  400f2d:	48 8b 5d c0          	mov    -0x40(%rbp),%rbx
  400f31:	89 c1                	mov    %eax,%ecx
  400f33:	83 c0 08             	add    $0x8,%eax
  400f36:	89 03                	mov    %eax,(%rbx)
  400f38:	48 03 4b 10          	add    0x10(%rbx),%rcx
  400f3c:	48 63 19             	movslq (%rcx),%rbx
  400f3f:	4d 89 fd             	mov    %r15,%r13
  400f42:	45 84 e4             	test   %r12b,%r12b
  400f45:	75 19                	jne    400f60 <vsnprintf.part.0+0x6e0>
  400f47:	45 84 d2             	test   %r10b,%r10b
  400f4a:	0f 84 12 ff ff ff    	je     400e62 <vsnprintf.part.0+0x5e2>
  400f50:	45 84 c9             	test   %r9b,%r9b
  400f53:	74 0b                	je     400f60 <vsnprintf.part.0+0x6e0>
  400f55:	41 c6 07 2b          	movb   $0x2b,(%r15)
  400f59:	49 83 c5 01          	add    $0x1,%r13
  400f5d:	0f 1f 00             	nopl   (%rax)
  400f60:	48 85 db             	test   %rbx,%rbx
  400f63:	0f 84 97 fa ff ff    	je     400a00 <vsnprintf.part.0+0x180>
  400f69:	45 84 db             	test   %r11b,%r11b
  400f6c:	0f 84 8e fa ff ff    	je     400a00 <vsnprintf.part.0+0x180>
  400f72:	89 f8                	mov    %edi,%eax
  400f74:	41 bc 0a 00 00 00    	mov    $0xa,%r12d
  400f7a:	40 08 f0             	or     %sil,%al
  400f7d:	0f 85 6d 02 00 00    	jne    4011f0 <vsnprintf.part.0+0x970>
  400f83:	84 d2                	test   %dl,%dl
  400f85:	0f 85 95 fb ff ff    	jne    400b20 <vsnprintf.part.0+0x2a0>
  400f8b:	49 8d 7d 01          	lea    0x1(%r13),%rdi
  400f8f:	45 31 ff             	xor    %r15d,%r15d
  400f92:	0f 1f 00             	nopl   (%rax)
  400f95:	66 66 2e 0f 1f 84 00 	data16 cs nopw 0x0(%rax,%rax,1)
  400f9c:	00 00 00 00 
  400fa0:	4d 85 ff             	test   %r15,%r15
  400fa3:	74 0e                	je     400fb3 <vsnprintf.part.0+0x733>
  400fa5:	4c 89 fa             	mov    %r15,%rdx
  400fa8:	4c 89 ee             	mov    %r13,%rsi
  400fab:	e8 70 09 00 00       	call   401920 <memmove>
  400fb0:	48 89 c7             	mov    %rax,%rdi
  400fb3:	48 89 d8             	mov    %rbx,%rax
  400fb6:	31 d2                	xor    %edx,%edx
  400fb8:	4a 8d 0c 3f          	lea    (%rdi,%r15,1),%rcx
  400fbc:	49 f7 f4             	div    %r12
  400fbf:	48 83 fa 09          	cmp    $0x9,%rdx
  400fc3:	0f 86 57 01 00 00    	jbe    401120 <vsnprintf.part.0+0x8a0>
  400fc9:	83 c2 57             	add    $0x57,%edx
  400fcc:	41 88 55 00          	mov    %dl,0x0(%r13)
  400fd0:	48 83 fb 0f          	cmp    $0xf,%rbx
  400fd4:	0f 86 86 01 00 00    	jbe    401160 <vsnprintf.part.0+0x8e0>
  400fda:	49 83 c7 01          	add    $0x1,%r15
  400fde:	48 c1 eb 04          	shr    $0x4,%rbx
  400fe2:	4d 85 ff             	test   %r15,%r15
  400fe5:	74 cc                	je     400fb3 <vsnprintf.part.0+0x733>
  400fe7:	eb bc                	jmp    400fa5 <vsnprintf.part.0+0x725>
  400fe9:	48 8b 4f 08          	mov    0x8(%rdi),%rcx
  400fed:	48 8d 41 08          	lea    0x8(%rcx),%rax
  400ff1:	48 89 47 08          	mov    %rax,0x8(%rdi)
  400ff5:	e9 ac fb ff ff       	jmp    400ba6 <vsnprintf.part.0+0x326>
  400ffa:	48 8b 51 08          	mov    0x8(%rcx),%rdx
  400ffe:	48 8d 42 08          	lea    0x8(%rdx),%rax
  401002:	48 89 41 08          	mov    %rax,0x8(%rcx)
  401006:	e9 df fc ff ff       	jmp    400cea <vsnprintf.part.0+0x46a>
  40100b:	31 ff                	xor    %edi,%edi
  40100d:	45 31 d2             	xor    %r10d,%r10d
  401010:	e9 cc fe ff ff       	jmp    400ee1 <vsnprintf.part.0+0x661>
  401015:	48 8b 56 08          	mov    0x8(%rsi),%rdx
  401019:	48 8d 42 08          	lea    0x8(%rdx),%rax
  40101d:	48 89 46 08          	mov    %rax,0x8(%rsi)
  401021:	44 8b 22             	mov    (%rdx),%r12d
  401024:	80 7d bf 00          	cmpb   $0x0,-0x41(%rbp)
  401028:	0f 85 32 fa ff ff    	jne    400a60 <vsnprintf.part.0+0x1e0>
  40102e:	4c 89 f8             	mov    %r15,%rax
  401031:	83 7d c8 01          	cmpl   $0x1,-0x38(%rbp)
  401035:	7e 1b                	jle    401052 <vsnprintf.part.0+0x7d2>
  401037:	8b 45 c8             	mov    -0x38(%rbp),%eax
  40103a:	0f be 75 be          	movsbl -0x42(%rbp),%esi
  40103e:	4c 89 ff             	mov    %r15,%rdi
  401041:	8d 58 fe             	lea    -0x2(%rax),%ebx
  401044:	48 8d 53 01          	lea    0x1(%rbx),%rdx
  401048:	e8 33 10 00 00       	call   402080 <memset>
  40104d:	49 8d 44 1f 01       	lea    0x1(%r15,%rbx,1),%rax
  401052:	44 88 20             	mov    %r12b,(%rax)
  401055:	4c 8d 78 01          	lea    0x1(%rax),%r15
  401059:	e9 72 f8 ff ff       	jmp    4008d0 <vsnprintf.part.0+0x50>
  40105e:	31 ff                	xor    %edi,%edi
  401060:	41 ba 01 00 00 00    	mov    $0x1,%r10d
  401066:	e9 76 fe ff ff       	jmp    400ee1 <vsnprintf.part.0+0x661>
  40106b:	48 8b 5d c0          	mov    -0x40(%rbp),%rbx
  40106f:	48 8b 4b 08          	mov    0x8(%rbx),%rcx
  401073:	48 8d 41 08          	lea    0x8(%rcx),%rax
  401077:	48 89 43 08          	mov    %rax,0x8(%rbx)
  40107b:	e9 bc fe ff ff       	jmp    400f3c <vsnprintf.part.0+0x6bc>
  401080:	48 8b 75 c0          	mov    -0x40(%rbp),%rsi
  401084:	48 8b 4e 08          	mov    0x8(%rsi),%rcx
  401088:	48 8d 41 08          	lea    0x8(%rcx),%rax
  40108c:	48 89 46 08          	mov    %rax,0x8(%rsi)
  401090:	e9 6f fe ff ff       	jmp    400f04 <vsnprintf.part.0+0x684>
  401095:	48 8b 4f 08          	mov    0x8(%rdi),%rcx
  401099:	48 8d 41 08          	lea    0x8(%rcx),%rax
  40109d:	48 89 47 08          	mov    %rax,0x8(%rdi)
  4010a1:	48 8b 19             	mov    (%rcx),%rbx
  4010a4:	45 84 e4             	test   %r12b,%r12b
  4010a7:	0f 84 b1 fd ff ff    	je     400e5e <vsnprintf.part.0+0x5de>
  4010ad:	48 85 db             	test   %rbx,%rbx
  4010b0:	0f 84 0a 02 00 00    	je     4012c0 <vsnprintf.part.0+0xa40>
  4010b6:	45 84 db             	test   %r11b,%r11b
  4010b9:	0f 84 01 02 00 00    	je     4012c0 <vsnprintf.part.0+0xa40>
  4010bf:	41 c6 07 30          	movb   $0x30,(%r15)
  4010c3:	4d 8d 6f 01          	lea    0x1(%r15),%r13
  4010c7:	41 bc 08 00 00 00    	mov    $0x8,%r12d
  4010cd:	e9 4e fa ff ff       	jmp    400b20 <vsnprintf.part.0+0x2a0>
  4010d2:	83 f8 2f             	cmp    $0x2f,%eax
  4010d5:	0f 87 75 02 00 00    	ja     401350 <vsnprintf.part.0+0xad0>
  4010db:	89 c2                	mov    %eax,%edx
  4010dd:	83 c0 08             	add    $0x8,%eax
  4010e0:	48 03 57 10          	add    0x10(%rdi),%rdx
  4010e4:	89 07                	mov    %eax,(%rdi)
  4010e6:	8b 02                	mov    (%rdx),%eax
  4010e8:	48 0f bf d8          	movswq %ax,%rbx
  4010ec:	45 84 e4             	test   %r12b,%r12b
  4010ef:	75 bc                	jne    4010ad <vsnprintf.part.0+0x82d>
  4010f1:	66 85 c0             	test   %ax,%ax
  4010f4:	0f 8e d0 00 00 00    	jle    4011ca <vsnprintf.part.0+0x94a>
  4010fa:	45 84 c9             	test   %r9b,%r9b
  4010fd:	0f 84 dd 02 00 00    	je     4013e0 <vsnprintf.part.0+0xb60>
  401103:	41 c6 07 2b          	movb   $0x2b,(%r15)
  401107:	45 84 db             	test   %r11b,%r11b
  40110a:	0f 85 e9 02 00 00    	jne    4013f9 <vsnprintf.part.0+0xb79>
  401110:	4d 8d 6f 01          	lea    0x1(%r15),%r13
  401114:	41 bc 08 00 00 00    	mov    $0x8,%r12d
  40111a:	e9 01 fa ff ff       	jmp    400b20 <vsnprintf.part.0+0x2a0>
  40111f:	90                   	nop
  401120:	83 c2 30             	add    $0x30,%edx
  401123:	41 88 55 00          	mov    %dl,0x0(%r13)
  401127:	4c 39 e3             	cmp    %r12,%rbx
  40112a:	72 34                	jb     401160 <vsnprintf.part.0+0x8e0>
  40112c:	48 89 c3             	mov    %rax,%rbx
  40112f:	49 83 c7 01          	add    $0x1,%r15
  401133:	e9 68 fe ff ff       	jmp    400fa0 <vsnprintf.part.0+0x720>
  401138:	0f 1f 84 00 00 00 00 	nopl   0x0(%rax,%rax,1)
  40113f:	00 
  401140:	83 c2 37             	add    $0x37,%edx
  401143:	41 88 55 00          	mov    %dl,0x0(%r13)
  401147:	48 83 fb 0f          	cmp    $0xf,%rbx
  40114b:	76 13                	jbe    401160 <vsnprintf.part.0+0x8e0>
  40114d:	48 c1 eb 04          	shr    $0x4,%rbx
  401151:	49 83 c7 01          	add    $0x1,%r15
  401155:	e9 d6 f9 ff ff       	jmp    400b30 <vsnprintf.part.0+0x2b0>
  40115a:	66 0f 1f 44 00 00    	nopw   0x0(%rax,%rax,1)
  401160:	8b 45 c8             	mov    -0x38(%rbp),%eax
  401163:	45 8d 5f 01          	lea    0x1(%r15),%r11d
  401167:	49 89 cf             	mov    %rcx,%r15
  40116a:	44 39 d8             	cmp    %r11d,%eax
  40116d:	0f 8e 5d f7 ff ff    	jle    4008d0 <vsnprintf.part.0+0x50>
  401173:	89 c3                	mov    %eax,%ebx
  401175:	44 29 db             	sub    %r11d,%ebx
  401178:	80 7d bf 00          	cmpb   $0x0,-0x41(%rbp)
  40117c:	74 22                	je     4011a0 <vsnprintf.part.0+0x920>
  40117e:	48 63 d3             	movslq %ebx,%rdx
  401181:	0f be 75 be          	movsbl -0x42(%rbp),%esi
  401185:	83 eb 01             	sub    $0x1,%ebx
  401188:	48 89 cf             	mov    %rcx,%rdi
  40118b:	48 63 db             	movslq %ebx,%rbx
  40118e:	e8 ed 0e 00 00       	call   402080 <memset>
  401193:	4d 8d 7c 1f 01       	lea    0x1(%r15,%rbx,1),%r15
  401198:	e9 33 f7 ff ff       	jmp    4008d0 <vsnprintf.part.0+0x50>
  40119d:	0f 1f 00             	nopl   (%rax)
  4011a0:	48 63 db             	movslq %ebx,%rbx
  4011a3:	49 63 d3             	movslq %r11d,%rdx
  4011a6:	4c 89 ee             	mov    %r13,%rsi
  4011a9:	49 8d 7c 1d 00       	lea    0x0(%r13,%rbx,1),%rdi
  4011ae:	49 01 df             	add    %rbx,%r15
  4011b1:	e8 6a 07 00 00       	call   401920 <memmove>
  4011b6:	0f be 75 be          	movsbl -0x42(%rbp),%esi
  4011ba:	48 89 da             	mov    %rbx,%rdx
  4011bd:	4c 89 ef             	mov    %r13,%rdi
  4011c0:	e8 bb 0e 00 00       	call   402080 <memset>
  4011c5:	e9 06 f7 ff ff       	jmp    4008d0 <vsnprintf.part.0+0x50>
  4011ca:	98                   	cwtl
  4011cb:	41 c6 07 2d          	movb   $0x2d,(%r15)
  4011cf:	4d 8d 6f 01          	lea    0x1(%r15),%r13
  4011d3:	85 c0                	test   %eax,%eax
  4011d5:	0f 84 3f 02 00 00    	je     40141a <vsnprintf.part.0+0xb9a>
  4011db:	f7 d8                	neg    %eax
  4011dd:	89 f2                	mov    %esi,%edx
  4011df:	31 ff                	xor    %edi,%edi
  4011e1:	48 63 d8             	movslq %eax,%rbx
  4011e4:	45 84 db             	test   %r11b,%r11b
  4011e7:	0f 84 2b f8 ff ff    	je     400a18 <vsnprintf.part.0+0x198>
  4011ed:	0f 1f 00             	nopl   (%rax)
  4011f0:	41 c6 45 00 30       	movb   $0x30,0x0(%r13)
  4011f5:	40 84 ff             	test   %dil,%dil
  4011f8:	0f 85 52 fa ff ff    	jne    400c50 <vsnprintf.part.0+0x3d0>
  4011fe:	49 83 c5 01          	add    $0x1,%r13
  401202:	40 84 f6             	test   %sil,%sil
  401205:	0f 85 0d f8 ff ff    	jne    400a18 <vsnprintf.part.0+0x198>
  40120b:	41 bc 0a 00 00 00    	mov    $0xa,%r12d
  401211:	e9 6d fd ff ff       	jmp    400f83 <vsnprintf.part.0+0x703>
  401216:	66 2e 0f 1f 84 00 00 	cs nopw 0x0(%rax,%rax,1)
  40121d:	00 00 00 
  401220:	48 85 db             	test   %rbx,%rbx
  401223:	74 09                	je     40122e <vsnprintf.part.0+0x9ae>
  401225:	45 84 db             	test   %r11b,%r11b
  401228:	0f 85 d2 f8 ff ff    	jne    400b00 <vsnprintf.part.0+0x280>
  40122e:	4d 89 fd             	mov    %r15,%r13
  401231:	41 bc 10 00 00 00    	mov    $0x10,%r12d
  401237:	e9 e4 f8 ff ff       	jmp    400b20 <vsnprintf.part.0+0x2a0>
  40123c:	41 c6 07 2b          	movb   $0x2b,(%r15)
  401240:	e9 1b fd ff ff       	jmp    400f60 <vsnprintf.part.0+0x6e0>
  401245:	48 8b 4d c0          	mov    -0x40(%rbp),%rcx
  401249:	8b 01                	mov    (%rcx),%eax
  40124b:	83 f8 2f             	cmp    $0x2f,%eax
  40124e:	77 7e                	ja     4012ce <vsnprintf.part.0+0xa4e>
  401250:	83 c0 08             	add    $0x8,%eax
  401253:	89 01                	mov    %eax,(%rcx)
  401255:	41 0f b6 7d 02       	movzbl 0x2(%r13),%edi
  40125a:	49 83 c5 02          	add    $0x2,%r13
  40125e:	49 8d 5d 01          	lea    0x1(%r13),%rbx
  401262:	e9 b9 f6 ff ff       	jmp    400920 <vsnprintf.part.0+0xa0>
  401267:	40 84 f6             	test   %sil,%sil
  40126a:	75 69                	jne    4012d5 <vsnprintf.part.0+0xa55>
  40126c:	83 f8 2f             	cmp    $0x2f,%eax
  40126f:	77 41                	ja     4012b2 <vsnprintf.part.0+0xa32>
  401271:	89 c2                	mov    %eax,%edx
  401273:	83 c0 08             	add    $0x8,%eax
  401276:	48 03 51 10          	add    0x10(%rcx),%rdx
  40127a:	89 01                	mov    %eax,(%rcx)
  40127c:	48 8b 1a             	mov    (%rdx),%rbx
  40127f:	45 84 e4             	test   %r12b,%r12b
  401282:	75 9c                	jne    401220 <vsnprintf.part.0+0x9a0>
  401284:	45 84 c9             	test   %r9b,%r9b
  401287:	74 97                	je     401220 <vsnprintf.part.0+0x9a0>
  401289:	41 c6 07 2b          	movb   $0x2b,(%r15)
  40128d:	4d 8d 6f 01          	lea    0x1(%r15),%r13
  401291:	44 89 ca             	mov    %r9d,%edx
  401294:	48 85 db             	test   %rbx,%rbx
  401297:	74 0e                	je     4012a7 <vsnprintf.part.0+0xa27>
  401299:	31 f6                	xor    %esi,%esi
  40129b:	44 89 cf             	mov    %r9d,%edi
  40129e:	45 84 db             	test   %r11b,%r11b
  4012a1:	0f 85 49 ff ff ff    	jne    4011f0 <vsnprintf.part.0+0x970>
  4012a7:	41 bc 10 00 00 00    	mov    $0x10,%r12d
  4012ad:	e9 d1 fc ff ff       	jmp    400f83 <vsnprintf.part.0+0x703>
  4012b2:	48 8b 51 08          	mov    0x8(%rcx),%rdx
  4012b6:	48 8d 42 08          	lea    0x8(%rdx),%rax
  4012ba:	48 89 41 08          	mov    %rax,0x8(%rcx)
  4012be:	eb bc                	jmp    40127c <vsnprintf.part.0+0x9fc>
  4012c0:	4d 89 fd             	mov    %r15,%r13
  4012c3:	41 bc 08 00 00 00    	mov    $0x8,%r12d
  4012c9:	e9 52 f8 ff ff       	jmp    400b20 <vsnprintf.part.0+0x2a0>
  4012ce:	48 83 41 08 08       	addq   $0x8,0x8(%rcx)
  4012d3:	eb 80                	jmp    401255 <vsnprintf.part.0+0x9d5>
  4012d5:	89 f2                	mov    %esi,%edx
  4012d7:	89 f7                	mov    %esi,%edi
  4012d9:	41 89 f2             	mov    %esi,%r10d
  4012dc:	e9 0b fc ff ff       	jmp    400eec <vsnprintf.part.0+0x66c>
  4012e1:	48 8b 51 08          	mov    0x8(%rcx),%rdx
  4012e5:	48 8d 42 08          	lea    0x8(%rdx),%rax
  4012e9:	48 89 41 08          	mov    %rax,0x8(%rcx)
  4012ed:	e9 ec f7 ff ff       	jmp    400ade <vsnprintf.part.0+0x25e>
  4012f2:	48 8b 51 08          	mov    0x8(%rcx),%rdx
  4012f6:	48 8d 42 08          	lea    0x8(%rdx),%rax
  4012fa:	48 89 41 08          	mov    %rax,0x8(%rcx)
  4012fe:	48 8b 1a             	mov    (%rdx),%rbx
  401301:	45 84 e4             	test   %r12b,%r12b
  401304:	0f 84 bb f6 ff ff    	je     4009c5 <vsnprintf.part.0+0x145>
  40130a:	48 85 db             	test   %rbx,%rbx
  40130d:	74 12                	je     401321 <vsnprintf.part.0+0xaa1>
  40130f:	4d 89 fd             	mov    %r15,%r13
  401312:	41 bc 0a 00 00 00    	mov    $0xa,%r12d
  401318:	45 84 db             	test   %r11b,%r11b
  40131b:	0f 85 6a fc ff ff    	jne    400f8b <vsnprintf.part.0+0x70b>
  401321:	4d 89 fd             	mov    %r15,%r13
  401324:	41 bc 0a 00 00 00    	mov    $0xa,%r12d
  40132a:	e9 5c fc ff ff       	jmp    400f8b <vsnprintf.part.0+0x70b>
  40132f:	48 8b 51 08          	mov    0x8(%rcx),%rdx
  401333:	48 8d 42 08          	lea    0x8(%rdx),%rax
  401337:	48 89 41 08          	mov    %rax,0x8(%rcx)
  40133b:	e9 4e f9 ff ff       	jmp    400c8e <vsnprintf.part.0+0x40e>
  401340:	89 c2                	mov    %eax,%edx
  401342:	83 c0 08             	add    $0x8,%eax
  401345:	48 03 51 10          	add    0x10(%rcx),%rdx
  401349:	89 01                	mov    %eax,(%rcx)
  40134b:	e9 bd f8 ff ff       	jmp    400c0d <vsnprintf.part.0+0x38d>
  401350:	48 8b 57 08          	mov    0x8(%rdi),%rdx
  401354:	48 8d 42 08          	lea    0x8(%rdx),%rax
  401358:	48 89 47 08          	mov    %rax,0x8(%rdi)
  40135c:	e9 85 fd ff ff       	jmp    4010e6 <vsnprintf.part.0+0x866>
  401361:	84 c0                	test   %al,%al
  401363:	75 67                	jne    4013cc <vsnprintf.part.0+0xb4c>
  401365:	4d 89 fd             	mov    %r15,%r13
  401368:	41 bc 10 00 00 00    	mov    $0x10,%r12d
  40136e:	e9 18 fc ff ff       	jmp    400f8b <vsnprintf.part.0+0x70b>
  401373:	4c 8d 50 01          	lea    0x1(%rax),%r10
  401377:	48 89 da             	mov    %rbx,%rdx
  40137a:	0f be 75 be          	movsbl -0x42(%rbp),%esi
  40137e:	4c 89 ff             	mov    %r15,%rdi
  401381:	48 29 c2             	sub    %rax,%rdx
  401384:	4c 39 d3             	cmp    %r10,%rbx
  401387:	b8 01 00 00 00       	mov    $0x1,%eax
  40138c:	4c 89 55 c8          	mov    %r10,-0x38(%rbp)
  401390:	48 0f 42 d0          	cmovb  %rax,%rdx
  401394:	e8 e7 0c 00 00       	call   402080 <memset>
  401399:	48 8d 53 ff          	lea    -0x1(%rbx),%rdx
  40139d:	31 c0                	xor    %eax,%eax
  40139f:	4c 29 e2             	sub    %r12,%rdx
  4013a2:	48 3b 5d c8          	cmp    -0x38(%rbp),%rbx
  4013a6:	48 0f 42 d0          	cmovb  %rax,%rdx
  4013aa:	41 0f b6 45 00       	movzbl 0x0(%r13),%eax
  4013af:	4d 8d 7c 17 01       	lea    0x1(%r15,%rdx,1),%r15
  4013b4:	84 c0                	test   %al,%al
  4013b6:	0f 84 14 f5 ff ff    	je     4008d0 <vsnprintf.part.0+0x50>
  4013bc:	4d 8d 64 14 02       	lea    0x2(%r12,%rdx,1),%r12
  4013c1:	49 39 dc             	cmp    %rbx,%r12
  4013c4:	0f 92 c2             	setb   %dl
  4013c7:	e9 54 f9 ff ff       	jmp    400d20 <vsnprintf.part.0+0x4a0>
  4013cc:	41 c6 07 30          	movb   $0x30,(%r15)
  4013d0:	4d 89 fd             	mov    %r15,%r13
  4013d3:	e9 80 f8 ff ff       	jmp    400c58 <vsnprintf.part.0+0x3d8>
  4013d8:	49 89 ff             	mov    %rdi,%r15
  4013db:	e9 f0 f4 ff ff       	jmp    4008d0 <vsnprintf.part.0+0x50>
  4013e0:	4d 89 fd             	mov    %r15,%r13
  4013e3:	45 84 db             	test   %r11b,%r11b
  4013e6:	0f 84 db fc ff ff    	je     4010c7 <vsnprintf.part.0+0x847>
  4013ec:	41 c6 07 30          	movb   $0x30,(%r15)
  4013f0:	49 83 c5 01          	add    $0x1,%r13
  4013f4:	e9 ce fc ff ff       	jmp    4010c7 <vsnprintf.part.0+0x847>
  4013f9:	41 c6 47 01 30       	movb   $0x30,0x1(%r15)
  4013fe:	4d 8d 6f 02          	lea    0x2(%r15),%r13
  401402:	44 89 ca             	mov    %r9d,%edx
  401405:	e9 0e f6 ff ff       	jmp    400a18 <vsnprintf.part.0+0x198>
  40140a:	44 89 ca             	mov    %r9d,%edx
  40140d:	e9 95 fe ff ff       	jmp    4012a7 <vsnprintf.part.0+0xa27>
  401412:	4d 89 ef             	mov    %r13,%r15
  401415:	e9 ea f6 ff ff       	jmp    400b04 <vsnprintf.part.0+0x284>
  40141a:	31 db                	xor    %ebx,%ebx
  40141c:	e9 a6 fc ff ff       	jmp    4010c7 <vsnprintf.part.0+0x847>
  401421:	0f 1f 40 00          	nopl   0x0(%rax)
  401425:	66 66 2e 0f 1f 84 00 	data16 cs nopw 0x0(%rax,%rax,1)
  40142c:	00 00 00 00 

0000000000401430 <snprintf>:
  401430:	55                   	push   %rbp
  401431:	48 89 e5             	mov    %rsp,%rbp
  401434:	48 81 ec d0 00 00 00 	sub    $0xd0,%rsp
  40143b:	48 89 8d 68 ff ff ff 	mov    %rcx,-0x98(%rbp)
  401442:	4c 89 85 70 ff ff ff 	mov    %r8,-0x90(%rbp)
  401449:	4c 89 8d 78 ff ff ff 	mov    %r9,-0x88(%rbp)
  401450:	84 c0                	test   %al,%al
  401452:	74 20                	je     401474 <snprintf+0x44>
  401454:	0f 29 45 80          	movaps %xmm0,-0x80(%rbp)
  401458:	0f 29 4d 90          	movaps %xmm1,-0x70(%rbp)
  40145c:	0f 29 55 a0          	movaps %xmm2,-0x60(%rbp)
  401460:	0f 29 5d b0          	movaps %xmm3,-0x50(%rbp)
  401464:	0f 29 65 c0          	movaps %xmm4,-0x40(%rbp)
  401468:	0f 29 6d d0          	movaps %xmm5,-0x30(%rbp)
  40146c:	0f 29 75 e0          	movaps %xmm6,-0x20(%rbp)
  401470:	0f 29 7d f0          	movaps %xmm7,-0x10(%rbp)
  401474:	c7 85 38 ff ff ff 18 	movl   $0x18,-0xc8(%rbp)
  40147b:	00 00 00 
  40147e:	48 8d 45 10          	lea    0x10(%rbp),%rax
  401482:	48 89 85 40 ff ff ff 	mov    %rax,-0xc0(%rbp)
  401489:	48 8d 85 50 ff ff ff 	lea    -0xb0(%rbp),%rax
  401490:	48 89 85 48 ff ff ff 	mov    %rax,-0xb8(%rbp)
  401497:	31 c0                	xor    %eax,%eax
  401499:	c7 85 3c ff ff ff 30 	movl   $0x30,-0xc4(%rbp)
  4014a0:	00 00 00 
  4014a3:	48 85 f6             	test   %rsi,%rsi
  4014a6:	74 11                	je     4014b9 <snprintf+0x89>
  4014a8:	48 8d 8d 38 ff ff ff 	lea    -0xc8(%rbp),%rcx
  4014af:	e8 cc f3 ff ff       	call   400880 <vsnprintf.part.0>
  4014b4:	b8 01 00 00 00       	mov    $0x1,%eax
  4014b9:	c9                   	leave
  4014ba:	c3                   	ret
  4014bb:	0f 1f 44 00 00       	nopl   0x0(%rax,%rax,1)

00000000004014c0 <sprintf>:
  4014c0:	55                   	push   %rbp
  4014c1:	48 89 e5             	mov    %rsp,%rbp
  4014c4:	48 81 ec d0 00 00 00 	sub    $0xd0,%rsp
  4014cb:	48 89 95 60 ff ff ff 	mov    %rdx,-0xa0(%rbp)
  4014d2:	48 89 8d 68 ff ff ff 	mov    %rcx,-0x98(%rbp)
  4014d9:	4c 89 85 70 ff ff ff 	mov    %r8,-0x90(%rbp)
  4014e0:	4c 89 8d 78 ff ff ff 	mov    %r9,-0x88(%rbp)
  4014e7:	84 c0                	test   %al,%al
  4014e9:	74 20                	je     40150b <sprintf+0x4b>
  4014eb:	0f 29 45 80          	movaps %xmm0,-0x80(%rbp)
  4014ef:	0f 29 4d 90          	movaps %xmm1,-0x70(%rbp)
  4014f3:	0f 29 55 a0          	movaps %xmm2,-0x60(%rbp)
  4014f7:	0f 29 5d b0          	movaps %xmm3,-0x50(%rbp)
  4014fb:	0f 29 65 c0          	movaps %xmm4,-0x40(%rbp)
  4014ff:	0f 29 6d d0          	movaps %xmm5,-0x30(%rbp)
  401503:	0f 29 75 e0          	movaps %xmm6,-0x20(%rbp)
  401507:	0f 29 7d f0          	movaps %xmm7,-0x10(%rbp)
  40150b:	48 8d 45 10          	lea    0x10(%rbp),%rax
  40150f:	48 89 f2             	mov    %rsi,%rdx
  401512:	48 8d 8d 38 ff ff ff 	lea    -0xc8(%rbp),%rcx
  401519:	48 c7 c6 ff ff ff ff 	mov    $0xffffffffffffffff,%rsi
  401520:	48 89 85 40 ff ff ff 	mov    %rax,-0xc0(%rbp)
  401527:	48 8d 85 50 ff ff ff 	lea    -0xb0(%rbp),%rax
  40152e:	c7 85 38 ff ff ff 10 	movl   $0x10,-0xc8(%rbp)
  401535:	00 00 00 
  401538:	c7 85 3c ff ff ff 30 	movl   $0x30,-0xc4(%rbp)
  40153f:	00 00 00 
  401542:	48 89 85 48 ff ff ff 	mov    %rax,-0xb8(%rbp)
  401549:	e8 32 f3 ff ff       	call   400880 <vsnprintf.part.0>
  40154e:	b8 01 00 00 00       	mov    $0x1,%eax
  401553:	c9                   	leave
  401554:	c3                   	ret
  401555:	66 66 2e 0f 1f 84 00 	data16 cs nopw 0x0(%rax,%rax,1)
  40155c:	00 00 00 00 

0000000000401560 <sscanf>:
  401560:	55                   	push   %rbp
  401561:	48 89 e5             	mov    %rsp,%rbp
  401564:	48 8d 45 10          	lea    0x10(%rbp),%rax
  401568:	48 89 45 f0          	mov    %rax,-0x10(%rbp)
  40156c:	31 c0                	xor    %eax,%eax
  40156e:	5d                   	pop    %rbp
  40156f:	c3                   	ret

0000000000401570 <fopen>:
  401570:	48 89 fe             	mov    %rdi,%rsi
  401573:	bf 08 00 00 00       	mov    $0x8,%edi
  401578:	cd f0                	int    $0xf0
  40157a:	c3                   	ret
  40157b:	0f 1f 44 00 00       	nopl   0x0(%rax,%rax,1)

0000000000401580 <fclose>:
  401580:	48 89 fe             	mov    %rdi,%rsi
  401583:	bf 0d 00 00 00       	mov    $0xd,%edi
  401588:	cd f0                	int    $0xf0
  40158a:	c3                   	ret
  40158b:	0f 1f 44 00 00       	nopl   0x0(%rax,%rax,1)

0000000000401590 <vsnprintf>:
  401590:	48 85 f6             	test   %rsi,%rsi
  401593:	74 0b                	je     4015a0 <vsnprintf+0x10>
  401595:	e9 e6 f2 ff ff       	jmp    400880 <vsnprintf.part.0>
  40159a:	66 0f 1f 44 00 00    	nopw   0x0(%rax,%rax,1)
  4015a0:	31 c0                	xor    %eax,%eax
  4015a2:	c3                   	ret
  4015a3:	66 90                	xchg   %ax,%ax
  4015a5:	66 66 2e 0f 1f 84 00 	data16 cs nopw 0x0(%rax,%rax,1)
  4015ac:	00 00 00 00 

00000000004015b0 <vsprintf>:
  4015b0:	48 89 d1             	mov    %rdx,%rcx
  4015b3:	48 89 f2             	mov    %rsi,%rdx
  4015b6:	48 c7 c6 ff ff ff ff 	mov    $0xffffffffffffffff,%rsi
  4015bd:	e9 be f2 ff ff       	jmp    400880 <vsnprintf.part.0>
  4015c2:	0f 1f 00             	nopl   (%rax)
  4015c5:	66 66 2e 0f 1f 84 00 	data16 cs nopw 0x0(%rax,%rax,1)
  4015cc:	00 00 00 00 

00000000004015d0 <printf>:
  4015d0:	55                   	push   %rbp
  4015d1:	48 89 e5             	mov    %rsp,%rbp
  4015d4:	48 81 ec c0 04 00 00 	sub    $0x4c0,%rsp
  4015db:	48 89 b5 58 ff ff ff 	mov    %rsi,-0xa8(%rbp)
  4015e2:	48 89 95 60 ff ff ff 	mov    %rdx,-0xa0(%rbp)
  4015e9:	48 89 8d 68 ff ff ff 	mov    %rcx,-0x98(%rbp)
  4015f0:	4c 89 85 70 ff ff ff 	mov    %r8,-0x90(%rbp)
  4015f7:	4c 89 8d 78 ff ff ff 	mov    %r9,-0x88(%rbp)
  4015fe:	84 c0                	test   %al,%al
  401600:	74 20                	je     401622 <printf+0x52>
  401602:	0f 29 45 80          	movaps %xmm0,-0x80(%rbp)
  401606:	0f 29 4d 90          	movaps %xmm1,-0x70(%rbp)
  40160a:	0f 29 55 a0          	movaps %xmm2,-0x60(%rbp)
  40160e:	0f 29 5d b0          	movaps %xmm3,-0x50(%rbp)
  401612:	0f 29 65 c0          	movaps %xmm4,-0x40(%rbp)
  401616:	0f 29 6d d0          	movaps %xmm5,-0x30(%rbp)
  40161a:	0f 29 75 e0          	movaps %xmm6,-0x20(%rbp)
  40161e:	0f 29 7d f0          	movaps %xmm7,-0x10(%rbp)
  401622:	48 8d 45 10          	lea    0x10(%rbp),%rax
  401626:	48 89 fa             	mov    %rdi,%rdx
  401629:	48 8d 8d 48 fb ff ff 	lea    -0x4b8(%rbp),%rcx
  401630:	48 c7 c6 ff ff ff ff 	mov    $0xffffffffffffffff,%rsi
  401637:	48 89 85 50 fb ff ff 	mov    %rax,-0x4b0(%rbp)
  40163e:	48 8d bd 60 fb ff ff 	lea    -0x4a0(%rbp),%rdi
  401645:	48 8d 85 50 ff ff ff 	lea    -0xb0(%rbp),%rax
  40164c:	c7 85 48 fb ff ff 08 	movl   $0x8,-0x4b8(%rbp)
  401653:	00 00 00 
  401656:	c7 85 4c fb ff ff 30 	movl   $0x30,-0x4b4(%rbp)
  40165d:	00 00 00 
  401660:	48 89 85 58 fb ff ff 	mov    %rax,-0x4a8(%rbp)
  401667:	e8 14 f2 ff ff       	call   400880 <vsnprintf.part.0>
  40166c:	48 8d bd 60 fb ff ff 	lea    -0x4a0(%rbp),%rdi
  401673:	e8 48 0a 00 00       	call   4020c0 <strlen>
  401678:	bf 02 00 00 00       	mov    $0x2,%edi
  40167d:	48 8d b5 60 fb ff ff 	lea    -0x4a0(%rbp),%rsi
  401684:	48 89 c2             	mov    %rax,%rdx
  401687:	cd f0                	int    $0xf0
  401689:	c9                   	leave
  40168a:	b8 01 00 00 00       	mov    $0x1,%eax
  40168f:	c3                   	ret

0000000000401690 <vsscanf>:
  401690:	c3                   	ret
  401691:	0f 1f 40 00          	nopl   0x0(%rax)
  401695:	66 66 2e 0f 1f 84 00 	data16 cs nopw 0x0(%rax,%rax,1)
  40169c:	00 00 00 00 

00000000004016a0 <fflush>:
  4016a0:	31 c0                	xor    %eax,%eax
  4016a2:	c3                   	ret
  4016a3:	66 90                	xchg   %ax,%ax
  4016a5:	66 66 2e 0f 1f 84 00 	data16 cs nopw 0x0(%rax,%rax,1)
  4016ac:	00 00 00 00 

00000000004016b0 <fprintf>:
  4016b0:	31 c0                	xor    %eax,%eax
  4016b2:	c3                   	ret
  4016b3:	66 90                	xchg   %ax,%ax
  4016b5:	66 66 2e 0f 1f 84 00 	data16 cs nopw 0x0(%rax,%rax,1)
  4016bc:	00 00 00 00 

00000000004016c0 <puts>:
  4016c0:	55                   	push   %rbp
  4016c1:	48 89 e5             	mov    %rsp,%rbp
  4016c4:	53                   	push   %rbx
  4016c5:	48 89 fb             	mov    %rdi,%rbx
  4016c8:	48 83 ec 08          	sub    $0x8,%rsp
  4016cc:	e8 ef 09 00 00       	call   4020c0 <strlen>
  4016d1:	bf 02 00 00 00       	mov    $0x2,%edi
  4016d6:	48 89 de             	mov    %rbx,%rsi
  4016d9:	48 89 c2             	mov    %rax,%rdx
  4016dc:	cd f0                	int    $0xf0
  4016de:	31 c0                	xor    %eax,%eax
  4016e0:	48 8b 5d f8          	mov    -0x8(%rbp),%rbx
  4016e4:	c9                   	leave
  4016e5:	c3                   	ret
  4016e6:	66 2e 0f 1f 84 00 00 	cs nopw 0x0(%rax,%rax,1)
  4016ed:	00 00 00 
  4016f0:	66 2e 0f 1f 84 00 00 	cs nopw 0x0(%rax,%rax,1)
  4016f7:	00 00 00 
  4016fa:	66 0f 1f 44 00 00    	nopw   0x0(%rax,%rax,1)

0000000000401700 <atoi>:
  401700:	eb 12                	jmp    401714 <atoi+0x14>
  401702:	0f 1f 00             	nopl   (%rax)
  401705:	66 66 2e 0f 1f 84 00 	data16 cs nopw 0x0(%rax,%rax,1)
  40170c:	00 00 00 00 
  401710:	48 83 c7 01          	add    $0x1,%rdi
  401714:	0f b6 07             	movzbl (%rdi),%eax
  401717:	8d 50 f7             	lea    -0x9(%rax),%edx
  40171a:	80 fa 04             	cmp    $0x4,%dl
  40171d:	76 f1                	jbe    401710 <atoi+0x10>
  40171f:	3c 20                	cmp    $0x20,%al
  401721:	74 ed                	je     401710 <atoi+0x10>
  401723:	8d 50 d0             	lea    -0x30(%rax),%edx
  401726:	80 fa 09             	cmp    $0x9,%dl
  401729:	ba 00 00 00 00       	mov    $0x0,%edx
  40172e:	77 2b                	ja     40175b <atoi+0x5b>
  401730:	0f 1f 44 00 00       	nopl   0x0(%rax,%rax,1)
  401735:	66 66 2e 0f 1f 84 00 	data16 cs nopw 0x0(%rax,%rax,1)
  40173c:	00 00 00 00 
  401740:	83 e8 30             	sub    $0x30,%eax
  401743:	8d 14 92             	lea    (%rdx,%rdx,4),%edx
  401746:	48 83 c7 01          	add    $0x1,%rdi
  40174a:	0f be c0             	movsbl %al,%eax
  40174d:	8d 14 50             	lea    (%rax,%rdx,2),%edx
  401750:	0f b6 07             	movzbl (%rdi),%eax
  401753:	8d 48 d0             	lea    -0x30(%rax),%ecx
  401756:	80 f9 09             	cmp    $0x9,%cl
  401759:	76 e5                	jbe    401740 <atoi+0x40>
  40175b:	89 d0                	mov    %edx,%eax
  40175d:	c3                   	ret
  40175e:	66 90                	xchg   %ax,%ax

0000000000401760 <atol>:
  401760:	eb 12                	jmp    401774 <atol+0x14>
  401762:	0f 1f 00             	nopl   (%rax)
  401765:	66 66 2e 0f 1f 84 00 	data16 cs nopw 0x0(%rax,%rax,1)
  40176c:	00 00 00 00 
  401770:	48 83 c7 01          	add    $0x1,%rdi
  401774:	0f b6 07             	movzbl (%rdi),%eax
  401777:	8d 50 f7             	lea    -0x9(%rax),%edx
  40177a:	80 fa 04             	cmp    $0x4,%dl
  40177d:	76 f1                	jbe    401770 <atol+0x10>
  40177f:	3c 20                	cmp    $0x20,%al
  401781:	74 ed                	je     401770 <atol+0x10>
  401783:	8d 50 d0             	lea    -0x30(%rax),%edx
  401786:	80 fa 09             	cmp    $0x9,%dl
  401789:	ba 00 00 00 00       	mov    $0x0,%edx
  40178e:	77 2e                	ja     4017be <atol+0x5e>
  401790:	0f 1f 44 00 00       	nopl   0x0(%rax,%rax,1)
  401795:	66 66 2e 0f 1f 84 00 	data16 cs nopw 0x0(%rax,%rax,1)
  40179c:	00 00 00 00 
  4017a0:	83 e8 30             	sub    $0x30,%eax
  4017a3:	48 8d 14 92          	lea    (%rdx,%rdx,4),%rdx
  4017a7:	48 83 c7 01          	add    $0x1,%rdi
  4017ab:	48 0f be c0          	movsbq %al,%rax
  4017af:	48 8d 14 50          	lea    (%rax,%rdx,2),%rdx
  4017b3:	0f b6 07             	movzbl (%rdi),%eax
  4017b6:	8d 48 d0             	lea    -0x30(%rax),%ecx
  4017b9:	80 f9 09             	cmp    $0x9,%cl
  4017bc:	76 e2                	jbe    4017a0 <atol+0x40>
  4017be:	48 89 d0             	mov    %rdx,%rax
  4017c1:	c3                   	ret
  4017c2:	0f 1f 00             	nopl   (%rax)
  4017c5:	66 66 2e 0f 1f 84 00 	data16 cs nopw 0x0(%rax,%rax,1)
  4017cc:	00 00 00 00 

00000000004017d0 <atoll>:
  4017d0:	eb 12                	jmp    4017e4 <atoll+0x14>
  4017d2:	0f 1f 00             	nopl   (%rax)
  4017d5:	66 66 2e 0f 1f 84 00 	data16 cs nopw 0x0(%rax,%rax,1)
  4017dc:	00 00 00 00 
  4017e0:	48 83 c7 01          	add    $0x1,%rdi
  4017e4:	0f b6 07             	movzbl (%rdi),%eax
  4017e7:	8d 50 f7             	lea    -0x9(%rax),%edx
  4017ea:	80 fa 04             	cmp    $0x4,%dl
  4017ed:	76 f1                	jbe    4017e0 <atoll+0x10>
  4017ef:	3c 20                	cmp    $0x20,%al
  4017f1:	74 ed                	je     4017e0 <atoll+0x10>
  4017f3:	8d 50 d0             	lea    -0x30(%rax),%edx
  4017f6:	80 fa 09             	cmp    $0x9,%dl
  4017f9:	ba 00 00 00 00       	mov    $0x0,%edx
  4017fe:	77 1e                	ja     40181e <atoll+0x4e>
  401800:	83 e8 30             	sub    $0x30,%eax
  401803:	48 8d 14 92          	lea    (%rdx,%rdx,4),%rdx
  401807:	48 83 c7 01          	add    $0x1,%rdi
  40180b:	48 0f be c0          	movsbq %al,%rax
  40180f:	48 8d 14 50          	lea    (%rax,%rdx,2),%rdx
  401813:	0f b6 07             	movzbl (%rdi),%eax
  401816:	8d 48 d0             	lea    -0x30(%rax),%ecx
  401819:	80 f9 09             	cmp    $0x9,%cl
  40181c:	76 e2                	jbe    401800 <atoll+0x30>
  40181e:	48 89 d0             	mov    %rdx,%rax
  401821:	c3                   	ret
  401822:	0f 1f 00             	nopl   (%rax)
  401825:	66 66 2e 0f 1f 84 00 	data16 cs nopw 0x0(%rax,%rax,1)
  40182c:	00 00 00 00 

0000000000401830 <rand>:
  401830:	48 69 0d 2d 28 00 00 	imul   $0x693d4a4,0x282d(%rip),%rcx        # 404068 <_rand_value>
  401837:	a4 d4 93 06 
  40183b:	48 b8 05 00 00 00 02 	movabs $0x200000005,%rax
  401842:	00 00 00 
  401845:	48 81 c1 39 30 00 00 	add    $0x3039,%rcx
  40184c:	48 f7 e1             	mul    %rcx
  40184f:	48 89 c8             	mov    %rcx,%rax
  401852:	48 89 0d 0f 28 00 00 	mov    %rcx,0x280f(%rip)        # 404068 <_rand_value>
  401859:	48 29 d0             	sub    %rdx,%rax
  40185c:	48 d1 e8             	shr    $1,%rax
  40185f:	48 01 c2             	add    %rax,%rdx
  401862:	89 c8                	mov    %ecx,%eax
  401864:	48 c1 ea 1e          	shr    $0x1e,%rdx
  401868:	48 89 d6             	mov    %rdx,%rsi
  40186b:	48 c1 e6 1f          	shl    $0x1f,%rsi
  40186f:	48 29 d6             	sub    %rdx,%rsi
  401872:	29 f0                	sub    %esi,%eax
  401874:	c3                   	ret
  401875:	66 66 2e 0f 1f 84 00 	data16 cs nopw 0x0(%rax,%rax,1)
  40187c:	00 00 00 00 

0000000000401880 <srand>:
  401880:	89 f8                	mov    %edi,%eax
  401882:	48 89 05 df 27 00 00 	mov    %rax,0x27df(%rip)        # 404068 <_rand_value>
  401889:	c3                   	ret
  40188a:	66 0f 1f 44 00 00    	nopw   0x0(%rax,%rax,1)

0000000000401890 <abs>:
  401890:	89 f8                	mov    %edi,%eax
  401892:	f7 d8                	neg    %eax
  401894:	0f 48 c7             	cmovs  %edi,%eax
  401897:	c3                   	ret
  401898:	0f 1f 84 00 00 00 00 	nopl   0x0(%rax,%rax,1)
  40189f:	00 

00000000004018a0 <labs>:
  4018a0:	48 89 f8             	mov    %rdi,%rax
  4018a3:	48 f7 d8             	neg    %rax
  4018a6:	48 0f 48 c7          	cmovs  %rdi,%rax
  4018aa:	c3                   	ret
  4018ab:	0f 1f 44 00 00       	nopl   0x0(%rax,%rax,1)

00000000004018b0 <llabs>:
  4018b0:	48 89 f8             	mov    %rdi,%rax
  4018b3:	48 f7 d8             	neg    %rax
  4018b6:	48 0f 48 c7          	cmovs  %rdi,%rax
  4018ba:	c3                   	ret
  4018bb:	0f 1f 44 00 00       	nopl   0x0(%rax,%rax,1)

00000000004018c0 <div>:
  4018c0:	89 f8                	mov    %edi,%eax
  4018c2:	99                   	cltd
  4018c3:	f7 fe                	idiv   %esi
  4018c5:	48 c1 e2 20          	shl    $0x20,%rdx
  4018c9:	48 09 d0             	or     %rdx,%rax
  4018cc:	c3                   	ret
  4018cd:	0f 1f 00             	nopl   (%rax)

00000000004018d0 <ldiv>:
  4018d0:	48 89 f8             	mov    %rdi,%rax
  4018d3:	48 99                	cqto
  4018d5:	48 f7 fe             	idiv   %rsi
  4018d8:	c3                   	ret
  4018d9:	0f 1f 80 00 00 00 00 	nopl   0x0(%rax)

00000000004018e0 <lldiv>:
  4018e0:	31 c0                	xor    %eax,%eax
  4018e2:	31 d2                	xor    %edx,%edx
  4018e4:	c3                   	ret
  4018e5:	66 2e 0f 1f 84 00 00 	cs nopw 0x0(%rax,%rax,1)
  4018ec:	00 00 00 
  4018ef:	66 2e 0f 1f 84 00 00 	cs nopw 0x0(%rax,%rax,1)
  4018f6:	00 00 00 
  4018f9:	0f 1f 80 00 00 00 00 	nopl   0x0(%rax)

0000000000401900 <memcpy>:
  401900:	48 89 d1             	mov    %rdx,%rcx
  401903:	48 89 f8             	mov    %rdi,%rax
  401906:	83 e2 03             	and    $0x3,%edx
  401909:	48 c1 e9 02          	shr    $0x2,%rcx
  40190d:	f3 a5                	rep movsl (%rsi),(%rdi)
  40190f:	48 89 d1             	mov    %rdx,%rcx
  401912:	f3 a4                	rep movsb (%rsi),(%rdi)
  401914:	c3                   	ret
  401915:	66 66 2e 0f 1f 84 00 	data16 cs nopw 0x0(%rax,%rax,1)
  40191c:	00 00 00 00 

0000000000401920 <memmove>:
  401920:	48 89 f8             	mov    %rdi,%rax
  401923:	48 89 d1             	mov    %rdx,%rcx
  401926:	48 39 f7             	cmp    %rsi,%rdi
  401929:	73 05                	jae    401930 <memmove+0x10>
  40192b:	f3 a4                	rep movsb (%rsi),(%rdi)
  40192d:	c3                   	ret
  40192e:	66 90                	xchg   %ax,%ax
  401930:	48 8d 74 16 ff       	lea    -0x1(%rsi,%rdx,1),%rsi
  401935:	48 8d 7c 17 ff       	lea    -0x1(%rdi,%rdx,1),%rdi
  40193a:	fd                   	std
  40193b:	f3 a4                	rep movsb (%rsi),(%rdi)
  40193d:	fc                   	cld
  40193e:	c3                   	ret
  40193f:	90                   	nop

0000000000401940 <strcpy>:
  401940:	55                   	push   %rbp
  401941:	48 89 e5             	mov    %rsp,%rbp
  401944:	41 54                	push   %r12
  401946:	49 89 fc             	mov    %rdi,%r12
  401949:	48 89 f7             	mov    %rsi,%rdi
  40194c:	53                   	push   %rbx
  40194d:	48 89 f3             	mov    %rsi,%rbx
  401950:	e8 6b 07 00 00       	call   4020c0 <strlen>
  401955:	48 89 de             	mov    %rbx,%rsi
  401958:	4c 89 e7             	mov    %r12,%rdi
  40195b:	48 83 c0 01          	add    $0x1,%rax
  40195f:	48 89 c1             	mov    %rax,%rcx
  401962:	83 e0 03             	and    $0x3,%eax
  401965:	48 c1 e9 02          	shr    $0x2,%rcx
  401969:	f3 a5                	rep movsl (%rsi),(%rdi)
  40196b:	48 89 c1             	mov    %rax,%rcx
  40196e:	f3 a4                	rep movsb (%rsi),(%rdi)
  401970:	4c 89 e0             	mov    %r12,%rax
  401973:	5b                   	pop    %rbx
  401974:	41 5c                	pop    %r12
  401976:	5d                   	pop    %rbp
  401977:	c3                   	ret
  401978:	0f 1f 84 00 00 00 00 	nopl   0x0(%rax,%rax,1)
  40197f:	00 

0000000000401980 <strncpy>:
  401980:	55                   	push   %rbp
  401981:	48 89 e5             	mov    %rsp,%rbp
  401984:	41 55                	push   %r13
  401986:	49 89 d5             	mov    %rdx,%r13
  401989:	41 54                	push   %r12
  40198b:	49 89 fc             	mov    %rdi,%r12
  40198e:	48 89 f7             	mov    %rsi,%rdi
  401991:	53                   	push   %rbx
  401992:	48 89 f3             	mov    %rsi,%rbx
  401995:	48 83 ec 08          	sub    $0x8,%rsp
  401999:	e8 22 07 00 00       	call   4020c0 <strlen>
  40199e:	4d 89 e8             	mov    %r13,%r8
  4019a1:	48 89 de             	mov    %rbx,%rsi
  4019a4:	4c 89 e7             	mov    %r12,%rdi
  4019a7:	48 83 c0 01          	add    $0x1,%rax
  4019ab:	4c 39 e8             	cmp    %r13,%rax
  4019ae:	4c 0f 46 c0          	cmovbe %rax,%r8
  4019b2:	4c 89 c1             	mov    %r8,%rcx
  4019b5:	4c 89 c2             	mov    %r8,%rdx
  4019b8:	48 c1 e9 02          	shr    $0x2,%rcx
  4019bc:	83 e2 03             	and    $0x3,%edx
  4019bf:	f3 a5                	rep movsl (%rsi),(%rdi)
  4019c1:	48 89 d1             	mov    %rdx,%rcx
  4019c4:	f3 a4                	rep movsb (%rsi),(%rdi)
  4019c6:	4c 39 e8             	cmp    %r13,%rax
  4019c9:	72 15                	jb     4019e0 <strncpy+0x60>
  4019cb:	48 83 c4 08          	add    $0x8,%rsp
  4019cf:	4c 89 e0             	mov    %r12,%rax
  4019d2:	5b                   	pop    %rbx
  4019d3:	41 5c                	pop    %r12
  4019d5:	41 5d                	pop    %r13
  4019d7:	5d                   	pop    %rbp
  4019d8:	c3                   	ret
  4019d9:	0f 1f 80 00 00 00 00 	nopl   0x0(%rax)
  4019e0:	4c 89 ea             	mov    %r13,%rdx
  4019e3:	4b 8d 3c 04          	lea    (%r12,%r8,1),%rdi
  4019e7:	31 f6                	xor    %esi,%esi
  4019e9:	4c 29 c2             	sub    %r8,%rdx
  4019ec:	e8 8f 06 00 00       	call   402080 <memset>
  4019f1:	48 83 c4 08          	add    $0x8,%rsp
  4019f5:	4c 89 e0             	mov    %r12,%rax
  4019f8:	5b                   	pop    %rbx
  4019f9:	41 5c                	pop    %r12
  4019fb:	41 5d                	pop    %r13
  4019fd:	5d                   	pop    %rbp
  4019fe:	c3                   	ret
  4019ff:	90                   	nop

0000000000401a00 <strcat>:
  401a00:	55                   	push   %rbp
  401a01:	48 89 e5             	mov    %rsp,%rbp
  401a04:	41 55                	push   %r13
  401a06:	49 89 fd             	mov    %rdi,%r13
  401a09:	41 54                	push   %r12
  401a0b:	53                   	push   %rbx
  401a0c:	48 89 f3             	mov    %rsi,%rbx
  401a0f:	48 83 ec 08          	sub    $0x8,%rsp
  401a13:	e8 a8 06 00 00       	call   4020c0 <strlen>
  401a18:	48 89 df             	mov    %rbx,%rdi
  401a1b:	49 89 c4             	mov    %rax,%r12
  401a1e:	e8 9d 06 00 00       	call   4020c0 <strlen>
  401a23:	4b 8d 7c 25 00       	lea    0x0(%r13,%r12,1),%rdi
  401a28:	48 89 de             	mov    %rbx,%rsi
  401a2b:	48 83 c0 01          	add    $0x1,%rax
  401a2f:	48 89 c1             	mov    %rax,%rcx
  401a32:	83 e0 03             	and    $0x3,%eax
  401a35:	48 c1 e9 02          	shr    $0x2,%rcx
  401a39:	f3 a5                	rep movsl (%rsi),(%rdi)
  401a3b:	48 89 c1             	mov    %rax,%rcx
  401a3e:	f3 a4                	rep movsb (%rsi),(%rdi)
  401a40:	48 83 c4 08          	add    $0x8,%rsp
  401a44:	4c 89 e8             	mov    %r13,%rax
  401a47:	5b                   	pop    %rbx
  401a48:	41 5c                	pop    %r12
  401a4a:	41 5d                	pop    %r13
  401a4c:	5d                   	pop    %rbp
  401a4d:	c3                   	ret
  401a4e:	66 90                	xchg   %ax,%ax

0000000000401a50 <strncat>:
  401a50:	55                   	push   %rbp
  401a51:	48 89 e5             	mov    %rsp,%rbp
  401a54:	41 56                	push   %r14
  401a56:	41 55                	push   %r13
  401a58:	49 89 fd             	mov    %rdi,%r13
  401a5b:	48 89 f7             	mov    %rsi,%rdi
  401a5e:	41 54                	push   %r12
  401a60:	49 89 d4             	mov    %rdx,%r12
  401a63:	53                   	push   %rbx
  401a64:	48 89 f3             	mov    %rsi,%rbx
  401a67:	e8 54 06 00 00       	call   4020c0 <strlen>
  401a6c:	4c 89 ef             	mov    %r13,%rdi
  401a6f:	4c 39 e0             	cmp    %r12,%rax
  401a72:	49 89 c6             	mov    %rax,%r14
  401a75:	4c 0f 46 e0          	cmovbe %rax,%r12
  401a79:	e8 42 06 00 00       	call   4020c0 <strlen>
  401a7e:	48 89 de             	mov    %rbx,%rsi
  401a81:	49 8d 54 05 00       	lea    0x0(%r13,%rax,1),%rdx
  401a86:	49 8d 46 01          	lea    0x1(%r14),%rax
  401a8a:	49 39 c4             	cmp    %rax,%r12
  401a8d:	49 89 c0             	mov    %rax,%r8
  401a90:	48 89 d7             	mov    %rdx,%rdi
  401a93:	4d 0f 46 c4          	cmovbe %r12,%r8
  401a97:	4c 89 c1             	mov    %r8,%rcx
  401a9a:	4d 89 c1             	mov    %r8,%r9
  401a9d:	48 c1 e9 02          	shr    $0x2,%rcx
  401aa1:	41 83 e1 03          	and    $0x3,%r9d
  401aa5:	f3 a5                	rep movsl (%rsi),(%rdi)
  401aa7:	4c 89 c9             	mov    %r9,%rcx
  401aaa:	f3 a4                	rep movsb (%rsi),(%rdi)
  401aac:	4c 39 e0             	cmp    %r12,%rax
  401aaf:	72 1f                	jb     401ad0 <strncat+0x80>
  401ab1:	4c 89 ef             	mov    %r13,%rdi
  401ab4:	e8 07 06 00 00       	call   4020c0 <strlen>
  401ab9:	4c 01 e8             	add    %r13,%rax
  401abc:	42 c6 04 20 00       	movb   $0x0,(%rax,%r12,1)
  401ac1:	4c 89 e8             	mov    %r13,%rax
  401ac4:	5b                   	pop    %rbx
  401ac5:	41 5c                	pop    %r12
  401ac7:	41 5d                	pop    %r13
  401ac9:	41 5e                	pop    %r14
  401acb:	5d                   	pop    %rbp
  401acc:	c3                   	ret
  401acd:	0f 1f 00             	nopl   (%rax)
  401ad0:	4c 89 e0             	mov    %r12,%rax
  401ad3:	4a 8d 3c 02          	lea    (%rdx,%r8,1),%rdi
  401ad7:	31 f6                	xor    %esi,%esi
  401ad9:	4c 29 c0             	sub    %r8,%rax
  401adc:	48 89 c2             	mov    %rax,%rdx
  401adf:	e8 9c 05 00 00       	call   402080 <memset>
  401ae4:	eb cb                	jmp    401ab1 <strncat+0x61>
  401ae6:	66 2e 0f 1f 84 00 00 	cs nopw 0x0(%rax,%rax,1)
  401aed:	00 00 00 

0000000000401af0 <memcmp>:
  401af0:	49 89 f0             	mov    %rsi,%r8
  401af3:	48 89 d6             	mov    %rdx,%rsi
  401af6:	48 85 d2             	test   %rdx,%rdx
  401af9:	74 25                	je     401b20 <memcmp+0x30>
  401afb:	31 c0                	xor    %eax,%eax
  401afd:	eb 0e                	jmp    401b0d <memcmp+0x1d>
  401aff:	90                   	nop
  401b00:	38 d1                	cmp    %dl,%cl
  401b02:	72 24                	jb     401b28 <memcmp+0x38>
  401b04:	48 83 c0 01          	add    $0x1,%rax
  401b08:	48 39 c6             	cmp    %rax,%rsi
  401b0b:	74 13                	je     401b20 <memcmp+0x30>
  401b0d:	0f b6 0c 07          	movzbl (%rdi,%rax,1),%ecx
  401b11:	41 0f b6 14 00       	movzbl (%r8,%rax,1),%edx
  401b16:	38 ca                	cmp    %cl,%dl
  401b18:	73 e6                	jae    401b00 <memcmp+0x10>
  401b1a:	b8 01 00 00 00       	mov    $0x1,%eax
  401b1f:	c3                   	ret
  401b20:	31 c0                	xor    %eax,%eax
  401b22:	c3                   	ret
  401b23:	0f 1f 44 00 00       	nopl   0x0(%rax,%rax,1)
  401b28:	b8 ff ff ff ff       	mov    $0xffffffff,%eax
  401b2d:	c3                   	ret
  401b2e:	66 90                	xchg   %ax,%ax

0000000000401b30 <strcmp>:
  401b30:	55                   	push   %rbp
  401b31:	48 89 e5             	mov    %rsp,%rbp
  401b34:	41 55                	push   %r13
  401b36:	41 54                	push   %r12
  401b38:	49 89 f4             	mov    %rsi,%r12
  401b3b:	53                   	push   %rbx
  401b3c:	48 89 fb             	mov    %rdi,%rbx
  401b3f:	48 83 ec 08          	sub    $0x8,%rsp
  401b43:	e8 78 05 00 00       	call   4020c0 <strlen>
  401b48:	4c 89 e7             	mov    %r12,%rdi
  401b4b:	49 89 c5             	mov    %rax,%r13
  401b4e:	e8 6d 05 00 00       	call   4020c0 <strlen>
  401b53:	49 39 c5             	cmp    %rax,%r13
  401b56:	48 89 c6             	mov    %rax,%rsi
  401b59:	48 89 c7             	mov    %rax,%rdi
  401b5c:	49 0f 46 f5          	cmovbe %r13,%rsi
  401b60:	48 85 f6             	test   %rsi,%rsi
  401b63:	74 3b                	je     401ba0 <strcmp+0x70>
  401b65:	31 c0                	xor    %eax,%eax
  401b67:	eb 14                	jmp    401b7d <strcmp+0x4d>
  401b69:	0f 1f 80 00 00 00 00 	nopl   0x0(%rax)
  401b70:	38 d1                	cmp    %dl,%cl
  401b72:	72 4c                	jb     401bc0 <strcmp+0x90>
  401b74:	48 83 c0 01          	add    $0x1,%rax
  401b78:	48 39 c6             	cmp    %rax,%rsi
  401b7b:	74 23                	je     401ba0 <strcmp+0x70>
  401b7d:	0f b6 0c 03          	movzbl (%rbx,%rax,1),%ecx
  401b81:	41 0f b6 14 04       	movzbl (%r12,%rax,1),%edx
  401b86:	38 ca                	cmp    %cl,%dl
  401b88:	73 e6                	jae    401b70 <strcmp+0x40>
  401b8a:	b8 01 00 00 00       	mov    $0x1,%eax
  401b8f:	48 83 c4 08          	add    $0x8,%rsp
  401b93:	5b                   	pop    %rbx
  401b94:	41 5c                	pop    %r12
  401b96:	41 5d                	pop    %r13
  401b98:	5d                   	pop    %rbp
  401b99:	c3                   	ret
  401b9a:	66 0f 1f 44 00 00    	nopw   0x0(%rax,%rax,1)
  401ba0:	b8 01 00 00 00       	mov    $0x1,%eax
  401ba5:	4c 39 ef             	cmp    %r13,%rdi
  401ba8:	72 e5                	jb     401b8f <strcmp+0x5f>
  401baa:	49 39 fd             	cmp    %rdi,%r13
  401bad:	19 c0                	sbb    %eax,%eax
  401baf:	48 83 c4 08          	add    $0x8,%rsp
  401bb3:	5b                   	pop    %rbx
  401bb4:	41 5c                	pop    %r12
  401bb6:	41 5d                	pop    %r13
  401bb8:	5d                   	pop    %rbp
  401bb9:	c3                   	ret
  401bba:	66 0f 1f 44 00 00    	nopw   0x0(%rax,%rax,1)
  401bc0:	48 83 c4 08          	add    $0x8,%rsp
  401bc4:	b8 ff ff ff ff       	mov    $0xffffffff,%eax
  401bc9:	5b                   	pop    %rbx
  401bca:	41 5c                	pop    %r12
  401bcc:	41 5d                	pop    %r13
  401bce:	5d                   	pop    %rbp
  401bcf:	c3                   	ret

0000000000401bd0 <strncmp>:
  401bd0:	49 89 f0             	mov    %rsi,%r8
  401bd3:	48 89 d6             	mov    %rdx,%rsi
  401bd6:	48 85 d2             	test   %rdx,%rdx
  401bd9:	74 25                	je     401c00 <strncmp+0x30>
  401bdb:	31 c0                	xor    %eax,%eax
  401bdd:	eb 0e                	jmp    401bed <strncmp+0x1d>
  401bdf:	90                   	nop
  401be0:	38 d1                	cmp    %dl,%cl
  401be2:	72 24                	jb     401c08 <strncmp+0x38>
  401be4:	48 83 c0 01          	add    $0x1,%rax
  401be8:	48 39 c6             	cmp    %rax,%rsi
  401beb:	74 13                	je     401c00 <strncmp+0x30>
  401bed:	0f b6 0c 07          	movzbl (%rdi,%rax,1),%ecx
  401bf1:	41 0f b6 14 00       	movzbl (%r8,%rax,1),%edx
  401bf6:	38 ca                	cmp    %cl,%dl
  401bf8:	73 e6                	jae    401be0 <strncmp+0x10>
  401bfa:	b8 01 00 00 00       	mov    $0x1,%eax
  401bff:	c3                   	ret
  401c00:	31 c0                	xor    %eax,%eax
  401c02:	c3                   	ret
  401c03:	0f 1f 44 00 00       	nopl   0x0(%rax,%rax,1)
  401c08:	b8 ff ff ff ff       	mov    $0xffffffff,%eax
  401c0d:	c3                   	ret
  401c0e:	66 90                	xchg   %ax,%ax

0000000000401c10 <memchr>:
  401c10:	48 85 d2             	test   %rdx,%rdx
  401c13:	74 1b                	je     401c30 <memchr+0x20>
  401c15:	48 01 fa             	add    %rdi,%rdx
  401c18:	48 89 f8             	mov    %rdi,%rax
  401c1b:	eb 0c                	jmp    401c29 <memchr+0x19>
  401c1d:	0f 1f 00             	nopl   (%rax)
  401c20:	48 83 c0 01          	add    $0x1,%rax
  401c24:	48 39 d0             	cmp    %rdx,%rax
  401c27:	74 07                	je     401c30 <memchr+0x20>
  401c29:	40 38 30             	cmp    %sil,(%rax)
  401c2c:	75 f2                	jne    401c20 <memchr+0x10>
  401c2e:	c3                   	ret
  401c2f:	90                   	nop
  401c30:	31 c0                	xor    %eax,%eax
  401c32:	c3                   	ret
  401c33:	66 90                	xchg   %ax,%ax
  401c35:	66 66 2e 0f 1f 84 00 	data16 cs nopw 0x0(%rax,%rax,1)
  401c3c:	00 00 00 00 

0000000000401c40 <strchr>:
  401c40:	55                   	push   %rbp
  401c41:	48 89 e5             	mov    %rsp,%rbp
  401c44:	41 54                	push   %r12
  401c46:	41 89 f4             	mov    %esi,%r12d
  401c49:	53                   	push   %rbx
  401c4a:	48 89 fb             	mov    %rdi,%rbx
  401c4d:	e8 6e 04 00 00       	call   4020c0 <strlen>
  401c52:	48 8d 44 03 01       	lea    0x1(%rbx,%rax,1),%rax
  401c57:	66 0f 1f 84 00 00 00 	nopw   0x0(%rax,%rax,1)
  401c5e:	00 00 
  401c60:	44 3a 23             	cmp    (%rbx),%r12b
  401c63:	74 13                	je     401c78 <strchr+0x38>
  401c65:	48 83 c3 01          	add    $0x1,%rbx
  401c69:	48 39 c3             	cmp    %rax,%rbx
  401c6c:	75 f2                	jne    401c60 <strchr+0x20>
  401c6e:	5b                   	pop    %rbx
  401c6f:	31 c0                	xor    %eax,%eax
  401c71:	41 5c                	pop    %r12
  401c73:	5d                   	pop    %rbp
  401c74:	c3                   	ret
  401c75:	0f 1f 00             	nopl   (%rax)
  401c78:	48 89 d8             	mov    %rbx,%rax
  401c7b:	5b                   	pop    %rbx
  401c7c:	41 5c                	pop    %r12
  401c7e:	5d                   	pop    %rbp
  401c7f:	c3                   	ret

0000000000401c80 <strcspn>:
  401c80:	55                   	push   %rbp
  401c81:	48 89 e5             	mov    %rsp,%rbp
  401c84:	53                   	push   %rbx
  401c85:	48 89 fb             	mov    %rdi,%rbx
  401c88:	48 83 ec 08          	sub    $0x8,%rsp
  401c8c:	e8 1f 00 00 00       	call   401cb0 <strpbrk>
  401c91:	48 85 c0             	test   %rax,%rax
  401c94:	74 0a                	je     401ca0 <strcspn+0x20>
  401c96:	48 29 d8             	sub    %rbx,%rax
  401c99:	48 8b 5d f8          	mov    -0x8(%rbp),%rbx
  401c9d:	c9                   	leave
  401c9e:	c3                   	ret
  401c9f:	90                   	nop
  401ca0:	48 89 df             	mov    %rbx,%rdi
  401ca3:	48 8b 5d f8          	mov    -0x8(%rbp),%rbx
  401ca7:	c9                   	leave
  401ca8:	e9 13 04 00 00       	jmp    4020c0 <strlen>
  401cad:	0f 1f 00             	nopl   (%rax)

0000000000401cb0 <strpbrk>:
  401cb0:	55                   	push   %rbp
  401cb1:	48 89 e5             	mov    %rsp,%rbp
  401cb4:	41 55                	push   %r13
  401cb6:	41 54                	push   %r12
  401cb8:	53                   	push   %rbx
  401cb9:	48 83 ec 08          	sub    $0x8,%rsp
  401cbd:	0f b6 1f             	movzbl (%rdi),%ebx
  401cc0:	84 db                	test   %bl,%bl
  401cc2:	74 5a                	je     401d1e <strpbrk+0x6e>
  401cc4:	49 89 fc             	mov    %rdi,%r12
  401cc7:	48 89 f7             	mov    %rsi,%rdi
  401cca:	49 89 f5             	mov    %rsi,%r13
  401ccd:	e8 ee 03 00 00       	call   4020c0 <strlen>
  401cd2:	85 c0                	test   %eax,%eax
  401cd4:	7e 48                	jle    401d1e <strpbrk+0x6e>
  401cd6:	83 e8 01             	sub    $0x1,%eax
  401cd9:	49 8d 54 05 01       	lea    0x1(%r13,%rax,1),%rdx
  401cde:	4c 89 e8             	mov    %r13,%rax
  401ce1:	eb 16                	jmp    401cf9 <strpbrk+0x49>
  401ce3:	66 90                	xchg   %ax,%ax
  401ce5:	66 66 2e 0f 1f 84 00 	data16 cs nopw 0x0(%rax,%rax,1)
  401cec:	00 00 00 00 
  401cf0:	48 83 c0 01          	add    $0x1,%rax
  401cf4:	48 39 d0             	cmp    %rdx,%rax
  401cf7:	74 17                	je     401d10 <strpbrk+0x60>
  401cf9:	38 18                	cmp    %bl,(%rax)
  401cfb:	75 f3                	jne    401cf0 <strpbrk+0x40>
  401cfd:	48 83 c4 08          	add    $0x8,%rsp
  401d01:	4c 89 e0             	mov    %r12,%rax
  401d04:	5b                   	pop    %rbx
  401d05:	41 5c                	pop    %r12
  401d07:	41 5d                	pop    %r13
  401d09:	5d                   	pop    %rbp
  401d0a:	c3                   	ret
  401d0b:	0f 1f 44 00 00       	nopl   0x0(%rax,%rax,1)
  401d10:	41 0f b6 5c 24 01    	movzbl 0x1(%r12),%ebx
  401d16:	49 83 c4 01          	add    $0x1,%r12
  401d1a:	84 db                	test   %bl,%bl
  401d1c:	75 c0                	jne    401cde <strpbrk+0x2e>
  401d1e:	45 31 e4             	xor    %r12d,%r12d
  401d21:	eb da                	jmp    401cfd <strpbrk+0x4d>
  401d23:	66 90                	xchg   %ax,%ax
  401d25:	66 66 2e 0f 1f 84 00 	data16 cs nopw 0x0(%rax,%rax,1)
  401d2c:	00 00 00 00 

0000000000401d30 <strrchr>:
  401d30:	55                   	push   %rbp
  401d31:	48 89 e5             	mov    %rsp,%rbp
  401d34:	41 54                	push   %r12
  401d36:	49 89 fc             	mov    %rdi,%r12
  401d39:	53                   	push   %rbx
  401d3a:	89 f3                	mov    %esi,%ebx
  401d3c:	e8 7f 03 00 00       	call   4020c0 <strlen>
  401d41:	85 c0                	test   %eax,%eax
  401d43:	78 33                	js     401d78 <strrchr+0x48>
  401d45:	48 63 c8             	movslq %eax,%rcx
  401d48:	89 c2                	mov    %eax,%edx
  401d4a:	49 8d 04 0c          	lea    (%r12,%rcx,1),%rax
  401d4e:	49 8d 4c 0c ff       	lea    -0x1(%r12,%rcx,1),%rcx
  401d53:	48 29 d1             	sub    %rdx,%rcx
  401d56:	eb 11                	jmp    401d69 <strrchr+0x39>
  401d58:	0f 1f 84 00 00 00 00 	nopl   0x0(%rax,%rax,1)
  401d5f:	00 
  401d60:	48 83 e8 01          	sub    $0x1,%rax
  401d64:	48 39 c8             	cmp    %rcx,%rax
  401d67:	74 0f                	je     401d78 <strrchr+0x48>
  401d69:	0f be 10             	movsbl (%rax),%edx
  401d6c:	39 da                	cmp    %ebx,%edx
  401d6e:	75 f0                	jne    401d60 <strrchr+0x30>
  401d70:	5b                   	pop    %rbx
  401d71:	41 5c                	pop    %r12
  401d73:	5d                   	pop    %rbp
  401d74:	c3                   	ret
  401d75:	0f 1f 00             	nopl   (%rax)
  401d78:	5b                   	pop    %rbx
  401d79:	31 c0                	xor    %eax,%eax
  401d7b:	41 5c                	pop    %r12
  401d7d:	5d                   	pop    %rbp
  401d7e:	c3                   	ret
  401d7f:	90                   	nop

0000000000401d80 <strspn>:
  401d80:	55                   	push   %rbp
  401d81:	48 89 e5             	mov    %rsp,%rbp
  401d84:	41 54                	push   %r12
  401d86:	49 89 f4             	mov    %rsi,%r12
  401d89:	53                   	push   %rbx
  401d8a:	48 89 fb             	mov    %rdi,%rbx
  401d8d:	48 89 f7             	mov    %rsi,%rdi
  401d90:	e8 2b 03 00 00       	call   4020c0 <strlen>
  401d95:	31 d2                	xor    %edx,%edx
  401d97:	31 f6                	xor    %esi,%esi
  401d99:	49 8d 0c 04          	lea    (%r12,%rax,1),%rcx
  401d9d:	0f 1f 00             	nopl   (%rax)
  401da0:	4c 89 e0             	mov    %r12,%rax
  401da3:	eb 29                	jmp    401dce <strspn+0x4e>
  401da5:	0f 1f 44 00 00       	nopl   0x0(%rax,%rax,1)
  401daa:	66 66 2e 0f 1f 84 00 	data16 cs nopw 0x0(%rax,%rax,1)
  401db1:	00 00 00 00 
  401db5:	66 66 2e 0f 1f 84 00 	data16 cs nopw 0x0(%rax,%rax,1)
  401dbc:	00 00 00 00 
  401dc0:	48 83 c0 01          	add    $0x1,%rax
  401dc4:	0f b6 78 ff          	movzbl -0x1(%rax),%edi
  401dc8:	40 38 3c 13          	cmp    %dil,(%rbx,%rdx,1)
  401dcc:	74 12                	je     401de0 <strspn+0x60>
  401dce:	48 39 c8             	cmp    %rcx,%rax
  401dd1:	75 ed                	jne    401dc0 <strspn+0x40>
  401dd3:	85 f6                	test   %esi,%esi
  401dd5:	74 19                	je     401df0 <strspn+0x70>
  401dd7:	be 01 00 00 00       	mov    $0x1,%esi
  401ddc:	eb c2                	jmp    401da0 <strspn+0x20>
  401dde:	66 90                	xchg   %ax,%ax
  401de0:	48 83 c2 01          	add    $0x1,%rdx
  401de4:	eb f1                	jmp    401dd7 <strspn+0x57>
  401de6:	66 2e 0f 1f 84 00 00 	cs nopw 0x0(%rax,%rax,1)
  401ded:	00 00 00 
  401df0:	5b                   	pop    %rbx
  401df1:	48 89 d0             	mov    %rdx,%rax
  401df4:	41 5c                	pop    %r12
  401df6:	5d                   	pop    %rbp
  401df7:	c3                   	ret
  401df8:	0f 1f 84 00 00 00 00 	nopl   0x0(%rax,%rax,1)
  401dff:	00 

0000000000401e00 <strstr>:
  401e00:	55                   	push   %rbp
  401e01:	48 89 e5             	mov    %rsp,%rbp
  401e04:	41 55                	push   %r13
  401e06:	41 54                	push   %r12
  401e08:	53                   	push   %rbx
  401e09:	48 83 ec 08          	sub    $0x8,%rsp
  401e0d:	44 0f b6 27          	movzbl (%rdi),%r12d
  401e11:	45 84 e4             	test   %r12b,%r12b
  401e14:	74 5a                	je     401e70 <strstr+0x70>
  401e16:	48 89 fb             	mov    %rdi,%rbx
  401e19:	48 89 f7             	mov    %rsi,%rdi
  401e1c:	49 89 f5             	mov    %rsi,%r13
  401e1f:	e8 9c 02 00 00       	call   4020c0 <strlen>
  401e24:	48 85 c0             	test   %rax,%rax
  401e27:	74 47                	je     401e70 <strstr+0x70>
  401e29:	49 8d 4c 05 00       	lea    0x0(%r13,%rax,1),%rcx
  401e2e:	eb 0e                	jmp    401e3e <strstr+0x3e>
  401e30:	44 0f b6 63 01       	movzbl 0x1(%rbx),%r12d
  401e35:	48 83 c3 01          	add    $0x1,%rbx
  401e39:	45 84 e4             	test   %r12b,%r12b
  401e3c:	74 32                	je     401e70 <strstr+0x70>
  401e3e:	4c 89 e8             	mov    %r13,%rax
  401e41:	0f b6 10             	movzbl (%rax),%edx
  401e44:	84 d2                	test   %dl,%dl
  401e46:	74 15                	je     401e5d <strstr+0x5d>
  401e48:	44 38 e2             	cmp    %r12b,%dl
  401e4b:	75 e3                	jne    401e30 <strstr+0x30>
  401e4d:	48 83 c0 01          	add    $0x1,%rax
  401e51:	48 39 c1             	cmp    %rax,%rcx
  401e54:	74 da                	je     401e30 <strstr+0x30>
  401e56:	0f b6 10             	movzbl (%rax),%edx
  401e59:	84 d2                	test   %dl,%dl
  401e5b:	75 eb                	jne    401e48 <strstr+0x48>
  401e5d:	48 83 c4 08          	add    $0x8,%rsp
  401e61:	48 89 d8             	mov    %rbx,%rax
  401e64:	5b                   	pop    %rbx
  401e65:	41 5c                	pop    %r12
  401e67:	41 5d                	pop    %r13
  401e69:	5d                   	pop    %rbp
  401e6a:	c3                   	ret
  401e6b:	0f 1f 44 00 00       	nopl   0x0(%rax,%rax,1)
  401e70:	48 83 c4 08          	add    $0x8,%rsp
  401e74:	31 c0                	xor    %eax,%eax
  401e76:	5b                   	pop    %rbx
  401e77:	41 5c                	pop    %r12
  401e79:	41 5d                	pop    %r13
  401e7b:	5d                   	pop    %rbp
  401e7c:	c3                   	ret
  401e7d:	0f 1f 00             	nopl   (%rax)

0000000000401e80 <strtok_r>:
  401e80:	55                   	push   %rbp
  401e81:	48 89 e5             	mov    %rsp,%rbp
  401e84:	41 57                	push   %r15
  401e86:	49 89 ff             	mov    %rdi,%r15
  401e89:	41 56                	push   %r14
  401e8b:	41 55                	push   %r13
  401e8d:	41 54                	push   %r12
  401e8f:	53                   	push   %rbx
  401e90:	48 83 ec 08          	sub    $0x8,%rsp
  401e94:	48 85 ff             	test   %rdi,%rdi
  401e97:	0f 84 b3 00 00 00    	je     401f50 <strtok_r+0xd0>
  401e9d:	48 89 f7             	mov    %rsi,%rdi
  401ea0:	49 89 f4             	mov    %rsi,%r12
  401ea3:	49 89 d5             	mov    %rdx,%r13
  401ea6:	4c 89 fb             	mov    %r15,%rbx
  401ea9:	e8 12 02 00 00       	call   4020c0 <strlen>
  401eae:	31 c9                	xor    %ecx,%ecx
  401eb0:	31 f6                	xor    %esi,%esi
  401eb2:	49 8d 14 04          	lea    (%r12,%rax,1),%rdx
  401eb6:	66 2e 0f 1f 84 00 00 	cs nopw 0x0(%rax,%rax,1)
  401ebd:	00 00 00 
  401ec0:	49 89 de             	mov    %rbx,%r14
  401ec3:	4c 89 e0             	mov    %r12,%rax
  401ec6:	eb 25                	jmp    401eed <strtok_r+0x6d>
  401ec8:	66 90                	xchg   %ax,%ax
  401eca:	66 66 2e 0f 1f 84 00 	data16 cs nopw 0x0(%rax,%rax,1)
  401ed1:	00 00 00 00 
  401ed5:	66 66 2e 0f 1f 84 00 	data16 cs nopw 0x0(%rax,%rax,1)
  401edc:	00 00 00 00 
  401ee0:	48 83 c0 01          	add    $0x1,%rax
  401ee4:	0f b6 78 ff          	movzbl -0x1(%rax),%edi
  401ee8:	40 38 3b             	cmp    %dil,(%rbx)
  401eeb:	74 13                	je     401f00 <strtok_r+0x80>
  401eed:	48 39 c2             	cmp    %rax,%rdx
  401ef0:	75 ee                	jne    401ee0 <strtok_r+0x60>
  401ef2:	85 f6                	test   %esi,%esi
  401ef4:	74 1a                	je     401f10 <strtok_r+0x90>
  401ef6:	be 01 00 00 00       	mov    $0x1,%esi
  401efb:	eb c3                	jmp    401ec0 <strtok_r+0x40>
  401efd:	0f 1f 00             	nopl   (%rax)
  401f00:	48 83 c1 01          	add    $0x1,%rcx
  401f04:	49 8d 1c 0f          	lea    (%r15,%rcx,1),%rbx
  401f08:	eb ec                	jmp    401ef6 <strtok_r+0x76>
  401f0a:	66 0f 1f 44 00 00    	nopw   0x0(%rax,%rax,1)
  401f10:	80 3b 00             	cmpb   $0x0,(%rbx)
  401f13:	74 47                	je     401f5c <strtok_r+0xdc>
  401f15:	4c 89 e6             	mov    %r12,%rsi
  401f18:	48 89 df             	mov    %rbx,%rdi
  401f1b:	e8 90 fd ff ff       	call   401cb0 <strpbrk>
  401f20:	48 89 c1             	mov    %rax,%rcx
  401f23:	48 29 d9             	sub    %rbx,%rcx
  401f26:	48 85 c0             	test   %rax,%rax
  401f29:	74 36                	je     401f61 <strtok_r+0xe1>
  401f2b:	31 d2                	xor    %edx,%edx
  401f2d:	80 38 00             	cmpb   $0x0,(%rax)
  401f30:	74 08                	je     401f3a <strtok_r+0xba>
  401f32:	c6 00 00             	movb   $0x0,(%rax)
  401f35:	48 8d 54 0b 01       	lea    0x1(%rbx,%rcx,1),%rdx
  401f3a:	49 89 55 00          	mov    %rdx,0x0(%r13)
  401f3e:	48 83 c4 08          	add    $0x8,%rsp
  401f42:	4c 89 f0             	mov    %r14,%rax
  401f45:	5b                   	pop    %rbx
  401f46:	41 5c                	pop    %r12
  401f48:	41 5d                	pop    %r13
  401f4a:	41 5e                	pop    %r14
  401f4c:	41 5f                	pop    %r15
  401f4e:	5d                   	pop    %rbp
  401f4f:	c3                   	ret
  401f50:	4c 8b 3a             	mov    (%rdx),%r15
  401f53:	4d 85 ff             	test   %r15,%r15
  401f56:	0f 85 41 ff ff ff    	jne    401e9d <strtok_r+0x1d>
  401f5c:	45 31 f6             	xor    %r14d,%r14d
  401f5f:	eb dd                	jmp    401f3e <strtok_r+0xbe>
  401f61:	48 89 df             	mov    %rbx,%rdi
  401f64:	e8 57 01 00 00       	call   4020c0 <strlen>
  401f69:	48 89 c1             	mov    %rax,%rcx
  401f6c:	48 8d 04 03          	lea    (%rbx,%rax,1),%rax
  401f70:	eb b9                	jmp    401f2b <strtok_r+0xab>
  401f72:	0f 1f 00             	nopl   (%rax)
  401f75:	66 66 2e 0f 1f 84 00 	data16 cs nopw 0x0(%rax,%rax,1)
  401f7c:	00 00 00 00 

0000000000401f80 <strerror>:
  401f80:	48 63 ff             	movslq %edi,%rdi
  401f83:	48 8b 04 fd 80 40 40 	mov    0x404080(,%rdi,8),%rax
  401f8a:	00 
  401f8b:	c3                   	ret
  401f8c:	0f 1f 40 00          	nopl   0x0(%rax)

0000000000401f90 <strtok>:
  401f90:	55                   	push   %rbp
  401f91:	48 89 e5             	mov    %rsp,%rbp
  401f94:	41 56                	push   %r14
  401f96:	49 89 fe             	mov    %rdi,%r14
  401f99:	41 55                	push   %r13
  401f9b:	41 54                	push   %r12
  401f9d:	53                   	push   %rbx
  401f9e:	48 85 ff             	test   %rdi,%rdi
  401fa1:	0f 84 a6 00 00 00    	je     40204d <strtok+0xbd>
  401fa7:	48 89 f7             	mov    %rsi,%rdi
  401faa:	49 89 f4             	mov    %rsi,%r12
  401fad:	4c 89 f3             	mov    %r14,%rbx
  401fb0:	e8 0b 01 00 00       	call   4020c0 <strlen>
  401fb5:	31 c9                	xor    %ecx,%ecx
  401fb7:	31 f6                	xor    %esi,%esi
  401fb9:	49 8d 14 04          	lea    (%r12,%rax,1),%rdx
  401fbd:	0f 1f 00             	nopl   (%rax)
  401fc0:	49 89 dd             	mov    %rbx,%r13
  401fc3:	4c 89 e0             	mov    %r12,%rax
  401fc6:	eb 25                	jmp    401fed <strtok+0x5d>
  401fc8:	66 90                	xchg   %ax,%ax
  401fca:	66 66 2e 0f 1f 84 00 	data16 cs nopw 0x0(%rax,%rax,1)
  401fd1:	00 00 00 00 
  401fd5:	66 66 2e 0f 1f 84 00 	data16 cs nopw 0x0(%rax,%rax,1)
  401fdc:	00 00 00 00 
  401fe0:	48 83 c0 01          	add    $0x1,%rax
  401fe4:	0f b6 78 ff          	movzbl -0x1(%rax),%edi
  401fe8:	40 38 3b             	cmp    %dil,(%rbx)
  401feb:	74 13                	je     402000 <strtok+0x70>
  401fed:	48 39 c2             	cmp    %rax,%rdx
  401ff0:	75 ee                	jne    401fe0 <strtok+0x50>
  401ff2:	85 f6                	test   %esi,%esi
  401ff4:	74 1a                	je     402010 <strtok+0x80>
  401ff6:	be 01 00 00 00       	mov    $0x1,%esi
  401ffb:	eb c3                	jmp    401fc0 <strtok+0x30>
  401ffd:	0f 1f 00             	nopl   (%rax)
  402000:	48 83 c1 01          	add    $0x1,%rcx
  402004:	49 8d 1c 0e          	lea    (%r14,%rcx,1),%rbx
  402008:	eb ec                	jmp    401ff6 <strtok+0x66>
  40200a:	66 0f 1f 44 00 00    	nopw   0x0(%rax,%rax,1)
  402010:	80 3b 00             	cmpb   $0x0,(%rbx)
  402013:	74 48                	je     40205d <strtok+0xcd>
  402015:	4c 89 e6             	mov    %r12,%rsi
  402018:	48 89 df             	mov    %rbx,%rdi
  40201b:	e8 90 fc ff ff       	call   401cb0 <strpbrk>
  402020:	48 89 c1             	mov    %rax,%rcx
  402023:	48 29 d9             	sub    %rbx,%rcx
  402026:	48 85 c0             	test   %rax,%rax
  402029:	74 41                	je     40206c <strtok+0xdc>
  40202b:	31 d2                	xor    %edx,%edx
  40202d:	80 38 00             	cmpb   $0x0,(%rax)
  402030:	74 08                	je     40203a <strtok+0xaa>
  402032:	c6 00 00             	movb   $0x0,(%rax)
  402035:	48 8d 54 0b 01       	lea    0x1(%rbx,%rcx,1),%rdx
  40203a:	5b                   	pop    %rbx
  40203b:	4c 89 e8             	mov    %r13,%rax
  40203e:	41 5c                	pop    %r12
  402040:	48 89 15 a9 28 00 00 	mov    %rdx,0x28a9(%rip)        # 4048f0 <prevS1.0>
  402047:	41 5d                	pop    %r13
  402049:	41 5e                	pop    %r14
  40204b:	5d                   	pop    %rbp
  40204c:	c3                   	ret
  40204d:	4c 8b 35 9c 28 00 00 	mov    0x289c(%rip),%r14        # 4048f0 <prevS1.0>
  402054:	4d 85 f6             	test   %r14,%r14
  402057:	0f 85 4a ff ff ff    	jne    401fa7 <strtok+0x17>
  40205d:	45 31 ed             	xor    %r13d,%r13d
  402060:	5b                   	pop    %rbx
  402061:	41 5c                	pop    %r12
  402063:	4c 89 e8             	mov    %r13,%rax
  402066:	41 5d                	pop    %r13
  402068:	41 5e                	pop    %r14
  40206a:	5d                   	pop    %rbp
  40206b:	c3                   	ret
  40206c:	48 89 df             	mov    %rbx,%rdi
  40206f:	e8 4c 00 00 00       	call   4020c0 <strlen>
  402074:	48 89 c1             	mov    %rax,%rcx
  402077:	48 8d 04 03          	lea    (%rbx,%rax,1),%rax
  40207b:	eb ae                	jmp    40202b <strtok+0x9b>
  40207d:	0f 1f 00             	nopl   (%rax)

0000000000402080 <memset>:
  402080:	40 0f b6 ce          	movzbl %sil,%ecx
  402084:	c1 e6 08             	shl    $0x8,%esi
  402087:	49 89 f8             	mov    %rdi,%r8
  40208a:	31 c0                	xor    %eax,%eax
  40208c:	0f b7 f6             	movzwl %si,%esi
  40208f:	09 ce                	or     %ecx,%esi
  402091:	89 f7                	mov    %esi,%edi
  402093:	c1 e7 10             	shl    $0x10,%edi
  402096:	01 fe                	add    %edi,%esi
  402098:	85 c9                	test   %ecx,%ecx
  40209a:	48 89 d1             	mov    %rdx,%rcx
  40209d:	4c 89 c7             	mov    %r8,%rdi
  4020a0:	0f 45 c6             	cmovne %esi,%eax
  4020a3:	48 c1 e9 02          	shr    $0x2,%rcx
  4020a7:	83 e2 03             	and    $0x3,%edx
  4020aa:	f3 ab                	rep stos %eax,(%rdi)
  4020ac:	48 89 d1             	mov    %rdx,%rcx
  4020af:	f3 aa                	rep stos %al,(%rdi)
  4020b1:	4c 89 c0             	mov    %r8,%rax
  4020b4:	c3                   	ret
  4020b5:	66 66 2e 0f 1f 84 00 	data16 cs nopw 0x0(%rax,%rax,1)
  4020bc:	00 00 00 00 

00000000004020c0 <strlen>:
  4020c0:	80 3f 00             	cmpb   $0x0,(%rdi)
  4020c3:	74 1b                	je     4020e0 <strlen+0x20>
  4020c5:	55                   	push   %rbp
  4020c6:	48 83 c7 01          	add    $0x1,%rdi
  4020ca:	48 89 e5             	mov    %rsp,%rbp
  4020cd:	e8 ee ff ff ff       	call   4020c0 <strlen>
  4020d2:	5d                   	pop    %rbp
  4020d3:	48 83 c0 01          	add    $0x1,%rax
  4020d7:	c3                   	ret
  4020d8:	0f 1f 84 00 00 00 00 	nopl   0x0(%rax,%rax,1)
  4020df:	00 
  4020e0:	31 c0                	xor    %eax,%eax
  4020e2:	c3                   	ret
  4020e3:	66 2e 0f 1f 84 00 00 	cs nopw 0x0(%rax,%rax,1)
  4020ea:	00 00 00 
  4020ed:	0f 1f 00             	nopl   (%rax)

00000000004020f0 <__errno>:
  4020f0:	b8 08 49 40 00       	mov    $0x404908,%eax
  4020f5:	c3                   	ret
  4020f6:	66 2e 0f 1f 84 00 00 	cs nopw 0x0(%rax,%rax,1)
  4020fd:	00 00 00 

0000000000402100 <opendir>:
  402100:	48 89 f2             	mov    %rsi,%rdx
  402103:	48 89 fe             	mov    %rdi,%rsi
  402106:	bf 0e 00 00 00       	mov    $0xe,%edi
  40210b:	cd f0                	int    $0xf0
  40210d:	c3                   	ret
  40210e:	66 90                	xchg   %ax,%ax

0000000000402110 <spawn>:
  402110:	49 89 c8             	mov    %rcx,%r8
  402113:	48 89 d1             	mov    %rdx,%rcx
  402116:	48 89 f2             	mov    %rsi,%rdx
  402119:	48 89 fe             	mov    %rdi,%rsi
  40211c:	bf 09 00 00 00       	mov    $0x9,%edi
  402121:	cd f0                	int    $0xf0
  402123:	c3                   	ret
  402124:	90                   	nop
  402125:	66 66 2e 0f 1f 84 00 	data16 cs nopw 0x0(%rax,%rax,1)
  40212c:	00 00 00 00 

0000000000402130 <exit>:
  402130:	48 63 f7             	movslq %edi,%rsi
  402133:	31 ff                	xor    %edi,%edi
  402135:	cd f0                	int    $0xf0
  402137:	eb fe                	jmp    402137 <exit+0x7>
  402139:	0f 1f 80 00 00 00 00 	nopl   0x0(%rax)

0000000000402140 <gmsg>:
  402140:	48 89 fe             	mov    %rdi,%rsi
  402143:	bf 15 00 00 00       	mov    $0x15,%edi
  402148:	cd f0                	int    $0xf0
  40214a:	c3                   	ret
  40214b:	0f 1f 44 00 00       	nopl   0x0(%rax,%rax,1)

0000000000402150 <close>:
  402150:	85 ff                	test   %edi,%edi
  402152:	74 2c                	je     402180 <close+0x30>
  402154:	48 8b 05 25 27 00 00 	mov    0x2725(%rip),%rax        # 404880 <lowest_fd>
  40215b:	48 63 ff             	movslq %edi,%rdi
  40215e:	48 39 c7             	cmp    %rax,%rdi
  402161:	73 0a                	jae    40216d <close+0x1d>
  402163:	48 89 3d 16 27 00 00 	mov    %rdi,0x2716(%rip)        # 404880 <lowest_fd>
  40216a:	48 89 f8             	mov    %rdi,%rax
  40216d:	48 8b 34 c5 20 49 40 	mov    0x404920(,%rax,8),%rsi
  402174:	00 
  402175:	bf 0d 00 00 00       	mov    $0xd,%edi
  40217a:	cd f0                	int    $0xf0
  40217c:	31 c0                	xor    %eax,%eax
  40217e:	c3                   	ret
  40217f:	90                   	nop
  402180:	b8 ea ff ff ff       	mov    $0xffffffea,%eax
  402185:	c3                   	ret
  402186:	66 2e 0f 1f 84 00 00 	cs nopw 0x0(%rax,%rax,1)
  40218d:	00 00 00 

0000000000402190 <execve>:
  402190:	48 89 d1             	mov    %rdx,%rcx
  402193:	45 31 c0             	xor    %r8d,%r8d
  402196:	48 89 f2             	mov    %rsi,%rdx
  402199:	48 89 fe             	mov    %rdi,%rsi
  40219c:	bf 09 00 00 00       	mov    $0x9,%edi
  4021a1:	cd f0                	int    $0xf0
  4021a3:	48 85 c0             	test   %rax,%rax
  4021a6:	74 08                	je     4021b0 <execve+0x20>
  4021a8:	31 ff                	xor    %edi,%edi
  4021aa:	31 f6                	xor    %esi,%esi
  4021ac:	cd f0                	int    $0xf0
  4021ae:	c3                   	ret
  4021af:	90                   	nop
  4021b0:	8b 05 52 27 00 00    	mov    0x2752(%rip),%eax        # 404908 <_sys_errno>
  4021b6:	f7 d8                	neg    %eax
  4021b8:	c3                   	ret
  4021b9:	0f 1f 80 00 00 00 00 	nopl   0x0(%rax)

00000000004021c0 <fork>:
  4021c0:	b8 a7 ff ff ff       	mov    $0xffffffa7,%eax
  4021c5:	c3                   	ret
  4021c6:	66 2e 0f 1f 84 00 00 	cs nopw 0x0(%rax,%rax,1)
  4021cd:	00 00 00 

00000000004021d0 <write>:
  4021d0:	48 89 d1             	mov    %rdx,%rcx
  4021d3:	85 ff                	test   %edi,%edi
  4021d5:	74 19                	je     4021f0 <write+0x20>
  4021d7:	48 63 ff             	movslq %edi,%rdi
  4021da:	48 89 f2             	mov    %rsi,%rdx
  4021dd:	45 31 c0             	xor    %r8d,%r8d
  4021e0:	48 8b 34 fd 20 49 40 	mov    0x404920(,%rdi,8),%rsi
  4021e7:	00 
  4021e8:	bf 07 00 00 00       	mov    $0x7,%edi
  4021ed:	cd f0                	int    $0xf0
  4021ef:	c3                   	ret
  4021f0:	48 c7 c0 ea ff ff ff 	mov    $0xffffffffffffffea,%rax
  4021f7:	c3                   	ret
  4021f8:	0f 1f 84 00 00 00 00 	nopl   0x0(%rax,%rax,1)
  4021ff:	00 

0000000000402200 <getuid>:
  402200:	31 c0                	xor    %eax,%eax
  402202:	c3                   	ret
  402203:	66 90                	xchg   %ax,%ax
  402205:	66 66 2e 0f 1f 84 00 	data16 cs nopw 0x0(%rax,%rax,1)
  40220c:	00 00 00 00 

0000000000402210 <getpid>:
  402210:	bf 0b 00 00 00       	mov    $0xb,%edi
  402215:	cd f0                	int    $0xf0
  402217:	c3                   	ret
  402218:	0f 1f 84 00 00 00 00 	nopl   0x0(%rax,%rax,1)
  40221f:	00 

0000000000402220 <mmap>:
  402220:	4c 63 d1             	movslq %ecx,%r10
  402223:	4d 63 c0             	movslq %r8d,%r8
  402226:	48 63 ca             	movslq %edx,%rcx
  402229:	48 89 f2             	mov    %rsi,%rdx
  40222c:	48 89 fe             	mov    %rdi,%rsi
  40222f:	bf 0f 00 00 00       	mov    $0xf,%edi
  402234:	49 89 c8             	mov    %rcx,%r8
  402237:	4d 89 d1             	mov    %r10,%r9
  40223a:	41 50                	push   %r8
  40223c:	cd f0                	int    $0xf0
  40223e:	c3                   	ret
  40223f:	90                   	nop

0000000000402240 <kill>:
  402240:	31 c0                	xor    %eax,%eax
  402242:	c3                   	ret
  402243:	66 90                	xchg   %ax,%ax
  402245:	66 66 2e 0f 1f 84 00 	data16 cs nopw 0x0(%rax,%rax,1)
  40224c:	00 00 00 00 

0000000000402250 <open>:
  402250:	b8 ea ff ff ff       	mov    $0xffffffea,%eax
  402255:	c3                   	ret
  402256:	66 2e 0f 1f 84 00 00 	cs nopw 0x0(%rax,%rax,1)
  40225d:	00 00 00 

0000000000402260 <alarm>:
  402260:	31 c0                	xor    %eax,%eax
  402262:	c3                   	ret
  402263:	66 90                	xchg   %ax,%ax
  402265:	66 66 2e 0f 1f 84 00 	data16 cs nopw 0x0(%rax,%rax,1)
  40226c:	00 00 00 00 

0000000000402270 <umask>:
  402270:	31 c0                	xor    %eax,%eax
  402272:	c3                   	ret
  402273:	66 90                	xchg   %ax,%ax
  402275:	66 66 2e 0f 1f 84 00 	data16 cs nopw 0x0(%rax,%rax,1)
  40227c:	00 00 00 00 

0000000000402280 <read>:
  402280:	48 89 f0             	mov    %rsi,%rax
  402283:	48 63 ff             	movslq %edi,%rdi
  402286:	48 63 ca             	movslq %edx,%rcx
  402289:	45 31 c0             	xor    %r8d,%r8d
  40228c:	48 8b 34 fd 20 49 40 	mov    0x404920(,%rdi,8),%rsi
  402293:	00 
  402294:	48 89 c2             	mov    %rax,%rdx
  402297:	bf 06 00 00 00       	mov    $0x6,%edi
  40229c:	cd f0                	int    $0xf0
  40229e:	31 c0                	xor    %eax,%eax
  4022a0:	c3                   	ret
  4022a1:	66 2e 0f 1f 84 00 00 	cs nopw 0x0(%rax,%rax,1)
  4022a8:	00 00 00 
  4022ab:	0f 1f 44 00 00       	nopl   0x0(%rax,%rax,1)

00000000004022b0 <getcwd>:
  4022b0:	48 89 f2             	mov    %rsi,%rdx
  4022b3:	48 89 fe             	mov    %rdi,%rsi
  4022b6:	bf 10 00 00 00       	mov    $0x10,%edi
  4022bb:	cd f0                	int    $0xf0
  4022bd:	c3                   	ret
  4022be:	66 90                	xchg   %ax,%ax

00000000004022c0 <chdir>:
  4022c0:	48 89 fe             	mov    %rdi,%rsi
  4022c3:	bf 13 00 00 00       	mov    $0x13,%edi
  4022c8:	cd f0                	int    $0xf0
  4022ca:	c3                   	ret
  4022cb:	0f 1f 44 00 00       	nopl   0x0(%rax,%rax,1)

00000000004022d0 <__do_global_ctors_aux>:
  4022d0:	48 8b 05 69 1d 00 00 	mov    0x1d69(%rip),%rax        # 404040 <__CTOR_LIST__>
  4022d7:	48 83 f8 ff          	cmp    $0xffffffffffffffff,%rax
  4022db:	74 33                	je     402310 <__do_global_ctors_aux+0x40>
  4022dd:	55                   	push   %rbp
  4022de:	48 89 e5             	mov    %rsp,%rbp
  4022e1:	53                   	push   %rbx
  4022e2:	bb 40 40 40 00       	mov    $0x404040,%ebx
  4022e7:	48 83 ec 08          	sub    $0x8,%rsp
  4022eb:	0f 1f 44 00 00       	nopl   0x0(%rax,%rax,1)
  4022f0:	ff d0                	call   *%rax
  4022f2:	48 8b 43 f8          	mov    -0x8(%rbx),%rax
  4022f6:	48 83 eb 08          	sub    $0x8,%rbx
  4022fa:	48 83 f8 ff          	cmp    $0xffffffffffffffff,%rax
  4022fe:	75 f0                	jne    4022f0 <__do_global_ctors_aux+0x20>
  402300:	48 8b 5d f8          	mov    -0x8(%rbp),%rbx
  402304:	c9                   	leave
  402305:	c3                   	ret
  402306:	66 2e 0f 1f 84 00 00 	cs nopw 0x0(%rax,%rax,1)
  40230d:	00 00 00 
  402310:	c3                   	ret

Disassembly of section .fini:

0000000000402311 <_fini>:
  402311:	e8 4a de ff ff       	call   400160 <__do_global_dtors_aux>
  402316:	c2 00 00             	ret    $0x0
